///////////////////////////////////////////////////////////////////////////////
//
// IAR C/C++ Compiler V9.20.1.2476 for 8051               26/May/2017  14:07:20
// Copyright 2004-2015 IAR Systems AB.
// Standalone license - IAR Embedded Workbench for 8051
//
//    Core               =  plain
//    Code model         =  banked
//    Data model         =  large
//    Calling convention =  xdata reentrant
//    Constant location  =  data_rom
//    Dptr setup         =  1,16
//                          
//    Source file        =  
//        D:\Zigbee\ZStack-CC2530-2.3.0-1.4.0\Components\stack\af\AF.c
//    Command line       =  
//        -f
//        D:\Zigbee\ZStack-CC2530-2.3.0-1.4.0\Projects\zstack\Samples\SampleApp\CC2530DB\..\..\..\Tools\CC2530DB\f8wEndev.cfg
//        (-DCPU32MHZ -DROOT=__near_func -DBLINK_LEDS) -f
//        D:\Zigbee\ZStack-CC2530-2.3.0-1.4.0\Projects\zstack\Samples\SampleApp\CC2530DB\..\..\..\Tools\CC2530DB\f8wConfig.cfg
//        (-DSECURE=0 -DZG_SECURE_DYNAMIC=0 -DREFLECTOR
//        -DDEFAULT_CHANLIST=0x00000800 -DZDAPP_CONFIG_PAN_ID=0xFFFF
//        -DNWK_START_DELAY=100 -DEXTENDED_JOINING_RANDOM_MASK=0x007F
//        -DBEACON_REQUEST_DELAY=100 -DBEACON_REQ_DELAY_MASK=0x00FF
//        -DROUTE_EXPIRY_TIME=30 -DAPSC_ACK_WAIT_DURATION_POLLED=3000
//        -DNWK_INDIRECT_MSG_TIMEOUT=7 -DMAX_RREQ_ENTRIES=8
//        -DAPSC_MAX_FRAME_RETRIES=3 -DNWK_MAX_DATA_RETRIES=2
//        -DMAX_POLL_FAILURE_RETRIES=2 -DMAX_BCAST=9 -DAPS_MAX_GROUPS=16
//        -DMAX_RTG_ENTRIES=40 -DNWK_MAX_BINDING_ENTRIES=4
//        -DMAX_BINDING_CLUSTER_IDS=4 "-DDEFAULT_KEY={0x01, 0x03, 0x05, 0x07,
//        0x09, 0x0B, 0x0D, 0x0F, 0x00, 0x02, 0x04, 0x06, 0x08, 0x0A, 0x0C,
//        0x0D}" -DMAC_MAX_FRAME_SIZE=116 "-DCONST=const __code"
//        -DGENERIC=__generic -DRFD_RCVC_ALWAYS_ON=FALSE -DPOLL_RATE=1000
//        -DQUEUED_POLL_RATE=100 -DRESPONSE_POLL_RATE=100)
//        -DREJOIN_POLL_RATE=440
//        D:\Zigbee\ZStack-CC2530-2.3.0-1.4.0\Components\stack\af\AF.c -D
//        NWK_AUTO_POLL -D ZTOOL_P1 -D MT_TASK -D MT_SYS_FUNC -D MT_ZDO_FUNC -D
//        POWER_SAVING -lC
//        D:\Zigbee\ZStack-CC2530-2.3.0-1.4.0\Projects\zstack\Samples\SampleApp\CC2530DB\EndDeviceEB\List\
//        -lA
//        D:\Zigbee\ZStack-CC2530-2.3.0-1.4.0\Projects\zstack\Samples\SampleApp\CC2530DB\EndDeviceEB\List\
//        --diag_suppress Pe001,Pa010 -o
//        D:\Zigbee\ZStack-CC2530-2.3.0-1.4.0\Projects\zstack\Samples\SampleApp\CC2530DB\EndDeviceEB\Obj\
//        -e --debug --core=plain --dptr=16,1 --data_model=large
//        --code_model=banked --calling_convention=xdata_reentrant
//        --place_constants=data_rom --nr_virtual_regs 8 -I
//        D:\Zigbee\ZStack-CC2530-2.3.0-1.4.0\Projects\zstack\Samples\SampleApp\CC2530DB\
//        -I
//        D:\Zigbee\ZStack-CC2530-2.3.0-1.4.0\Projects\zstack\Samples\SampleApp\CC2530DB\..\SOURCE\
//        -I
//        D:\Zigbee\ZStack-CC2530-2.3.0-1.4.0\Projects\zstack\Samples\SampleApp\CC2530DB\..\..\..\ZMAIN\TI2530DB\
//        -I
//        D:\Zigbee\ZStack-CC2530-2.3.0-1.4.0\Projects\zstack\Samples\SampleApp\CC2530DB\..\..\..\..\..\COMPONENTS\MT\
//        -I
//        D:\Zigbee\ZStack-CC2530-2.3.0-1.4.0\Projects\zstack\Samples\SampleApp\CC2530DB\..\..\..\..\..\COMPONENTS\HAL\INCLUDE\
//        -I
//        D:\Zigbee\ZStack-CC2530-2.3.0-1.4.0\Projects\zstack\Samples\SampleApp\CC2530DB\..\..\..\..\..\COMPONENTS\HAL\TARGET\CC2530EB\
//        -I
//        D:\Zigbee\ZStack-CC2530-2.3.0-1.4.0\Projects\zstack\Samples\SampleApp\CC2530DB\..\..\..\..\..\COMPONENTS\OSAL\MCU\CCSOC\
//        -I
//        D:\Zigbee\ZStack-CC2530-2.3.0-1.4.0\Projects\zstack\Samples\SampleApp\CC2530DB\..\..\..\..\..\COMPONENTS\OSAL\INCLUDE\
//        -I
//        D:\Zigbee\ZStack-CC2530-2.3.0-1.4.0\Projects\zstack\Samples\SampleApp\CC2530DB\..\..\..\..\..\COMPONENTS\STACK\AF\
//        -I
//        D:\Zigbee\ZStack-CC2530-2.3.0-1.4.0\Projects\zstack\Samples\SampleApp\CC2530DB\..\..\..\..\..\COMPONENTS\STACK\NWK\
//        -I
//        D:\Zigbee\ZStack-CC2530-2.3.0-1.4.0\Projects\zstack\Samples\SampleApp\CC2530DB\..\..\..\..\..\COMPONENTS\STACK\SEC\
//        -I
//        D:\Zigbee\ZStack-CC2530-2.3.0-1.4.0\Projects\zstack\Samples\SampleApp\CC2530DB\..\..\..\..\..\COMPONENTS\STACK\SAPI\
//        -I
//        D:\Zigbee\ZStack-CC2530-2.3.0-1.4.0\Projects\zstack\Samples\SampleApp\CC2530DB\..\..\..\..\..\COMPONENTS\STACK\SYS\
//        -I
//        D:\Zigbee\ZStack-CC2530-2.3.0-1.4.0\Projects\zstack\Samples\SampleApp\CC2530DB\..\..\..\..\..\COMPONENTS\STACK\ZDO\
//        -I
//        D:\Zigbee\ZStack-CC2530-2.3.0-1.4.0\Projects\zstack\Samples\SampleApp\CC2530DB\..\..\..\..\..\COMPONENTS\ZMAC\F8W\
//        -I
//        D:\Zigbee\ZStack-CC2530-2.3.0-1.4.0\Projects\zstack\Samples\SampleApp\CC2530DB\..\..\..\..\..\COMPONENTS\ZMAC\
//        -I
//        D:\Zigbee\ZStack-CC2530-2.3.0-1.4.0\Projects\zstack\Samples\SampleApp\CC2530DB\..\..\..\..\..\COMPONENTS\SERVICES\SADDR\
//        -I
//        D:\Zigbee\ZStack-CC2530-2.3.0-1.4.0\Projects\zstack\Samples\SampleApp\CC2530DB\..\..\..\..\..\COMPONENTS\SERVICES\SDATA\
//        -I
//        D:\Zigbee\ZStack-CC2530-2.3.0-1.4.0\Projects\zstack\Samples\SampleApp\CC2530DB\..\..\..\..\..\COMPONENTS\MAC\INCLUDE\
//        -I
//        D:\Zigbee\ZStack-CC2530-2.3.0-1.4.0\Projects\zstack\Samples\SampleApp\CC2530DB\..\..\..\..\..\COMPONENTS\MAC\HIGH_LEVEL\
//        -I
//        D:\Zigbee\ZStack-CC2530-2.3.0-1.4.0\Projects\zstack\Samples\SampleApp\CC2530DB\..\..\..\..\..\COMPONENTS\MAC\LOW_LEVEL\srf04\
//        -I
//        D:\Zigbee\ZStack-CC2530-2.3.0-1.4.0\Projects\zstack\Samples\SampleApp\CC2530DB\..\..\..\..\..\COMPONENTS\MAC\LOW_LEVEL\srf04\SINGLE_CHIP\
//        -Ohz --require_prototypes
//    List file          =  
//        D:\Zigbee\ZStack-CC2530-2.3.0-1.4.0\Projects\zstack\Samples\SampleApp\CC2530DB\EndDeviceEB\List\AF.s51
//
///////////////////////////////////////////////////////////////////////////////

        NAME AF

        RTMODEL "__SystemLibrary", "CLib"
        RTMODEL "__calling_convention", "xdata_reentrant"
        RTMODEL "__code_model", "banked"
        RTMODEL "__core", "plain"
        RTMODEL "__data_model", "large"
        RTMODEL "__dptr_size", "16"
        RTMODEL "__extended_stack", "disabled"
        RTMODEL "__location_for_constants", "data"
        RTMODEL "__number_of_dptrs", "1"
        RTMODEL "__rt_version", "1"

        RSEG DOVERLAY:DATA:NOROOT(0)
        RSEG IOVERLAY:IDATA:NOROOT(0)
        RSEG ISTACK:IDATA:NOROOT(0)
        RSEG PSTACK:XDATA:NOROOT(0)
        RSEG XSTACK:XDATA:NOROOT(0)

        EXTERN ?V0
        EXTERN ?V1
        EXTERN ?V2
        EXTERN ?V3
        EXTERN ?V4
        EXTERN ?V5
        EXTERN ?V6
        EXTERN ?V7
        EXTERN ?ALLOC_XSTACK8
        EXTERN ?BANKED_ENTER_XDATA
        EXTERN ?BANKED_LEAVE_XDATA
        EXTERN ?BDISPATCH
        EXTERN ?BRET
        EXTERN ?CALL_IND
        EXTERN ?DEALLOC_XSTACK8
        EXTERN ?L_MOV_X
        EXTERN ?PUSH_XSTACK8_X_TWO
        EXTERN ?PUSH_XSTACK_I_FOUR
        EXTERN ?PUSH_XSTACK_I_THREE
        EXTERN ?XLOAD_R0123
        EXTERN ?XSP
        EXTERN ?XSTACK_DISP0_8
        EXTERN ?XSTACK_DISP101_8
        EXTERN ?XSTORE_R0123
        EXTERN __INIT_XDATA_I
        EXTERN __INIT_XDATA_Z

        PUBLIC `??AF_DataRequest::?relay`
        FUNCTION `??AF_DataRequest::?relay`,0203H
        FUNCTION `??afBuildMSGIncoming::?relay`,0203H
        PUBLIC `??afCopyAddress::?relay`
        FUNCTION `??afCopyAddress::?relay`,0203H
        PUBLIC `??afDataConfirm::?relay`
        FUNCTION `??afDataConfirm::?relay`,0203H
        PUBLIC `??afDataReqMTU::?relay`
        FUNCTION `??afDataReqMTU::?relay`,0203H
        PUBLIC `??afEndPoints::?relay`
        FUNCTION `??afEndPoints::?relay`,0203H
        PUBLIC `??afFindEndPointDesc::?relay`
        FUNCTION `??afFindEndPointDesc::?relay`,0203H
        FUNCTION `??afFindEndPointDescList::?relay`,0203H
        PUBLIC `??afFindSimpleDesc::?relay`
        FUNCTION `??afFindSimpleDesc::?relay`,0203H
        PUBLIC `??afGetMatch::?relay`
        FUNCTION `??afGetMatch::?relay`,0203H
        PUBLIC `??afIncomingData::?relay`
        FUNCTION `??afIncomingData::?relay`,0203H
        PUBLIC `??afInit::?relay`
        FUNCTION `??afInit::?relay`,0203H
        PUBLIC `??afNumEndPoints::?relay`
        FUNCTION `??afNumEndPoints::?relay`,0203H
        PUBLIC `??afRegister::?relay`
        FUNCTION `??afRegister::?relay`,0203H
        PUBLIC `??afRegisterExtended::?relay`
        FUNCTION `??afRegisterExtended::?relay`,0203H
        PUBLIC `??afSetMatch::?relay`
        FUNCTION `??afSetMatch::?relay`,0203H
        PUBLIC AF_DataRequest
        FUNCTION AF_DataRequest,0a1203H
        ARGFRAME XSTACK, 9, STACK
        LOCFRAME ISTACK, 1, STACK
        LOCFRAME XSTACK, 45, STACK
        PUBLIC AF_DataRequestDiscoverRoute
        FUNCTION afBuildMSGIncoming,0a1203H
        ARGFRAME XSTACK, 38, STACK
        ARGFRAME IOVERLAY, 0, STATIC
        ARGFRAME DOVERLAY, 0, STATIC
        LOCFRAME ISTACK, 1, STACK
        LOCFRAME XSTACK, 22, STACK
        PUBLIC afCopyAddress
        FUNCTION afCopyAddress,021203H
        ARGFRAME XSTACK, 19, STACK
        ARGFRAME IOVERLAY, 0, STATIC
        ARGFRAME DOVERLAY, 0, STATIC
        LOCFRAME ISTACK, 1, STACK
        LOCFRAME XSTACK, 9, STACK
        PUBLIC afDataConfirm
        FUNCTION afDataConfirm,0a1203H
        ARGFRAME XSTACK, 45, STACK
        ARGFRAME IOVERLAY, 0, STATIC
        ARGFRAME DOVERLAY, 0, STATIC
        LOCFRAME ISTACK, 1, STACK
        LOCFRAME XSTACK, 14, STACK
        PUBLIC afDataReqMTU
        FUNCTION afDataReqMTU,021203H
        ARGFRAME XSTACK, 45, STACK
        ARGFRAME IOVERLAY, 0, STATIC
        ARGFRAME DOVERLAY, 0, STATIC
        LOCFRAME XSTACK, 9, STACK
        PUBLIC afEndPoints
        FUNCTION afEndPoints,0203H
        ARGFRAME XSTACK, 0, STACK
        LOCFRAME ISTACK, 3, STACK
        PUBLIC afFindEndPointDesc
        FUNCTION afFindEndPointDesc,0a1203H
        ARGFRAME XSTACK, 28, STACK
        ARGFRAME IOVERLAY, 0, STATIC
        ARGFRAME DOVERLAY, 0, STATIC
        LOCFRAME XSTACK, 10, STACK
        FUNCTION afFindEndPointDescList,0203H
        ARGFRAME XSTACK, 28, STACK
        ARGFRAME IOVERLAY, 0, STATIC
        ARGFRAME DOVERLAY, 0, STATIC
        LOCFRAME ISTACK, 2, STACK
        PUBLIC afFindSimpleDesc
        FUNCTION afFindSimpleDesc,0a1203H
        ARGFRAME XSTACK, 0, STACK
        LOCFRAME XSTACK, 12, STACK
        PUBLIC afGetMatch
        FUNCTION afGetMatch,0a1203H
        ARGFRAME XSTACK, 0, STACK
        LOCFRAME XSTACK, 10, STACK
        PUBLIC afIncomingData
        FUNCTION afIncomingData,0a1203H
        ARGFRAME XSTACK, 8, STACK
        LOCFRAME XSTACK, 38, STACK
        PUBLIC afInit
        FUNCTION afInit,0203H
        ARGFRAME XSTACK, 0, STACK
        LOCFRAME ISTACK, 2, STACK
        PUBLIC afNumEndPoints
        FUNCTION afNumEndPoints,0203H
        ARGFRAME XSTACK, 0, STACK
        LOCFRAME ISTACK, 2, STACK
        PUBLIC afRegister
        FUNCTION afRegister,0a1203H
        ARGFRAME XSTACK, 0, STACK
        LOCFRAME XSTACK, 10, STACK
        PUBLIC afRegisterExtended
        FUNCTION afRegisterExtended,0a1203H
        ARGFRAME XSTACK, 10, STACK
        ARGFRAME IOVERLAY, 0, STATIC
        ARGFRAME DOVERLAY, 0, STATIC
        LOCFRAME XSTACK, 12, STACK
        PUBLIC afSetMatch
        FUNCTION afSetMatch,0a1203H
        ARGFRAME XSTACK, 0, STACK
        LOCFRAME XSTACK, 10, STACK
        PUBLIC epList
        
          CFI Names cfiNames0
          CFI StackFrame CFA_SP SP IDATA
          CFI StackFrame CFA_PSP16 PSP16 XDATA
          CFI StackFrame CFA_XSP16 XSP16 XDATA
          CFI StaticOverlayFrame CFA_IOVERLAY IOVERLAY
          CFI StaticOverlayFrame CFA_DOVERLAY DOVERLAY
          CFI Resource `PSW.CY`:1, `B.BR0`:1, `B.BR1`:1, `B.BR2`:1, `B.BR3`:1
          CFI Resource `B.BR4`:1, `B.BR5`:1, `B.BR6`:1, `B.BR7`:1, `VB.BR8`:1
          CFI Resource `VB.BR9`:1, `VB.BR10`:1, `VB.BR11`:1, `VB.BR12`:1
          CFI Resource `VB.BR13`:1, `VB.BR14`:1, `VB.BR15`:1, VB:8, B:8, A:8
          CFI Resource PSW:8, DPL0:8, DPH0:8, R0:8, R1:8, R2:8, R3:8, R4:8, R5:8
          CFI Resource R6:8, R7:8, V0:8, V1:8, V2:8, V3:8, V4:8, V5:8, V6:8, V7:8
          CFI Resource SP:8, PSPH:8, PSPL:8, PSP16:16, XSPH:8, XSPL:8, XSP16:16
          CFI VirtualResource ?RET:24
          CFI Resource ?BRET_EXT:8
          CFI VirtualResource ?RET_HIGH:8, ?RET_LOW:8
          CFI ResourceParts PSP16 PSPH, PSPL
          CFI ResourceParts XSP16 XSPH, XSPL
          CFI ResourceParts ?RET ?BRET_EXT, ?RET_HIGH, ?RET_LOW
          CFI EndNames cfiNames0
        
          CFI Common cfiCommon0 Using cfiNames0
          CFI CodeAlign 1
          CFI DataAlign -1
          CFI ReturnAddress ?RET CODE
          CFI CFA_DOVERLAY Used
          CFI CFA_IOVERLAY Used
          CFI CFA_SP SP+-3
          CFI CFA_PSP16 PSP16+0
          CFI CFA_XSP16 XSP16+0
          CFI `PSW.CY` SameValue
          CFI `B.BR0` SameValue
          CFI `B.BR1` SameValue
          CFI `B.BR2` SameValue
          CFI `B.BR3` SameValue
          CFI `B.BR4` SameValue
          CFI `B.BR5` SameValue
          CFI `B.BR6` SameValue
          CFI `B.BR7` SameValue
          CFI `VB.BR8` SameValue
          CFI `VB.BR9` SameValue
          CFI `VB.BR10` SameValue
          CFI `VB.BR11` SameValue
          CFI `VB.BR12` SameValue
          CFI `VB.BR13` SameValue
          CFI `VB.BR14` SameValue
          CFI `VB.BR15` SameValue
          CFI VB SameValue
          CFI B Undefined
          CFI A Undefined
          CFI PSW SameValue
          CFI DPL0 SameValue
          CFI DPH0 SameValue
          CFI R0 Undefined
          CFI R1 Undefined
          CFI R2 Undefined
          CFI R3 Undefined
          CFI R4 Undefined
          CFI R5 Undefined
          CFI R6 SameValue
          CFI R7 SameValue
          CFI V0 SameValue
          CFI V1 SameValue
          CFI V2 SameValue
          CFI V3 SameValue
          CFI V4 SameValue
          CFI V5 SameValue
          CFI V6 SameValue
          CFI V7 SameValue
          CFI PSPH Undefined
          CFI PSPL Undefined
          CFI XSPH Undefined
          CFI XSPL Undefined
          CFI ?RET Concat
          CFI ?BRET_EXT Frame(CFA_SP, 3)
          CFI ?RET_HIGH Frame(CFA_SP, 2)
          CFI ?RET_LOW Frame(CFA_SP, 1)
          CFI EndCommon cfiCommon0
        
        
          CFI Common cfiCommon1 Using cfiNames0
          CFI CodeAlign 1
          CFI DataAlign -1
          CFI ReturnAddress ?RET CODE
          CFI CFA_DOVERLAY Used
          CFI CFA_IOVERLAY Used
          CFI CFA_SP SP+-2
          CFI CFA_PSP16 PSP16+0
          CFI CFA_XSP16 XSP16+0
          CFI `PSW.CY` SameValue
          CFI `B.BR0` SameValue
          CFI `B.BR1` SameValue
          CFI `B.BR2` SameValue
          CFI `B.BR3` SameValue
          CFI `B.BR4` SameValue
          CFI `B.BR5` SameValue
          CFI `B.BR6` SameValue
          CFI `B.BR7` SameValue
          CFI `VB.BR8` SameValue
          CFI `VB.BR9` SameValue
          CFI `VB.BR10` SameValue
          CFI `VB.BR11` SameValue
          CFI `VB.BR12` SameValue
          CFI `VB.BR13` SameValue
          CFI `VB.BR14` SameValue
          CFI `VB.BR15` SameValue
          CFI VB SameValue
          CFI B SameValue
          CFI A SameValue
          CFI PSW SameValue
          CFI DPL0 SameValue
          CFI DPH0 SameValue
          CFI R0 SameValue
          CFI R1 SameValue
          CFI R2 SameValue
          CFI R3 SameValue
          CFI R4 SameValue
          CFI R5 SameValue
          CFI R6 SameValue
          CFI R7 SameValue
          CFI V0 SameValue
          CFI V1 SameValue
          CFI V2 SameValue
          CFI V3 SameValue
          CFI V4 SameValue
          CFI V5 SameValue
          CFI V6 SameValue
          CFI V7 SameValue
          CFI PSPH Undefined
          CFI PSPL Undefined
          CFI XSPH Undefined
          CFI XSPL Undefined
          CFI ?RET Concat
          CFI ?BRET_EXT SameValue
          CFI ?RET_HIGH Frame(CFA_SP, 2)
          CFI ?RET_LOW Frame(CFA_SP, 1)
          CFI EndCommon cfiCommon1
        
APSDE_DataReq       SYMBOL "APSDE_DataReq"
`??APSDE_DataReq::?relay` SYMBOL "?relay", APSDE_DataReq
APSDE_DataReqMTU    SYMBOL "APSDE_DataReqMTU"
`??APSDE_DataReqMTU::?relay` SYMBOL "?relay", APSDE_DataReqMTU
NLME_GetShortAddr   SYMBOL "NLME_GetShortAddr"
`??NLME_GetShortAddr::?relay` SYMBOL "?relay", NLME_GetShortAddr
NLME_IsAddressBroadcast SYMBOL "NLME_IsAddressBroadcast"
`??NLME_IsAddressBroadcast::?relay` SYMBOL "?relay", NLME_IsAddressBroadcast
aps_FindGroupForEndpoint SYMBOL "aps_FindGroupForEndpoint"
`??aps_FindGroupForEndpoint::?relay` SYMBOL "?relay", aps_FindGroupForEndpoint
osal_mem_alloc      SYMBOL "osal_mem_alloc"
`??osal_mem_alloc::?relay` SYMBOL "?relay", osal_mem_alloc
osal_mem_free       SYMBOL "osal_mem_free"
`??osal_mem_free::?relay` SYMBOL "?relay", osal_mem_free
osal_memcpy         SYMBOL "osal_memcpy"
`??osal_memcpy::?relay` SYMBOL "?relay", osal_memcpy
osal_msg_allocate   SYMBOL "osal_msg_allocate"
`??osal_msg_allocate::?relay` SYMBOL "?relay", osal_msg_allocate
osal_msg_send       SYMBOL "osal_msg_send"
`??osal_msg_send::?relay` SYMBOL "?relay", osal_msg_send
sAddrExtCpy         SYMBOL "sAddrExtCpy"
`??sAddrExtCpy::?relay` SYMBOL "?relay", sAddrExtCpy
AF_DataRequest      SYMBOL "AF_DataRequest"
`??AF_DataRequest::?relay` SYMBOL "?relay", AF_DataRequest
afCopyAddress       SYMBOL "afCopyAddress"
`??afCopyAddress::?relay` SYMBOL "?relay", afCopyAddress
afDataConfirm       SYMBOL "afDataConfirm"
`??afDataConfirm::?relay` SYMBOL "?relay", afDataConfirm
afDataReqMTU        SYMBOL "afDataReqMTU"
`??afDataReqMTU::?relay` SYMBOL "?relay", afDataReqMTU
afEndPoints         SYMBOL "afEndPoints"
`??afEndPoints::?relay` SYMBOL "?relay", afEndPoints
afFindEndPointDesc  SYMBOL "afFindEndPointDesc"
`??afFindEndPointDesc::?relay` SYMBOL "?relay", afFindEndPointDesc
afFindSimpleDesc    SYMBOL "afFindSimpleDesc"
`??afFindSimpleDesc::?relay` SYMBOL "?relay", afFindSimpleDesc
afGetMatch          SYMBOL "afGetMatch"
`??afGetMatch::?relay` SYMBOL "?relay", afGetMatch
afIncomingData      SYMBOL "afIncomingData"
`??afIncomingData::?relay` SYMBOL "?relay", afIncomingData
afInit              SYMBOL "afInit"
`??afInit::?relay`  SYMBOL "?relay", afInit
afNumEndPoints      SYMBOL "afNumEndPoints"
`??afNumEndPoints::?relay` SYMBOL "?relay", afNumEndPoints
afRegister          SYMBOL "afRegister"
`??afRegister::?relay` SYMBOL "?relay", afRegister
afRegisterExtended  SYMBOL "afRegisterExtended"
`??afRegisterExtended::?relay` SYMBOL "?relay", afRegisterExtended
afSetMatch          SYMBOL "afSetMatch"
`??afSetMatch::?relay` SYMBOL "?relay", afSetMatch

        EXTERN `??APSDE_DataReq::?relay`
        FUNCTION `??APSDE_DataReq::?relay`,00H
        EXTERN `??APSDE_DataReqMTU::?relay`
        FUNCTION `??APSDE_DataReqMTU::?relay`,00H
        EXTERN `??NLME_GetShortAddr::?relay`
        FUNCTION `??NLME_GetShortAddr::?relay`,00H
        EXTERN `??NLME_IsAddressBroadcast::?relay`
        FUNCTION `??NLME_IsAddressBroadcast::?relay`,00H
        EXTERN `??aps_FindGroupForEndpoint::?relay`
        FUNCTION `??aps_FindGroupForEndpoint::?relay`,00H
        EXTERN `??osal_mem_alloc::?relay`
        FUNCTION `??osal_mem_alloc::?relay`,00H
        EXTERN `??osal_mem_free::?relay`
        FUNCTION `??osal_mem_free::?relay`,00H
        EXTERN `??osal_memcpy::?relay`
        FUNCTION `??osal_memcpy::?relay`,00H
        EXTERN `??osal_msg_allocate::?relay`
        FUNCTION `??osal_msg_allocate::?relay`,00H
        EXTERN `??osal_msg_send::?relay`
        FUNCTION `??osal_msg_send::?relay`,00H
        EXTERN `??sAddrExtCpy::?relay`
        FUNCTION `??sAddrExtCpy::?relay`,00H
        EXTERN APSDE_DataReq
        FUNCTION APSDE_DataReq,0202H
        ARGFRAME ISTACK, 0, STACK
        ARGFRAME PSTACK, 0, STACK
        ARGFRAME XSTACK, 45, STACK
        ARGFRAME IOVERLAY, 0, STATIC
        ARGFRAME DOVERLAY, 0, STATIC
        EXTERN APSDE_DataReqMTU
        FUNCTION APSDE_DataReqMTU,0202H
        ARGFRAME ISTACK, 0, STACK
        ARGFRAME PSTACK, 0, STACK
        ARGFRAME XSTACK, 9, STACK
        ARGFRAME IOVERLAY, 0, STATIC
        ARGFRAME DOVERLAY, 0, STATIC
        EXTERN NLME_GetShortAddr
        FUNCTION NLME_GetShortAddr,0202H
        ARGFRAME ISTACK, 0, STACK
        ARGFRAME PSTACK, 0, STACK
        ARGFRAME XSTACK, 45, STACK
        ARGFRAME IOVERLAY, 0, STATIC
        ARGFRAME DOVERLAY, 0, STATIC
        EXTERN NLME_IsAddressBroadcast
        FUNCTION NLME_IsAddressBroadcast,0202H
        ARGFRAME ISTACK, 0, STACK
        ARGFRAME PSTACK, 0, STACK
        ARGFRAME XSTACK, 45, STACK
        ARGFRAME IOVERLAY, 0, STATIC
        ARGFRAME DOVERLAY, 0, STATIC
        EXTERN aps_FindGroupForEndpoint
        FUNCTION aps_FindGroupForEndpoint,0202H
        ARGFRAME ISTACK, 0, STACK
        ARGFRAME PSTACK, 0, STACK
        ARGFRAME XSTACK, 28, STACK
        ARGFRAME IOVERLAY, 0, STATIC
        ARGFRAME DOVERLAY, 0, STATIC
        EXTERN apsfSendFragmented
        EXTERN osal_mem_alloc
        FUNCTION osal_mem_alloc,0202H
        ARGFRAME ISTACK, 0, STACK
        ARGFRAME PSTACK, 0, STACK
        ARGFRAME XSTACK, 12, STACK
        ARGFRAME IOVERLAY, 0, STATIC
        ARGFRAME DOVERLAY, 0, STATIC
        EXTERN osal_mem_free
        FUNCTION osal_mem_free,0202H
        ARGFRAME ISTACK, 0, STACK
        ARGFRAME PSTACK, 0, STACK
        ARGFRAME XSTACK, 45, STACK
        ARGFRAME IOVERLAY, 0, STATIC
        ARGFRAME DOVERLAY, 0, STATIC
        EXTERN osal_memcpy
        FUNCTION osal_memcpy,0202H
        ARGFRAME ISTACK, 0, STACK
        ARGFRAME PSTACK, 0, STACK
        ARGFRAME XSTACK, 22, STACK
        ARGFRAME IOVERLAY, 0, STATIC
        ARGFRAME DOVERLAY, 0, STATIC
        EXTERN osal_msg_allocate
        FUNCTION osal_msg_allocate,0202H
        ARGFRAME ISTACK, 0, STACK
        ARGFRAME PSTACK, 0, STACK
        ARGFRAME XSTACK, 19, STACK
        ARGFRAME IOVERLAY, 0, STATIC
        ARGFRAME DOVERLAY, 0, STATIC
        EXTERN osal_msg_send
        FUNCTION osal_msg_send,0202H
        ARGFRAME ISTACK, 0, STACK
        ARGFRAME PSTACK, 0, STACK
        ARGFRAME XSTACK, 19, STACK
        ARGFRAME IOVERLAY, 0, STATIC
        ARGFRAME DOVERLAY, 0, STATIC
        EXTERN sAddrExtCpy
        FUNCTION sAddrExtCpy,0202H
        ARGFRAME ISTACK, 0, STACK
        ARGFRAME PSTACK, 0, STACK
        ARGFRAME XSTACK, 45, STACK
        ARGFRAME IOVERLAY, 0, STATIC
        ARGFRAME DOVERLAY, 0, STATIC

// D:\Zigbee\ZStack-CC2530-2.3.0-1.4.0\Components\stack\af\AF.c
//    1 /**************************************************************************************************
//    2   Filename:       AF.c
//    3   Revised:        $Date: 2009-10-29 00:15:32 -0700 (Thu, 29 Oct 2009) $
//    4   Revision:       $Revision: 21013 $
//    5 
//    6   Description:    Application Framework - Device Description helper functions
//    7 
//    8 
//    9   Copyright 2004-2009 Texas Instruments Incorporated. All rights reserved.
//   10 
//   11   IMPORTANT: Your use of this Software is limited to those specific rights
//   12   granted under the terms of a software license agreement between the user
//   13   who downloaded the software, his/her employer (which must be your employer)
//   14   and Texas Instruments Incorporated (the "License").  You may not use this
//   15   Software unless you agree to abide by the terms of the License. The License
//   16   limits your use, and you acknowledge, that the Software may not be modified,
//   17   copied or distributed unless embedded on a Texas Instruments microcontroller
//   18   or used solely and exclusively in conjunction with a Texas Instruments radio
//   19   frequency transceiver, which is integrated into your product.  Other than for
//   20   the foregoing purpose, you may not use, reproduce, copy, prepare derivative
//   21   works of, modify, distribute, perform, display or sell this Software and/or
//   22   its documentation for any purpose.
//   23 
//   24   YOU FURTHER ACKNOWLEDGE AND AGREE THAT THE SOFTWARE AND DOCUMENTATION ARE
//   25   PROVIDED “AS IS” WITHOUT WARRANTY OF ANY KIND, EITHER EXPRESS OR IMPLIED,
//   26   INCLUDING WITHOUT LIMITATION, ANY WARRANTY OF MERCHANTABILITY, TITLE,
//   27   NON-INFRINGEMENT AND FITNESS FOR A PARTICULAR PURPOSE. IN NO EVENT SHALL
//   28   TEXAS INSTRUMENTS OR ITS LICENSORS BE LIABLE OR OBLIGATED UNDER CONTRACT,
//   29   NEGLIGENCE, STRICT LIABILITY, CONTRIBUTION, BREACH OF WARRANTY, OR OTHER
//   30   LEGAL EQUITABLE THEORY ANY DIRECT OR INDIRECT DAMAGES OR EXPENSES
//   31   INCLUDING BUT NOT LIMITED TO ANY INCIDENTAL, SPECIAL, INDIRECT, PUNITIVE
//   32   OR CONSEQUENTIAL DAMAGES, LOST PROFITS OR LOST DATA, COST OF PROCUREMENT
//   33   OF SUBSTITUTE GOODS, TECHNOLOGY, SERVICES, OR ANY CLAIMS BY THIRD PARTIES
//   34   (INCLUDING BUT NOT LIMITED TO ANY DEFENSE THEREOF), OR OTHER SIMILAR COSTS.
//   35 
//   36   Should you have any questions regarding your right to use this Software,
//   37   contact Texas Instruments Incorporated at www.TI.com.
//   38 **************************************************************************************************/
//   39 
//   40 /*********************************************************************
//   41  * INCLUDES
//   42  */
//   43 
//   44 #include "OSAL.h"
//   45 #include "AF.h"
//   46 #include "nwk_globals.h"
//   47 #include "nwk_util.h"
//   48 #include "aps_groups.h"
//   49 #include "ZDProfile.h"
//   50 #include "aps_frag.h"
//   51 #include "rtg.h"
//   52 
//   53 #if defined ( MT_AF_CB_FUNC )
//   54   #include "MT_AF.h"
//   55 #endif
//   56 
//   57 #if defined ( INTER_PAN )
//   58   #include "stub_aps.h"
//   59 #endif
//   60 
//   61 /*********************************************************************
//   62  * MACROS
//   63  */
//   64 
//   65 /*********************************************************************
//   66  * @fn      afSend
//   67  *
//   68  * @brief   Helper macro for V1 API to invoke V2 API.
//   69  *
//   70  * input parameters
//   71  *
//   72  * @param  *dstAddr - Full ZB destination address: Nwk Addr + End Point.
//   73  * @param   srcEP - Origination (i.e. respond to or ack to) End Point.
//   74  * @param   cID - A valid cluster ID as specified by the Profile.
//   75  * @param   len - Number of bytes of data pointed to by next param.
//   76  * @param  *buf - A pointer to the data bytes to send.
//   77  * @param   options - Valid bit mask of AF Tx Options as defined in AF.h.
//   78  * @param  *transID - A pointer to a byte which can be modified and which will
//   79  *                    be used as the transaction sequence number of the msg.
//   80  *
//   81  * output parameters
//   82  *
//   83  * @param  *transID - Incremented by one if the return value is success.
//   84  *
//   85  * @return  afStatus_t - See previous definition of afStatus_... types.
//   86  */
//   87 #define afSend( dstAddr, srcEP, cID, len, buf, transID, options, radius ) \ 
//   88         AF_DataRequest( (dstAddr), afFindEndPointDesc( (srcEP) ), \ 
//   89                           (cID), (len), (buf), (transID), (options), (radius) )
//   90 
//   91 /*********************************************************************
//   92  * CONSTANTS
//   93  */
//   94 
//   95 /*********************************************************************
//   96  * TYPEDEFS
//   97  */
//   98 
//   99 /*********************************************************************
//  100  * GLOBAL VARIABLES
//  101  */
//  102 

        RSEG XDATA_Z:XDATA:NOROOT(0)
        DATA16
//  103 epList_t *epList;
epList:
        DS 2
        REQUIRE __INIT_XDATA_Z
//  104 
//  105 /*********************************************************************
//  106  * EXTERNAL VARIABLES
//  107  */
//  108 
//  109 /*********************************************************************
//  110  * EXTERNAL FUNCTIONS
//  111  */
//  112 
//  113 /*********************************************************************
//  114  * LOCAL VARIABLES
//  115  */
//  116 
//  117 /*********************************************************************
//  118  * LOCAL FUNCTIONS
//  119  */
//  120 
//  121 static void afBuildMSGIncoming( aps_FrameFormat_t *aff, endPointDesc_t *epDesc,
//  122                 zAddrType_t *SrcAddress, uint16 SrcPanId, NLDE_Signal_t *sig,
//  123                 byte SecurityUse, uint32 timestamp );
//  124 
//  125 static epList_t *afFindEndPointDescList( byte EndPoint );
//  126 
//  127 static pDescCB afGetDescCB( endPointDesc_t *epDesc );
//  128 
//  129 /*********************************************************************
//  130  * NETWORK LAYER CALLBACKS
//  131  */
//  132 
//  133 /*********************************************************************
//  134  * PUBLIC FUNCTIONS
//  135  */
//  136 
//  137 /*********************************************************************
//  138  * @fn      afInit
//  139  *
//  140  * @brief   Initialization function for the AF.
//  141  *
//  142  * @param   none
//  143  *
//  144  * @return  none
//  145  */

        RSEG BANKED_CODE:CODE:NOROOT(0)
//  146 void afInit( void )
afInit:
          CFI Block cfiBlock0 Using cfiCommon0
          CFI Function afInit
        CODE
//  147 {
        PUSH    DPL
          CFI DPL0 Frame(CFA_SP, 4)
          CFI CFA_SP SP+-4
        PUSH    DPH
          CFI DPH0 Frame(CFA_SP, 5)
          CFI CFA_SP SP+-5
        ; Saved register size: 2
        ; Auto size: 0
//  148   // Start with no endpoint defined
//  149   epList = NULL;
        MOV     DPTR,#epList
        CLR     A
        MOVX    @DPTR,A
        INC     DPTR
        MOVX    @DPTR,A
//  150 }
        LJMP    ?Subroutine0 & 0xFFFF
          CFI EndBlock cfiBlock0
//  151 
//  152 /*********************************************************************
//  153  * @fn      afRegisterExtended
//  154  *
//  155  * @brief   Register an Application's EndPoint description.
//  156  *
//  157  * @param   epDesc - pointer to the Application's endpoint descriptor.
//  158  * @param   descFn - pointer to descriptor callback function
//  159  *
//  160  * NOTE:  The memory that epDesc is pointing to must exist after this call.
//  161  *
//  162  * @return  Pointer to epList_t on success, NULL otherwise.
//  163  */

        RSEG BANKED_CODE:CODE:NOROOT(0)
//  164 epList_t *afRegisterExtended( endPointDesc_t *epDesc, pDescCB descFn )
afRegisterExtended:
          CFI Block cfiBlock1 Using cfiCommon0
          CFI Function afRegisterExtended
        CODE
//  165 {
        FUNCALL afRegisterExtended, osal_mem_alloc
        LOCFRAME ISTACK, 0, STACK
        LOCFRAME PSTACK, 0, STACK
        LOCFRAME XSTACK, 12, STACK
        LOCFRAME IOVERLAY, 0, STATIC
        LOCFRAME DOVERLAY, 0, STATIC
        ARGFRAME ISTACK, 0, STACK
        ARGFRAME PSTACK, 0, STACK
        ARGFRAME XSTACK, 12, STACK
        ARGFRAME IOVERLAY, 0, STATIC
        ARGFRAME DOVERLAY, 0, STATIC
        REQUIRE ?V0
        REQUIRE ?V1
        REQUIRE ?V2
        REQUIRE ?V3
        MOV     A,#-0xc
        LCALL   ?BANKED_ENTER_XDATA
          CFI DPH0 load(1, XDATA, add(CFA_XSP16, literal(-1)))
          CFI DPL0 load(1, XDATA, add(CFA_XSP16, literal(-2)))
          CFI ?BRET_EXT load(1, XDATA, add(CFA_XSP16, literal(-3)))
          CFI ?RET_HIGH load(1, XDATA, add(CFA_XSP16, literal(-4)))
          CFI ?RET_LOW load(1, XDATA, add(CFA_XSP16, literal(-5)))
          CFI R7 load(1, XDATA, add(CFA_XSP16, literal(-6)))
          CFI V3 load(1, XDATA, add(CFA_XSP16, literal(-7)))
          CFI V2 load(1, XDATA, add(CFA_XSP16, literal(-8)))
          CFI V1 load(1, XDATA, add(CFA_XSP16, literal(-9)))
          CFI V0 load(1, XDATA, add(CFA_XSP16, literal(-10)))
          CFI VB load(1, XDATA, add(CFA_XSP16, literal(-11)))
          CFI R6 load(1, XDATA, add(CFA_XSP16, literal(-12)))
          CFI CFA_SP SP+0
          CFI CFA_XSP16 add(XSP16, 12)
        ; Saved register size: 12
        ; Auto size: 0
        MOV     ?V0,R2
        MOV     ?V1,R3
        MOV     A,R4
        MOV     R6,A
        MOV     A,R5
        MOV     R7,A
//  166   epList_t *ep;
//  167   epList_t *epSearch;
//  168 
//  169   ep = osal_mem_alloc( sizeof ( epList_t ) );
        ; Setup parameters for call to function osal_mem_alloc
        MOV     R2,#0x7
        MOV     R3,#0x0
        LCALL   `??osal_mem_alloc::?relay`; Banked call to: osal_mem_alloc
//  170   if ( ep )
        MOV     A,R2
        ORL     A,R3
        JZ      ??CrossCallReturnLabel_44
//  171   {
//  172     // Fill in the new list entry
//  173     ep->epDesc = epDesc;
        MOV     DPL,R2
        MOV     DPH,R3
        MOV     A,?V0
        MOVX    @DPTR,A
        INC     DPTR
        MOV     A,?V1
        MOVX    @DPTR,A
//  174 
//  175     // Default to allow Match Descriptor.
//  176     ep->flags = eEP_AllowMatch;
        MOV     DPL,R2
        MOV     DPH,R3
        INC     DPTR
        INC     DPTR
        MOV     A,#0x1
        LCALL   ?Subroutine8 & 0xFFFF
//  177     ep->pfnDescCB = descFn;
??CrossCallReturnLabel_0:
        MOV     A,R6
        MOVX    @DPTR,A
        INC     DPTR
        MOV     A,R7
        LCALL   ?Subroutine8 & 0xFFFF
//  178     ep->nextDesc = NULL;
??CrossCallReturnLabel_1:
        INC     DPTR
        INC     DPTR
        LCALL   ?Subroutine6 & 0xFFFF
//  179 
//  180     // Does a list exist?
//  181     if ( epList == NULL )
??CrossCallReturnLabel_32:
        LCALL   ?Subroutine9 & 0xFFFF
??CrossCallReturnLabel_4:
        JNZ     ??afRegisterExtended_0
//  182       epList = ep;  // Make this the first entry
        MOV     DPTR,#epList
        SJMP    ??afRegisterExtended_1
//  183     else
//  184     {
//  185       // Look for the end of the list
//  186       epSearch = epList;
??afRegisterExtended_0:
        MOVX    A,@DPTR
        MOV     R1,A
//  187       while( epSearch->nextDesc != NULL )
//  188         epSearch = epSearch->nextDesc;
??afRegisterExtended_2:
        MOV     A,R0
        ADD     A,#0x5
        JNC     ??afRegisterExtended_3
        INC     R1
??afRegisterExtended_3:
        MOV     R4,A
        MOV     A,R1
        MOV     R5,A
        MOV     DPL,R4
        MOV     DPH,R5
        LCALL   ?Subroutine9 & 0xFFFF
??CrossCallReturnLabel_5:
        JNZ     ??afRegisterExtended_2
//  189 
//  190       // Add new entry to end of list
//  191       epSearch->nextDesc = ep;
        MOV     DPL,R4
        MOV     DPH,R5
//  192     }
//  193   }
??afRegisterExtended_1:
        LCALL   ??Subroutine29_0 & 0xFFFF
//  194 
//  195   return ep;
??CrossCallReturnLabel_44:
          CFI EndBlock cfiBlock1
        REQUIRE ?Subroutine1
        ; // Fall through to label ?Subroutine1
//  196 }

        RSEG BANKED_CODE:CODE:NOROOT(0)
?Subroutine1:
          CFI Block cfiBlock2 Using cfiCommon0
          CFI NoFunction
          CFI CFA_SP SP+0
          CFI CFA_XSP16 add(XSP16, 12)
          CFI VB load(1, XDATA, add(CFA_XSP16, literal(-11)))
          CFI DPL0 load(1, XDATA, add(CFA_XSP16, literal(-2)))
          CFI DPH0 load(1, XDATA, add(CFA_XSP16, literal(-1)))
          CFI R6 load(1, XDATA, add(CFA_XSP16, literal(-12)))
          CFI R7 load(1, XDATA, add(CFA_XSP16, literal(-6)))
          CFI V0 load(1, XDATA, add(CFA_XSP16, literal(-10)))
          CFI V1 load(1, XDATA, add(CFA_XSP16, literal(-9)))
          CFI V2 load(1, XDATA, add(CFA_XSP16, literal(-8)))
          CFI V3 load(1, XDATA, add(CFA_XSP16, literal(-7)))
          CFI ?BRET_EXT load(1, XDATA, add(CFA_XSP16, literal(-3)))
          CFI ?RET_HIGH load(1, XDATA, add(CFA_XSP16, literal(-4)))
          CFI ?RET_LOW load(1, XDATA, add(CFA_XSP16, literal(-5)))
        MOV     R7,#0x4
        LJMP    ?BANKED_LEAVE_XDATA
          CFI CFA_SP SP+-3
          CFI CFA_XSP16 XSP16+0
          CFI VB SameValue
          CFI DPL0 SameValue
          CFI DPH0 SameValue
          CFI R6 SameValue
          CFI R7 SameValue
          CFI V0 SameValue
          CFI V1 SameValue
          CFI V2 SameValue
          CFI V3 SameValue
          CFI ?BRET_EXT Frame(CFA_SP, 3)
          CFI ?RET_HIGH Frame(CFA_SP, 2)
          CFI ?RET_LOW Frame(CFA_SP, 1)
          CFI EndBlock cfiBlock2

        RSEG BANKED_CODE:CODE:NOROOT(0)
?Subroutine8:
          CFI Block cfiCond3 Using cfiCommon0
          CFI Function afRegisterExtended
          CFI Conditional ??CrossCallReturnLabel_0
          CFI R6 load(1, XDATA, add(CFA_XSP16, literal(-12)))
          CFI VB load(1, XDATA, add(CFA_XSP16, literal(-11)))
          CFI V0 load(1, XDATA, add(CFA_XSP16, literal(-10)))
          CFI V1 load(1, XDATA, add(CFA_XSP16, literal(-9)))
          CFI V2 load(1, XDATA, add(CFA_XSP16, literal(-8)))
          CFI V3 load(1, XDATA, add(CFA_XSP16, literal(-7)))
          CFI R7 load(1, XDATA, add(CFA_XSP16, literal(-6)))
          CFI ?RET_LOW load(1, XDATA, add(CFA_XSP16, literal(-5)))
          CFI ?RET_HIGH load(1, XDATA, add(CFA_XSP16, literal(-4)))
          CFI ?BRET_EXT load(1, XDATA, add(CFA_XSP16, literal(-3)))
          CFI DPL0 load(1, XDATA, add(CFA_XSP16, literal(-2)))
          CFI DPH0 load(1, XDATA, add(CFA_XSP16, literal(-1)))
          CFI CFA_SP SP+-2
          CFI CFA_XSP16 add(XSP16, 12)
          CFI Block cfiCond4 Using cfiCommon0
          CFI (cfiCond4) Function afRegisterExtended
          CFI (cfiCond4) Conditional ??CrossCallReturnLabel_1
          CFI (cfiCond4) R6 load(1, XDATA, add(CFA_XSP16, literal(-12)))
          CFI (cfiCond4) VB load(1, XDATA, add(CFA_XSP16, literal(-11)))
          CFI (cfiCond4) V0 load(1, XDATA, add(CFA_XSP16, literal(-10)))
          CFI (cfiCond4) V1 load(1, XDATA, add(CFA_XSP16, literal(-9)))
          CFI (cfiCond4) V2 load(1, XDATA, add(CFA_XSP16, literal(-8)))
          CFI (cfiCond4) V3 load(1, XDATA, add(CFA_XSP16, literal(-7)))
          CFI (cfiCond4) R7 load(1, XDATA, add(CFA_XSP16, literal(-6)))
          CFI (cfiCond4) ?RET_LOW load(1, XDATA, add(CFA_XSP16, literal(-5)))
          CFI (cfiCond4) ?RET_HIGH load(1, XDATA, add(CFA_XSP16, literal(-4)))
          CFI (cfiCond4) ?BRET_EXT load(1, XDATA, add(CFA_XSP16, literal(-3)))
          CFI (cfiCond4) DPL0 load(1, XDATA, add(CFA_XSP16, literal(-2)))
          CFI (cfiCond4) DPH0 load(1, XDATA, add(CFA_XSP16, literal(-1)))
          CFI (cfiCond4) CFA_SP SP+-2
          CFI (cfiCond4) CFA_XSP16 add(XSP16, 12)
          CFI Block cfiPicker5 Using cfiCommon1
          CFI (cfiPicker5) NoFunction
          CFI (cfiPicker5) Picker
        MOVX    @DPTR,A
        MOV     DPL,R2
        MOV     DPH,R3
        INC     DPTR
        INC     DPTR
        INC     DPTR
        RET
          CFI (cfiCond3) CFA_SP SP+0
          CFI (cfiCond4) CFA_SP SP+0
          CFI (cfiPicker5) CFA_SP SP+0
          CFI EndBlock cfiCond3
          CFI EndBlock cfiCond4
          CFI EndBlock cfiPicker5

        RSEG BANKED_CODE:CODE:NOROOT(0)
?Subroutine6:
          CFI Block cfiCond6 Using cfiCommon0
          CFI Function afRegisterExtended
          CFI Conditional ??CrossCallReturnLabel_32
          CFI R6 load(1, XDATA, add(CFA_XSP16, literal(-12)))
          CFI VB load(1, XDATA, add(CFA_XSP16, literal(-11)))
          CFI V0 load(1, XDATA, add(CFA_XSP16, literal(-10)))
          CFI V1 load(1, XDATA, add(CFA_XSP16, literal(-9)))
          CFI V2 load(1, XDATA, add(CFA_XSP16, literal(-8)))
          CFI V3 load(1, XDATA, add(CFA_XSP16, literal(-7)))
          CFI R7 load(1, XDATA, add(CFA_XSP16, literal(-6)))
          CFI ?RET_LOW load(1, XDATA, add(CFA_XSP16, literal(-5)))
          CFI ?RET_HIGH load(1, XDATA, add(CFA_XSP16, literal(-4)))
          CFI ?BRET_EXT load(1, XDATA, add(CFA_XSP16, literal(-3)))
          CFI DPL0 load(1, XDATA, add(CFA_XSP16, literal(-2)))
          CFI DPH0 load(1, XDATA, add(CFA_XSP16, literal(-1)))
          CFI CFA_SP SP+-2
          CFI CFA_XSP16 add(XSP16, 12)
          CFI Block cfiCond7 Using cfiCommon0
          CFI (cfiCond7) Function AF_DataRequest
          CFI (cfiCond7) Conditional ??CrossCallReturnLabel_33
          CFI (cfiCond7) R6 load(1, XDATA, add(CFA_XSP16, literal(-15)))
          CFI (cfiCond7) VB load(1, XDATA, add(CFA_XSP16, literal(-14)))
          CFI (cfiCond7) V0 load(1, XDATA, add(CFA_XSP16, literal(-13)))
          CFI (cfiCond7) V1 load(1, XDATA, add(CFA_XSP16, literal(-12)))
          CFI (cfiCond7) V2 load(1, XDATA, add(CFA_XSP16, literal(-11)))
          CFI (cfiCond7) V3 load(1, XDATA, add(CFA_XSP16, literal(-10)))
          CFI (cfiCond7) V4 load(1, XDATA, add(CFA_XSP16, literal(-9)))
          CFI (cfiCond7) V5 load(1, XDATA, add(CFA_XSP16, literal(-8)))
          CFI (cfiCond7) V6 load(1, XDATA, add(CFA_XSP16, literal(-7)))
          CFI (cfiCond7) R7 load(1, XDATA, add(CFA_XSP16, literal(-6)))
          CFI (cfiCond7) ?RET_LOW load(1, XDATA, add(CFA_XSP16, literal(-5)))
          CFI (cfiCond7) ?RET_HIGH load(1, XDATA, add(CFA_XSP16, literal(-4)))
          CFI (cfiCond7) ?BRET_EXT load(1, XDATA, add(CFA_XSP16, literal(-3)))
          CFI (cfiCond7) DPL0 load(1, XDATA, add(CFA_XSP16, literal(-2)))
          CFI (cfiCond7) DPH0 load(1, XDATA, add(CFA_XSP16, literal(-1)))
          CFI (cfiCond7) CFA_SP SP+-2
          CFI (cfiCond7) CFA_XSP16 add(XSP16, 45)
          CFI Block cfiPicker8 Using cfiCommon1
          CFI (cfiPicker8) NoFunction
          CFI (cfiPicker8) Picker
        CLR     A
          CFI EndBlock cfiCond6
          CFI EndBlock cfiCond7
          CFI EndBlock cfiPicker8
        REQUIRE ??Subroutine27_0
        ; // Fall through to label ??Subroutine27_0

        RSEG BANKED_CODE:CODE:NOROOT(0)
??Subroutine27_0:
          CFI Block cfiCond9 Using cfiCommon0
          CFI Function afIncomingData
          CFI Conditional ??CrossCallReturnLabel_34
          CFI R6 load(1, XDATA, add(CFA_XSP16, literal(-16)))
          CFI VB load(1, XDATA, add(CFA_XSP16, literal(-15)))
          CFI V0 load(1, XDATA, add(CFA_XSP16, literal(-14)))
          CFI V1 load(1, XDATA, add(CFA_XSP16, literal(-13)))
          CFI V2 load(1, XDATA, add(CFA_XSP16, literal(-12)))
          CFI V3 load(1, XDATA, add(CFA_XSP16, literal(-11)))
          CFI V4 load(1, XDATA, add(CFA_XSP16, literal(-10)))
          CFI V5 load(1, XDATA, add(CFA_XSP16, literal(-9)))
          CFI V6 load(1, XDATA, add(CFA_XSP16, literal(-8)))
          CFI V7 load(1, XDATA, add(CFA_XSP16, literal(-7)))
          CFI R7 load(1, XDATA, add(CFA_XSP16, literal(-6)))
          CFI ?RET_LOW load(1, XDATA, add(CFA_XSP16, literal(-5)))
          CFI ?RET_HIGH load(1, XDATA, add(CFA_XSP16, literal(-4)))
          CFI ?BRET_EXT load(1, XDATA, add(CFA_XSP16, literal(-3)))
          CFI DPL0 load(1, XDATA, add(CFA_XSP16, literal(-2)))
          CFI DPH0 load(1, XDATA, add(CFA_XSP16, literal(-1)))
          CFI CFA_SP SP+-2
          CFI CFA_XSP16 add(XSP16, 28)
          CFI Block cfiCond10 Using cfiCommon0
          CFI (cfiCond10) Function afRegisterExtended
          CFI (cfiCond10) Conditional ??CrossCallReturnLabel_32
          CFI (cfiCond10) R6 load(1, XDATA, add(CFA_XSP16, literal(-12)))
          CFI (cfiCond10) VB load(1, XDATA, add(CFA_XSP16, literal(-11)))
          CFI (cfiCond10) V0 load(1, XDATA, add(CFA_XSP16, literal(-10)))
          CFI (cfiCond10) V1 load(1, XDATA, add(CFA_XSP16, literal(-9)))
          CFI (cfiCond10) V2 load(1, XDATA, add(CFA_XSP16, literal(-8)))
          CFI (cfiCond10) V3 load(1, XDATA, add(CFA_XSP16, literal(-7)))
          CFI (cfiCond10) R7 load(1, XDATA, add(CFA_XSP16, literal(-6)))
          CFI (cfiCond10) ?RET_LOW load(1, XDATA, add(CFA_XSP16, literal(-5)))
          CFI (cfiCond10) ?RET_HIGH load(1, XDATA, add(CFA_XSP16, literal(-4)))
          CFI (cfiCond10) ?BRET_EXT load(1, XDATA, add(CFA_XSP16, literal(-3)))
          CFI (cfiCond10) DPL0 load(1, XDATA, add(CFA_XSP16, literal(-2)))
          CFI (cfiCond10) DPH0 load(1, XDATA, add(CFA_XSP16, literal(-1)))
          CFI (cfiCond10) CFA_SP SP+-2
          CFI (cfiCond10) CFA_XSP16 add(XSP16, 12)
          CFI Block cfiCond11 Using cfiCommon0
          CFI (cfiCond11) Function AF_DataRequest
          CFI (cfiCond11) Conditional ??CrossCallReturnLabel_33
          CFI (cfiCond11) R6 load(1, XDATA, add(CFA_XSP16, literal(-15)))
          CFI (cfiCond11) VB load(1, XDATA, add(CFA_XSP16, literal(-14)))
          CFI (cfiCond11) V0 load(1, XDATA, add(CFA_XSP16, literal(-13)))
          CFI (cfiCond11) V1 load(1, XDATA, add(CFA_XSP16, literal(-12)))
          CFI (cfiCond11) V2 load(1, XDATA, add(CFA_XSP16, literal(-11)))
          CFI (cfiCond11) V3 load(1, XDATA, add(CFA_XSP16, literal(-10)))
          CFI (cfiCond11) V4 load(1, XDATA, add(CFA_XSP16, literal(-9)))
          CFI (cfiCond11) V5 load(1, XDATA, add(CFA_XSP16, literal(-8)))
          CFI (cfiCond11) V6 load(1, XDATA, add(CFA_XSP16, literal(-7)))
          CFI (cfiCond11) R7 load(1, XDATA, add(CFA_XSP16, literal(-6)))
          CFI (cfiCond11) ?RET_LOW load(1, XDATA, add(CFA_XSP16, literal(-5)))
          CFI (cfiCond11) ?RET_HIGH load(1, XDATA, add(CFA_XSP16, literal(-4)))
          CFI (cfiCond11) ?BRET_EXT load(1, XDATA, add(CFA_XSP16, literal(-3)))
          CFI (cfiCond11) DPL0 load(1, XDATA, add(CFA_XSP16, literal(-2)))
          CFI (cfiCond11) DPH0 load(1, XDATA, add(CFA_XSP16, literal(-1)))
          CFI (cfiCond11) CFA_SP SP+-2
          CFI (cfiCond11) CFA_XSP16 add(XSP16, 45)
          CFI Block cfiPicker12 Using cfiCommon1
          CFI (cfiPicker12) NoFunction
          CFI (cfiPicker12) Picker
        MOVX    @DPTR,A
        INC     DPTR
        MOVX    @DPTR,A
        MOV     DPTR,#epList
        RET
          CFI (cfiCond9) CFA_SP SP+0
          CFI (cfiCond10) CFA_SP SP+0
          CFI (cfiCond11) CFA_SP SP+0
          CFI (cfiPicker12) CFA_SP SP+0
          CFI EndBlock cfiCond9
          CFI EndBlock cfiCond10
          CFI EndBlock cfiCond11
          CFI EndBlock cfiPicker12
//  197 
//  198 /*********************************************************************
//  199  * @fn      afRegister
//  200  *
//  201  * @brief   Register an Application's EndPoint description.
//  202  *
//  203  * @param   epDesc - pointer to the Application's endpoint descriptor.
//  204  *
//  205  * NOTE:  The memory that epDesc is pointing to must exist after this call.
//  206  *
//  207  * @return  afStatus_SUCCESS - Registered
//  208  *          afStatus_MEM_FAIL - not enough memory to add descriptor
//  209  *          afStatus_INVALID_PARAMETER - duplicate endpoint
//  210  */

        RSEG BANKED_CODE:CODE:NOROOT(0)
//  211 afStatus_t afRegister( endPointDesc_t *epDesc )
afRegister:
          CFI Block cfiBlock13 Using cfiCommon0
          CFI Function afRegister
        CODE
//  212 {
        FUNCALL afRegister, afFindEndPointDescList
        LOCFRAME ISTACK, 0, STACK
        LOCFRAME PSTACK, 0, STACK
        LOCFRAME XSTACK, 10, STACK
        LOCFRAME IOVERLAY, 0, STATIC
        LOCFRAME DOVERLAY, 0, STATIC
        ARGFRAME ISTACK, 0, STACK
        ARGFRAME PSTACK, 0, STACK
        ARGFRAME XSTACK, 10, STACK
        ARGFRAME IOVERLAY, 0, STATIC
        ARGFRAME DOVERLAY, 0, STATIC
        FUNCALL afRegister, afRegisterExtended
        LOCFRAME ISTACK, 0, STACK
        LOCFRAME PSTACK, 0, STACK
        LOCFRAME XSTACK, 10, STACK
        LOCFRAME IOVERLAY, 0, STATIC
        LOCFRAME DOVERLAY, 0, STATIC
        ARGFRAME ISTACK, 0, STACK
        ARGFRAME PSTACK, 0, STACK
        ARGFRAME XSTACK, 10, STACK
        ARGFRAME IOVERLAY, 0, STATIC
        ARGFRAME DOVERLAY, 0, STATIC
        REQUIRE ?V0
        REQUIRE ?V1
        MOV     A,#-0xa
        LCALL   ?BANKED_ENTER_XDATA
          CFI DPH0 load(1, XDATA, add(CFA_XSP16, literal(-1)))
          CFI DPL0 load(1, XDATA, add(CFA_XSP16, literal(-2)))
          CFI ?BRET_EXT load(1, XDATA, add(CFA_XSP16, literal(-3)))
          CFI ?RET_HIGH load(1, XDATA, add(CFA_XSP16, literal(-4)))
          CFI ?RET_LOW load(1, XDATA, add(CFA_XSP16, literal(-5)))
          CFI R7 load(1, XDATA, add(CFA_XSP16, literal(-6)))
          CFI V1 load(1, XDATA, add(CFA_XSP16, literal(-7)))
          CFI V0 load(1, XDATA, add(CFA_XSP16, literal(-8)))
          CFI VB load(1, XDATA, add(CFA_XSP16, literal(-9)))
          CFI R6 load(1, XDATA, add(CFA_XSP16, literal(-10)))
          CFI CFA_SP SP+0
          CFI CFA_XSP16 add(XSP16, 10)
        ; Saved register size: 10
        ; Auto size: 0
        MOV     A,R2
        MOV     R6,A
        MOV     A,R3
        MOV     R7,A
//  213   epList_t *ep;
//  214   
//  215   // Look for duplicate endpoint
//  216   if ( afFindEndPointDescList( epDesc->endPoint ) )
        ; Setup parameters for call to function afFindEndPointDescList
        MOV     DPL,R6
        MOV     DPH,R7
        MOVX    A,@DPTR
        MOV     R1,A
        LCALL   `??afFindEndPointDescList::?relay`; Banked call to: afFindEndPointDescList
        MOV     ?V1,R3
        MOV     A,R2
        ORL     A,?V1
        JZ      ??afRegister_0
//  217     return ( afStatus_INVALID_PARAMETER );
        MOV     R1,#0x2
        SJMP    ??afRegister_1
//  218   
//  219   ep = afRegisterExtended( epDesc, NULL );
//  220 
//  221   return ((ep == NULL) ? afStatus_MEM_FAIL : afStatus_SUCCESS);
??afRegister_0:
        ; Setup parameters for call to function afRegisterExtended
        MOV     R4,#0x0
        MOV     R5,#0x0
        MOV     A,R6
        MOV     R2,A
        MOV     A,R7
        MOV     R3,A
        LCALL   `??afRegisterExtended::?relay`; Banked call to: afRegisterExtended
        MOV     ?V1,R3
        MOV     A,R2
        ORL     A,?V1
        JNZ     ??afRegister_2
        MOV     R1,#0x10
        SJMP    ??afRegister_1
??afRegister_2:
        MOV     R1,#0x0
??afRegister_1:
        LJMP    ?Subroutine2 & 0xFFFF
//  222 }
          CFI EndBlock cfiBlock13
//  223 
//  224 
//  225 /*********************************************************************
//  226  * @fn          afDataConfirm
//  227  *
//  228  * @brief       This function will generate the Data Confirm back to
//  229  *              the application.
//  230  *
//  231  * @param       endPoint - confirm end point
//  232  * @param       transID - transaction ID from APSDE_DATA_REQUEST
//  233  * @param       status - status of APSDE_DATA_REQUEST
//  234  *
//  235  * @return      none
//  236  */

        RSEG BANKED_CODE:CODE:NOROOT(0)
//  237 void afDataConfirm( uint8 endPoint, uint8 transID, ZStatus_t status )
afDataConfirm:
          CFI Block cfiBlock14 Using cfiCommon0
          CFI Function afDataConfirm
        CODE
//  238 {
        FUNCALL afDataConfirm, afFindEndPointDesc
        LOCFRAME ISTACK, 0, STACK
        LOCFRAME PSTACK, 0, STACK
        LOCFRAME XSTACK, 14, STACK
        LOCFRAME IOVERLAY, 0, STATIC
        LOCFRAME DOVERLAY, 0, STATIC
        ARGFRAME ISTACK, 0, STACK
        ARGFRAME PSTACK, 0, STACK
        ARGFRAME XSTACK, 14, STACK
        ARGFRAME IOVERLAY, 0, STATIC
        ARGFRAME DOVERLAY, 0, STATIC
        FUNCALL afDataConfirm, osal_msg_allocate
        LOCFRAME ISTACK, 0, STACK
        LOCFRAME PSTACK, 0, STACK
        LOCFRAME XSTACK, 14, STACK
        LOCFRAME IOVERLAY, 0, STATIC
        LOCFRAME DOVERLAY, 0, STATIC
        ARGFRAME ISTACK, 0, STACK
        ARGFRAME PSTACK, 0, STACK
        ARGFRAME XSTACK, 14, STACK
        ARGFRAME IOVERLAY, 0, STATIC
        ARGFRAME DOVERLAY, 0, STATIC
        FUNCALL afDataConfirm, osal_msg_send
        LOCFRAME ISTACK, 0, STACK
        LOCFRAME PSTACK, 0, STACK
        LOCFRAME XSTACK, 14, STACK
        LOCFRAME IOVERLAY, 0, STATIC
        LOCFRAME DOVERLAY, 0, STATIC
        ARGFRAME ISTACK, 0, STACK
        ARGFRAME PSTACK, 0, STACK
        ARGFRAME XSTACK, 14, STACK
        ARGFRAME IOVERLAY, 0, STATIC
        ARGFRAME DOVERLAY, 0, STATIC
        REQUIRE ?V0
        REQUIRE ?V2
        REQUIRE ?V3
        REQUIRE ?V4
        REQUIRE ?V5
        MOV     A,#-0xe
        LCALL   ?BANKED_ENTER_XDATA
          CFI DPH0 load(1, XDATA, add(CFA_XSP16, literal(-1)))
          CFI DPL0 load(1, XDATA, add(CFA_XSP16, literal(-2)))
          CFI ?BRET_EXT load(1, XDATA, add(CFA_XSP16, literal(-3)))
          CFI ?RET_HIGH load(1, XDATA, add(CFA_XSP16, literal(-4)))
          CFI ?RET_LOW load(1, XDATA, add(CFA_XSP16, literal(-5)))
          CFI R7 load(1, XDATA, add(CFA_XSP16, literal(-6)))
          CFI V5 load(1, XDATA, add(CFA_XSP16, literal(-7)))
          CFI V4 load(1, XDATA, add(CFA_XSP16, literal(-8)))
          CFI V3 load(1, XDATA, add(CFA_XSP16, literal(-9)))
          CFI V2 load(1, XDATA, add(CFA_XSP16, literal(-10)))
          CFI V1 load(1, XDATA, add(CFA_XSP16, literal(-11)))
          CFI V0 load(1, XDATA, add(CFA_XSP16, literal(-12)))
          CFI VB load(1, XDATA, add(CFA_XSP16, literal(-13)))
          CFI R6 load(1, XDATA, add(CFA_XSP16, literal(-14)))
          CFI CFA_SP SP+0
          CFI CFA_XSP16 add(XSP16, 14)
        ; Saved register size: 14
        ; Auto size: 0
        MOV     A,R1
        MOV     R6,A
        MOV     A,R2
        MOV     R7,A
        MOV     ?V0,R3
//  239   endPointDesc_t *epDesc;
//  240   afDataConfirm_t *msgPtr;
//  241 
//  242   // Find the endpoint description
//  243   epDesc = afFindEndPointDesc( endPoint );
        ; Setup parameters for call to function afFindEndPointDesc
        LCALL   `??afFindEndPointDesc::?relay`; Banked call to: afFindEndPointDesc
        MOV     ?V4,R2
        MOV     ?V5,R3
//  244   if ( epDesc == NULL )
        MOV     A,R2
        ORL     A,?V5
        JZ      ??afDataConfirm_0
//  245     return;
//  246 
//  247   // Determine the incoming command type
//  248   msgPtr = (afDataConfirm_t *)osal_msg_allocate( sizeof(afDataConfirm_t) );
        ; Setup parameters for call to function osal_msg_allocate
        MOV     R2,#0x4
        MOV     R3,#0x0
        LCALL   `??osal_msg_allocate::?relay`; Banked call to: osal_msg_allocate
//  249   if ( msgPtr )
        MOV     A,R2
        ORL     A,R3
        JZ      ??afDataConfirm_0
//  250   {
//  251     // Build the Data Confirm message
//  252     msgPtr->hdr.event = AF_DATA_CONFIRM_CMD;
        MOV     DPL,R2
        MOV     DPH,R3
        MOV     A,#-0x3
        MOVX    @DPTR,A
//  253     msgPtr->hdr.status = status;
        INC     DPTR
        MOV     A,?V0
        MOVX    @DPTR,A
//  254     msgPtr->endpoint = endPoint;
        MOV     A,R6
        MOV     DPL,R2
        MOV     DPH,R3
        INC     DPTR
        INC     DPTR
        MOVX    @DPTR,A
//  255     msgPtr->transID = transID;
        MOV     A,R7
        MOV     DPL,R2
        MOV     DPH,R3
        INC     DPTR
        INC     DPTR
        INC     DPTR
        MOVX    @DPTR,A
//  256 
//  257 #if defined ( MT_AF_CB_FUNC )
//  258     /* If MT has subscribed for this callback, don't send as a message. */
//  259     if ( AFCB_CHECK(CB_ID_AF_DATA_CNF,*(epDesc->task_id)) )
//  260     {
//  261       /* Send callback if it's subscribed */
//  262       MT_AfDataConfirm ((void *)msgPtr);
//  263       /* Release the memory. */
//  264       osal_msg_deallocate( (void *)msgPtr );
//  265     }
//  266     else
//  267 #endif
//  268     {
//  269       /* send message through task message */
//  270       osal_msg_send( *(epDesc->task_id), (byte *)msgPtr );
        ; Setup parameters for call to function osal_msg_send
        MOV     DPL,?V4
        MOV     DPH,?V5
        LCALL   ?Subroutine11 & 0xFFFF
//  271     }
//  272   }
??CrossCallReturnLabel_36:
        LCALL   `??osal_msg_send::?relay`; Banked call to: osal_msg_send
//  273 }
??afDataConfirm_0:
        MOV     R7,#0x6
        LJMP    ?BANKED_LEAVE_XDATA
          CFI R6 SameValue
          CFI VB SameValue
          CFI V0 SameValue
          CFI V1 SameValue
          CFI V2 SameValue
          CFI V3 SameValue
          CFI V4 SameValue
          CFI V5 SameValue
          CFI R7 SameValue
          CFI ?RET_LOW Frame(CFA_SP, 1)
          CFI ?RET_HIGH Frame(CFA_SP, 2)
          CFI ?BRET_EXT Frame(CFA_SP, 3)
          CFI DPL0 SameValue
          CFI DPH0 SameValue
          CFI CFA_SP SP+-3
          CFI CFA_XSP16 XSP16+0
          CFI EndBlock cfiBlock14

        RSEG BANKED_CODE:CODE:NOROOT(0)
?Subroutine11:
          CFI Block cfiCond15 Using cfiCommon0
          CFI Function afDataConfirm
          CFI Conditional ??CrossCallReturnLabel_36
          CFI R6 load(1, XDATA, add(CFA_XSP16, literal(-14)))
          CFI VB load(1, XDATA, add(CFA_XSP16, literal(-13)))
          CFI V0 load(1, XDATA, add(CFA_XSP16, literal(-12)))
          CFI V1 load(1, XDATA, add(CFA_XSP16, literal(-11)))
          CFI V2 load(1, XDATA, add(CFA_XSP16, literal(-10)))
          CFI V3 load(1, XDATA, add(CFA_XSP16, literal(-9)))
          CFI V4 load(1, XDATA, add(CFA_XSP16, literal(-8)))
          CFI V5 load(1, XDATA, add(CFA_XSP16, literal(-7)))
          CFI R7 load(1, XDATA, add(CFA_XSP16, literal(-6)))
          CFI ?RET_LOW load(1, XDATA, add(CFA_XSP16, literal(-5)))
          CFI ?RET_HIGH load(1, XDATA, add(CFA_XSP16, literal(-4)))
          CFI ?BRET_EXT load(1, XDATA, add(CFA_XSP16, literal(-3)))
          CFI DPL0 load(1, XDATA, add(CFA_XSP16, literal(-2)))
          CFI DPH0 load(1, XDATA, add(CFA_XSP16, literal(-1)))
          CFI CFA_SP SP+-2
          CFI CFA_XSP16 add(XSP16, 14)
          CFI Block cfiCond16 Using cfiCommon0
          CFI (cfiCond16) Function afBuildMSGIncoming
          CFI (cfiCond16) Conditional ??CrossCallReturnLabel_37
          CFI (cfiCond16) R6 load(1, XDATA, add(CFA_XSP16, literal(-16)))
          CFI (cfiCond16) VB load(1, XDATA, add(CFA_XSP16, literal(-15)))
          CFI (cfiCond16) V0 load(1, XDATA, add(CFA_XSP16, literal(-14)))
          CFI (cfiCond16) V1 load(1, XDATA, add(CFA_XSP16, literal(-13)))
          CFI (cfiCond16) V2 load(1, XDATA, add(CFA_XSP16, literal(-12)))
          CFI (cfiCond16) V3 load(1, XDATA, add(CFA_XSP16, literal(-11)))
          CFI (cfiCond16) V4 load(1, XDATA, add(CFA_XSP16, literal(-10)))
          CFI (cfiCond16) V5 load(1, XDATA, add(CFA_XSP16, literal(-9)))
          CFI (cfiCond16) V6 load(1, XDATA, add(CFA_XSP16, literal(-8)))
          CFI (cfiCond16) V7 load(1, XDATA, add(CFA_XSP16, literal(-7)))
          CFI (cfiCond16) R7 load(1, XDATA, add(CFA_XSP16, literal(-6)))
          CFI (cfiCond16) ?RET_LOW load(1, XDATA, add(CFA_XSP16, literal(-5)))
          CFI (cfiCond16) ?RET_HIGH load(1, XDATA, add(CFA_XSP16, literal(-4)))
          CFI (cfiCond16) ?BRET_EXT load(1, XDATA, add(CFA_XSP16, literal(-3)))
          CFI (cfiCond16) DPL0 load(1, XDATA, add(CFA_XSP16, literal(-2)))
          CFI (cfiCond16) DPH0 load(1, XDATA, add(CFA_XSP16, literal(-1)))
          CFI (cfiCond16) CFA_SP SP+-2
          CFI (cfiCond16) CFA_XSP16 add(XSP16, 19)
          CFI Block cfiPicker17 Using cfiCommon1
          CFI (cfiPicker17) NoFunction
          CFI (cfiPicker17) Picker
        INC     DPTR
          CFI EndBlock cfiCond15
          CFI EndBlock cfiCond16
          CFI EndBlock cfiPicker17
        REQUIRE ??Subroutine28_0
        ; // Fall through to label ??Subroutine28_0

        RSEG BANKED_CODE:CODE:NOROOT(0)
??Subroutine28_0:
          CFI Block cfiCond18 Using cfiCommon0
          CFI Function afIncomingData
          CFI Conditional ??CrossCallReturnLabel_35
          CFI R6 load(1, XDATA, add(CFA_XSP16, literal(-16)))
          CFI VB load(1, XDATA, add(CFA_XSP16, literal(-15)))
          CFI V0 load(1, XDATA, add(CFA_XSP16, literal(-14)))
          CFI V1 load(1, XDATA, add(CFA_XSP16, literal(-13)))
          CFI V2 load(1, XDATA, add(CFA_XSP16, literal(-12)))
          CFI V3 load(1, XDATA, add(CFA_XSP16, literal(-11)))
          CFI V4 load(1, XDATA, add(CFA_XSP16, literal(-10)))
          CFI V5 load(1, XDATA, add(CFA_XSP16, literal(-9)))
          CFI V6 load(1, XDATA, add(CFA_XSP16, literal(-8)))
          CFI V7 load(1, XDATA, add(CFA_XSP16, literal(-7)))
          CFI R7 load(1, XDATA, add(CFA_XSP16, literal(-6)))
          CFI ?RET_LOW load(1, XDATA, add(CFA_XSP16, literal(-5)))
          CFI ?RET_HIGH load(1, XDATA, add(CFA_XSP16, literal(-4)))
          CFI ?BRET_EXT load(1, XDATA, add(CFA_XSP16, literal(-3)))
          CFI DPL0 load(1, XDATA, add(CFA_XSP16, literal(-2)))
          CFI DPH0 load(1, XDATA, add(CFA_XSP16, literal(-1)))
          CFI CFA_SP SP+-2
          CFI CFA_XSP16 add(XSP16, 28)
          CFI Block cfiCond19 Using cfiCommon0
          CFI (cfiCond19) Function afDataConfirm
          CFI (cfiCond19) Conditional ??CrossCallReturnLabel_36
          CFI (cfiCond19) R6 load(1, XDATA, add(CFA_XSP16, literal(-14)))
          CFI (cfiCond19) VB load(1, XDATA, add(CFA_XSP16, literal(-13)))
          CFI (cfiCond19) V0 load(1, XDATA, add(CFA_XSP16, literal(-12)))
          CFI (cfiCond19) V1 load(1, XDATA, add(CFA_XSP16, literal(-11)))
          CFI (cfiCond19) V2 load(1, XDATA, add(CFA_XSP16, literal(-10)))
          CFI (cfiCond19) V3 load(1, XDATA, add(CFA_XSP16, literal(-9)))
          CFI (cfiCond19) V4 load(1, XDATA, add(CFA_XSP16, literal(-8)))
          CFI (cfiCond19) V5 load(1, XDATA, add(CFA_XSP16, literal(-7)))
          CFI (cfiCond19) R7 load(1, XDATA, add(CFA_XSP16, literal(-6)))
          CFI (cfiCond19) ?RET_LOW load(1, XDATA, add(CFA_XSP16, literal(-5)))
          CFI (cfiCond19) ?RET_HIGH load(1, XDATA, add(CFA_XSP16, literal(-4)))
          CFI (cfiCond19) ?BRET_EXT load(1, XDATA, add(CFA_XSP16, literal(-3)))
          CFI (cfiCond19) DPL0 load(1, XDATA, add(CFA_XSP16, literal(-2)))
          CFI (cfiCond19) DPH0 load(1, XDATA, add(CFA_XSP16, literal(-1)))
          CFI (cfiCond19) CFA_SP SP+-2
          CFI (cfiCond19) CFA_XSP16 add(XSP16, 14)
          CFI Block cfiCond20 Using cfiCommon0
          CFI (cfiCond20) Function afBuildMSGIncoming
          CFI (cfiCond20) Conditional ??CrossCallReturnLabel_37
          CFI (cfiCond20) R6 load(1, XDATA, add(CFA_XSP16, literal(-16)))
          CFI (cfiCond20) VB load(1, XDATA, add(CFA_XSP16, literal(-15)))
          CFI (cfiCond20) V0 load(1, XDATA, add(CFA_XSP16, literal(-14)))
          CFI (cfiCond20) V1 load(1, XDATA, add(CFA_XSP16, literal(-13)))
          CFI (cfiCond20) V2 load(1, XDATA, add(CFA_XSP16, literal(-12)))
          CFI (cfiCond20) V3 load(1, XDATA, add(CFA_XSP16, literal(-11)))
          CFI (cfiCond20) V4 load(1, XDATA, add(CFA_XSP16, literal(-10)))
          CFI (cfiCond20) V5 load(1, XDATA, add(CFA_XSP16, literal(-9)))
          CFI (cfiCond20) V6 load(1, XDATA, add(CFA_XSP16, literal(-8)))
          CFI (cfiCond20) V7 load(1, XDATA, add(CFA_XSP16, literal(-7)))
          CFI (cfiCond20) R7 load(1, XDATA, add(CFA_XSP16, literal(-6)))
          CFI (cfiCond20) ?RET_LOW load(1, XDATA, add(CFA_XSP16, literal(-5)))
          CFI (cfiCond20) ?RET_HIGH load(1, XDATA, add(CFA_XSP16, literal(-4)))
          CFI (cfiCond20) ?BRET_EXT load(1, XDATA, add(CFA_XSP16, literal(-3)))
          CFI (cfiCond20) DPL0 load(1, XDATA, add(CFA_XSP16, literal(-2)))
          CFI (cfiCond20) DPH0 load(1, XDATA, add(CFA_XSP16, literal(-1)))
          CFI (cfiCond20) CFA_SP SP+-2
          CFI (cfiCond20) CFA_XSP16 add(XSP16, 19)
          CFI Block cfiPicker21 Using cfiCommon1
          CFI (cfiPicker21) NoFunction
          CFI (cfiPicker21) Picker
        LCALL   ?Subroutine22 & 0xFFFF
??CrossCallReturnLabel_40:
        MOV     R1,A
        RET
          CFI (cfiCond18) CFA_SP SP+0
          CFI (cfiCond19) CFA_SP SP+0
          CFI (cfiCond20) CFA_SP SP+0
          CFI (cfiPicker21) CFA_SP SP+0
          CFI EndBlock cfiCond18
          CFI EndBlock cfiCond19
          CFI EndBlock cfiCond20
          CFI EndBlock cfiPicker21
//  274 
//  275 /*********************************************************************
//  276  * @fn          afIncomingData
//  277  *
//  278  * @brief       Transfer a data PDU (ASDU) from the APS sub-layer to the AF.
//  279  *
//  280  * @param       aff  - pointer to APS frame format
//  281  * @param       SrcAddress  - Source address
//  282  * @param       sig - incoming message's link quality
//  283  * @param       SecurityUse - Security enable/disable
//  284  *
//  285  * @return      none
//  286  */

        RSEG BANKED_CODE:CODE:NOROOT(0)
//  287 void afIncomingData( aps_FrameFormat_t *aff, zAddrType_t *SrcAddress, uint16 SrcPanId,
afIncomingData:
          CFI Block cfiBlock22 Using cfiCommon0
          CFI Function afIncomingData
        CODE
//  288                      NLDE_Signal_t *sig, byte SecurityUse, uint32 timestamp )
//  289 {
        FUNCALL afIncomingData, aps_FindGroupForEndpoint
        LOCFRAME ISTACK, 0, STACK
        LOCFRAME PSTACK, 0, STACK
        LOCFRAME XSTACK, 28, STACK
        LOCFRAME IOVERLAY, 0, STATIC
        LOCFRAME DOVERLAY, 0, STATIC
        ARGFRAME ISTACK, 0, STACK
        ARGFRAME PSTACK, 0, STACK
        ARGFRAME XSTACK, 28, STACK
        ARGFRAME IOVERLAY, 0, STATIC
        ARGFRAME DOVERLAY, 0, STATIC
        FUNCALL afIncomingData, afFindEndPointDesc
        LOCFRAME ISTACK, 0, STACK
        LOCFRAME PSTACK, 0, STACK
        LOCFRAME XSTACK, 28, STACK
        LOCFRAME IOVERLAY, 0, STATIC
        LOCFRAME DOVERLAY, 0, STATIC
        ARGFRAME ISTACK, 0, STACK
        ARGFRAME PSTACK, 0, STACK
        ARGFRAME XSTACK, 28, STACK
        ARGFRAME IOVERLAY, 0, STATIC
        ARGFRAME DOVERLAY, 0, STATIC
        FUNCALL afIncomingData, afFindEndPointDesc
        LOCFRAME ISTACK, 0, STACK
        LOCFRAME PSTACK, 0, STACK
        LOCFRAME XSTACK, 28, STACK
        LOCFRAME IOVERLAY, 0, STATIC
        LOCFRAME DOVERLAY, 0, STATIC
        ARGFRAME ISTACK, 0, STACK
        ARGFRAME PSTACK, 0, STACK
        ARGFRAME XSTACK, 28, STACK
        ARGFRAME IOVERLAY, 0, STATIC
        ARGFRAME DOVERLAY, 0, STATIC
        FUNCALL afIncomingData, afFindEndPointDescList
        LOCFRAME ISTACK, 0, STACK
        LOCFRAME PSTACK, 0, STACK
        LOCFRAME XSTACK, 28, STACK
        LOCFRAME IOVERLAY, 0, STATIC
        LOCFRAME DOVERLAY, 0, STATIC
        ARGFRAME ISTACK, 0, STACK
        ARGFRAME PSTACK, 0, STACK
        ARGFRAME XSTACK, 28, STACK
        ARGFRAME IOVERLAY, 0, STATIC
        ARGFRAME DOVERLAY, 0, STATIC
        FUNCALL afIncomingData, afFindEndPointDescList
        LOCFRAME ISTACK, 0, STACK
        LOCFRAME PSTACK, 0, STACK
        LOCFRAME XSTACK, 28, STACK
        LOCFRAME IOVERLAY, 0, STATIC
        LOCFRAME DOVERLAY, 0, STATIC
        ARGFRAME ISTACK, 0, STACK
        ARGFRAME PSTACK, 0, STACK
        ARGFRAME XSTACK, 28, STACK
        ARGFRAME IOVERLAY, 0, STATIC
        ARGFRAME DOVERLAY, 0, STATIC
        FUNCALL afIncomingData, osal_mem_free
        LOCFRAME ISTACK, 0, STACK
        LOCFRAME PSTACK, 0, STACK
        LOCFRAME XSTACK, 28, STACK
        LOCFRAME IOVERLAY, 0, STATIC
        LOCFRAME DOVERLAY, 0, STATIC
        ARGFRAME ISTACK, 0, STACK
        ARGFRAME PSTACK, 0, STACK
        ARGFRAME XSTACK, 28, STACK
        ARGFRAME IOVERLAY, 0, STATIC
        ARGFRAME DOVERLAY, 0, STATIC
        FUNCALL afIncomingData, afBuildMSGIncoming
        LOCFRAME ISTACK, 0, STACK
        LOCFRAME PSTACK, 0, STACK
        LOCFRAME XSTACK, 38, STACK
        LOCFRAME IOVERLAY, 0, STATIC
        LOCFRAME DOVERLAY, 0, STATIC
        ARGFRAME ISTACK, 0, STACK
        ARGFRAME PSTACK, 0, STACK
        ARGFRAME XSTACK, 38, STACK
        ARGFRAME IOVERLAY, 0, STATIC
        ARGFRAME DOVERLAY, 0, STATIC
        FUNCALL afIncomingData, aps_FindGroupForEndpoint
        LOCFRAME ISTACK, 0, STACK
        LOCFRAME PSTACK, 0, STACK
        LOCFRAME XSTACK, 28, STACK
        LOCFRAME IOVERLAY, 0, STATIC
        LOCFRAME DOVERLAY, 0, STATIC
        ARGFRAME ISTACK, 0, STACK
        ARGFRAME PSTACK, 0, STACK
        ARGFRAME XSTACK, 28, STACK
        ARGFRAME IOVERLAY, 0, STATIC
        ARGFRAME DOVERLAY, 0, STATIC
        FUNCALL afIncomingData, afFindEndPointDesc
        LOCFRAME ISTACK, 0, STACK
        LOCFRAME PSTACK, 0, STACK
        LOCFRAME XSTACK, 28, STACK
        LOCFRAME IOVERLAY, 0, STATIC
        LOCFRAME DOVERLAY, 0, STATIC
        ARGFRAME ISTACK, 0, STACK
        ARGFRAME PSTACK, 0, STACK
        ARGFRAME XSTACK, 28, STACK
        ARGFRAME IOVERLAY, 0, STATIC
        ARGFRAME DOVERLAY, 0, STATIC
        REQUIRE ?V0
        REQUIRE ?V1
        REQUIRE ?V2
        REQUIRE ?V3
        REQUIRE ?V4
        REQUIRE ?V5
        REQUIRE ?V6
        REQUIRE ?V7
        MOV     A,#-0x10
        LCALL   ?BANKED_ENTER_XDATA
          CFI DPH0 load(1, XDATA, add(CFA_XSP16, literal(-1)))
          CFI DPL0 load(1, XDATA, add(CFA_XSP16, literal(-2)))
          CFI ?BRET_EXT load(1, XDATA, add(CFA_XSP16, literal(-3)))
          CFI ?RET_HIGH load(1, XDATA, add(CFA_XSP16, literal(-4)))
          CFI ?RET_LOW load(1, XDATA, add(CFA_XSP16, literal(-5)))
          CFI R7 load(1, XDATA, add(CFA_XSP16, literal(-6)))
          CFI V7 load(1, XDATA, add(CFA_XSP16, literal(-7)))
          CFI V6 load(1, XDATA, add(CFA_XSP16, literal(-8)))
          CFI V5 load(1, XDATA, add(CFA_XSP16, literal(-9)))
          CFI V4 load(1, XDATA, add(CFA_XSP16, literal(-10)))
          CFI V3 load(1, XDATA, add(CFA_XSP16, literal(-11)))
          CFI V2 load(1, XDATA, add(CFA_XSP16, literal(-12)))
          CFI V1 load(1, XDATA, add(CFA_XSP16, literal(-13)))
          CFI V0 load(1, XDATA, add(CFA_XSP16, literal(-14)))
          CFI VB load(1, XDATA, add(CFA_XSP16, literal(-15)))
          CFI R6 load(1, XDATA, add(CFA_XSP16, literal(-16)))
          CFI CFA_SP SP+0
          CFI CFA_XSP16 add(XSP16, 16)
        ; Saved register size: 16
        ; Auto size: 12
        MOV     A,#-0xc
        LCALL   ?ALLOC_XSTACK8
          CFI CFA_XSP16 add(XSP16, 28)
        MOV     A,#0x2
        LCALL   ?XSTACK_DISP0_8
        LCALL   ??Subroutine29_0 & 0xFFFF
??CrossCallReturnLabel_45:
        MOV     A,#0xa
        LCALL   ?XSTACK_DISP0_8
        MOV     A,R4
        MOVX    @DPTR,A
        INC     DPTR
        MOV     A,R5
        MOVX    @DPTR,A
        MOV     ?V7,R1
//  290   endPointDesc_t *epDesc = NULL;
//  291   uint16 epProfileID = 0xFFFF;  // Invalid Profile ID
        MOV     A,#0x4
        LCALL   ?XSTACK_DISP0_8
        MOV     A,#-0x1
        LCALL   ??Subroutine27_0 & 0xFFFF
//  292   epList_t *pList = epList;
??CrossCallReturnLabel_34:
        LCALL   ?Subroutine5 & 0xFFFF
//  293 #if !defined ( APS_NO_GROUPS )    
//  294   uint8 grpEp = APS_GROUPS_EP_NOT_FOUND;
??CrossCallReturnLabel_81:
        MOV     ?V6,#-0x2
//  295 #endif  
//  296 
//  297   if ( ((aff->FrmCtrl & APS_DELIVERYMODE_MASK) == APS_FC_DM_GROUP) )
        MOV     A,#0x2
        LCALL   ?XSTACK_DISP0_8
        MOVX    A,@DPTR
        ADD     A,#0x2
        MOV     R0,A
        INC     DPTR
        MOVX    A,@DPTR
        ADDC    A,#0x0
        MOV     R1,A
        MOV     A,#0x8
        LCALL   ?XSTACK_DISP0_8
        LCALL   ??Subroutine31_0 & 0xFFFF
??CrossCallReturnLabel_66:
        MOV     A,#0x2
        LCALL   ?XSTACK_DISP0_8
        MOVX    A,@DPTR
        ADD     A,#0x4
        MOV     R0,A
        INC     DPTR
        MOVX    A,@DPTR
        ADDC    A,#0x0
        MOV     R1,A
        MOV     A,#0x6
        LCALL   ?XSTACK_DISP0_8
        LCALL   ??Subroutine31_0 & 0xFFFF
??CrossCallReturnLabel_67:
        MOV     A,#0x2
        LCALL   ?XSTACK_DISP0_8
        LCALL   ?Subroutine14 & 0xFFFF
??CrossCallReturnLabel_13:
        JNZ     ??afIncomingData_0
//  298   {
//  299 #if !defined ( APS_NO_GROUPS )    
//  300     // Find the first endpoint for this group
//  301     grpEp = aps_FindGroupForEndpoint( aff->GroupID, APS_GROUPS_FIND_FIRST );
        ; Setup parameters for call to function aps_FindGroupForEndpoint
        MOV     R1,#-0x2
        MOV     A,#0x6
        LCALL   ?XSTACK_DISP0_8
        LCALL   ?Subroutine12 & 0xFFFF
??CrossCallReturnLabel_89:
        LCALL   `??aps_FindGroupForEndpoint::?relay`; Banked call to: aps_FindGroupForEndpoint
        MOV     A,R1
        MOV     ?V6,A
//  302     if ( grpEp == APS_GROUPS_EP_NOT_FOUND )
        MOV     A,#-0x2
        XRL     A,?V6
        JNZ     $+5
        LJMP    ??afIncomingData_1 & 0xFFFF
//  303       return;   // No endpoint found
//  304 
//  305     epDesc = afFindEndPointDesc( grpEp );
        ; Setup parameters for call to function afFindEndPointDesc
        LCALL   `??afFindEndPointDesc::?relay`; Banked call to: afFindEndPointDesc
        MOV     ?V0,R2
        MOV     ?V1,R3
        MOV     R6,?V0
        MOV     R7,?V1
//  306     if ( epDesc == NULL )
        MOV     A,R6
        ORL     A,R7
        JNZ     ??afIncomingData_2
//  307       return;   // Endpoint descriptor not found
        LJMP    ??afIncomingData_1 & 0xFFFF
//  308 
//  309     pList = afFindEndPointDescList( epDesc->endPoint );
//  310 #else
//  311     return; // Not supported
//  312 #endif    
//  313   }
//  314   else if ( aff->DstEndPoint == AF_BROADCAST_ENDPOINT )
??afIncomingData_0:
        MOV     A,#0x8
        LCALL   ?XSTACK_DISP0_8
        LCALL   ??Subroutine28_0 & 0xFFFF
??CrossCallReturnLabel_35:
        MOV     A,#-0x1
        XRL     A,R1
        JNZ     ??afIncomingData_3
//  315   {
//  316     // Set the list
//  317     if ( pList != NULL )
        MOV     DPL,?XSP + 0
        MOV     DPH,?XSP + 1
        LCALL   ?Subroutine9 & 0xFFFF
??CrossCallReturnLabel_6:
        JNZ     $+5
        LJMP    ??afIncomingData_1 & 0xFFFF
//  318     {
//  319       epDesc = pList->epDesc;
        MOV     DPL,?XSP + 0
        MOV     DPH,?XSP + 1
        LCALL   ?Subroutine17 & 0xFFFF
//  320     }
//  321   }
??CrossCallReturnLabel_20:
        MOV     A,#0x20
        LCALL   ?XSTACK_DISP0_8
        MOV     R0,#?V0
        LCALL   ?L_MOV_X
        SJMP    ??CrossCallReturnLabel_21
//  322   else if ( (epDesc = afFindEndPointDesc( aff->DstEndPoint )) )
??afIncomingData_3:
        ; Setup parameters for call to function afFindEndPointDesc
        LCALL   `??afFindEndPointDesc::?relay`; Banked call to: afFindEndPointDesc
        MOV     ?V0,R2
        MOV     ?V1,R3
        MOV     R0,?V0
        MOV     R1,?V1
        MOV     A,R0
        MOV     R6,A
        MOV     A,R1
        MOV     R7,A
        MOV     A,R0
        ORL     A,R1
        JZ      ??CrossCallReturnLabel_20
//  323   {
//  324     pList = afFindEndPointDescList( epDesc->endPoint );
??afIncomingData_2:
        ; Setup parameters for call to function afFindEndPointDescList
        MOV     DPL,R6
        MOV     DPH,R7
        MOVX    A,@DPTR
        MOV     R1,A
        LCALL   `??afFindEndPointDescList::?relay`; Banked call to: afFindEndPointDescList
        LCALL   ?Subroutine7 & 0xFFFF
//  325   }
??CrossCallReturnLabel_48:
        SJMP    ??CrossCallReturnLabel_20
//  326 
//  327   while ( epDesc )
//  328   {
//  329     if ( pList->pfnDescCB )
//  330     {
//  331       uint16 *pID = (uint16 *)(pList->pfnDescCB(
//  332                                  AF_DESCRIPTOR_PROFILE_ID, epDesc->endPoint ));
//  333       if ( pID )
//  334       {
//  335         epProfileID = *pID;
//  336         osal_mem_free( pID );
//  337       }
//  338     }
//  339     else if ( epDesc->simpleDesc )
//  340     {
//  341       epProfileID = epDesc->simpleDesc->AppProfId;
//  342     }
//  343 
//  344     if ( (aff->ProfileID == epProfileID) ||
//  345          ((epDesc->endPoint == ZDO_EP) && (aff->ProfileID == ZDO_PROFILE_ID)) )
//  346     {
//  347       {
//  348         afBuildMSGIncoming( aff, epDesc, SrcAddress, SrcPanId, sig, SecurityUse, timestamp );
//  349       }
//  350     }
//  351 
//  352     if ( ((aff->FrmCtrl & APS_DELIVERYMODE_MASK) == APS_FC_DM_GROUP) )
//  353     {
//  354 #if !defined ( APS_NO_GROUPS )      
//  355       // Find the next endpoint for this group
//  356       grpEp = aps_FindGroupForEndpoint( aff->GroupID, grpEp );
//  357       if ( grpEp == APS_GROUPS_EP_NOT_FOUND )
//  358         return;   // No endpoint found
//  359 
//  360       epDesc = afFindEndPointDesc( grpEp );
//  361       if ( epDesc == NULL )
//  362         return;   // Endpoint descriptor not found
//  363 
//  364       pList = afFindEndPointDescList( epDesc->endPoint );
//  365 #else
//  366       return;
//  367 #endif      
//  368     }
//  369     else if ( aff->DstEndPoint == AF_BROADCAST_ENDPOINT )
//  370     {
//  371       pList = pList->nextDesc;
//  372       if ( pList )
//  373         epDesc = pList->epDesc;
??afIncomingData_4:
        LCALL   ?Subroutine17 & 0xFFFF
??CrossCallReturnLabel_21:
        MOV     A,R6
        ORL     A,R7
        JNZ     $+5
        LJMP    ??afIncomingData_1 & 0xFFFF
        SJMP    ??CrossCallReturnLabel_49
??afIncomingData_5:
        ; Setup parameters for call to function afFindEndPointDescList
        MOV     DPL,R6
        MOV     DPH,R7
        MOVX    A,@DPTR
        MOV     R1,A
        LCALL   `??afFindEndPointDescList::?relay`; Banked call to: afFindEndPointDescList
        LCALL   ?Subroutine7 & 0xFFFF
??CrossCallReturnLabel_49:
        MOV     DPL,?XSP + 0
        MOV     DPH,?XSP + 1
        LCALL   ?Subroutine13 & 0xFFFF
??CrossCallReturnLabel_11:
        MOV     A,R0
        MOV     R4,A
        MOV     A,R1
        MOV     R5,A
        MOV     A,R4
        ORL     A,R5
        MOV     DPL,R6
        MOV     DPH,R7
        JZ      ??afIncomingData_6
        ; Setup parameters for indirect call
        LCALL   ?Subroutine21 & 0xFFFF
??CrossCallReturnLabel_26:
        LCALL   ?CALL_IND
        MOV     A,R2
        ORL     A,R3
        JZ      ??CrossCallReturnLabel_69
        MOV     DPL,R2
        MOV     DPH,R3
        LCALL   ?Subroutine15 & 0xFFFF
??CrossCallReturnLabel_15:
        LCALL   ?XSTACK_DISP0_8
        LCALL   ??Subroutine31_0 & 0xFFFF
??CrossCallReturnLabel_68:
        ; Setup parameters for call to function osal_mem_free
        LCALL   `??osal_mem_free::?relay`; Banked call to: osal_mem_free
        SJMP    ??CrossCallReturnLabel_69
??afIncomingData_6:
        LCALL   ?Subroutine10 & 0xFFFF
??CrossCallReturnLabel_8:
        JZ      ??CrossCallReturnLabel_69
        INC     DPTR
        LCALL   ?Subroutine15 & 0xFFFF
??CrossCallReturnLabel_16:
        LCALL   ?XSTACK_DISP0_8
        LCALL   ??Subroutine31_0 & 0xFFFF
??CrossCallReturnLabel_69:
        MOV     A,#0x2
        LCALL   ?XSTACK_DISP0_8
        MOVX    A,@DPTR
        MOV     R0,A
        INC     DPTR
        MOVX    A,@DPTR
        XCH     A,R0
        ADD     A,#0x8
        MOV     DPL,A
        CLR     A
        ADDC    A,R0
        MOV     DPH,A
        LCALL   ?Subroutine15 & 0xFFFF
??CrossCallReturnLabel_17:
        LCALL   ?XSTACK_DISP0_8
        MOVX    A,@DPTR
        XRL     A,R0
        JNZ     ??afIncomingData_7
        INC     DPTR
        MOVX    A,@DPTR
        XRL     A,R1
??afIncomingData_7:
        JZ      ??afIncomingData_8
        MOV     DPL,R6
        MOV     DPH,R7
        MOVX    A,@DPTR
        JNZ     ??afIncomingData_9
        MOV     A,R0
        ORL     A,R1
        JNZ     ??afIncomingData_9
??afIncomingData_8:
        ; Setup parameters for call to function afBuildMSGIncoming
        MOV     R0,#?V0
        LCALL   ?PUSH_XSTACK_I_FOUR
          CFI CFA_XSP16 add(XSP16, 32)
        MOV     A,#0x22
        LCALL   ?XSTACK_DISP0_8
        LCALL   ?PUSH_XSTACK8_X_TWO
          CFI CFA_XSP16 add(XSP16, 34)
        MOV     A,#0x22
        LCALL   ?XSTACK_DISP0_8
        LCALL   ?PUSH_XSTACK8_X_TWO
          CFI CFA_XSP16 add(XSP16, 36)
        MOV     A,#0x12
        LCALL   ?XSTACK_DISP0_8
        LCALL   ?PUSH_XSTACK8_X_TWO
          CFI CFA_XSP16 add(XSP16, 38)
        MOV     R1,?V7
        MOV     A,R6
        MOV     R4,A
        MOV     A,R7
        MOV     R5,A
        MOV     A,#0xc
        LCALL   ?XSTACK_DISP0_8
        LCALL   ??Subroutine32_0 & 0xFFFF
??CrossCallReturnLabel_83:
        LCALL   `??afBuildMSGIncoming::?relay`; Banked call to: afBuildMSGIncoming
        MOV     A,#0xa
        LCALL   ?DEALLOC_XSTACK8
          CFI CFA_XSP16 add(XSP16, 28)
??afIncomingData_9:
        MOV     A,#0x2
        LCALL   ?XSTACK_DISP0_8
        LCALL   ?Subroutine14 & 0xFFFF
??CrossCallReturnLabel_14:
        JNZ     ??afIncomingData_10
        ; Setup parameters for call to function aps_FindGroupForEndpoint
        MOV     R1,?V6
        MOV     A,#0x6
        LCALL   ?XSTACK_DISP0_8
        LCALL   ?Subroutine12 & 0xFFFF
??CrossCallReturnLabel_90:
        LCALL   `??aps_FindGroupForEndpoint::?relay`; Banked call to: aps_FindGroupForEndpoint
        MOV     A,R1
        MOV     ?V6,A
        MOV     A,#-0x2
        XRL     A,?V6
        JZ      ??afIncomingData_1
        ; Setup parameters for call to function afFindEndPointDesc
        LCALL   `??afFindEndPointDesc::?relay`; Banked call to: afFindEndPointDesc
        MOV     ?V4,R2
        MOV     ?V5,R3
        MOV     R6,?V4
        MOV     R7,?V5
        MOV     A,R6
        ORL     A,R7
        JZ      $+5
        LJMP    ??afIncomingData_5 & 0xFFFF
        SJMP    ??afIncomingData_1
??afIncomingData_10:
        MOV     A,#0x8
        LCALL   ?XSTACK_DISP0_8
        LCALL   ?Subroutine18 & 0xFFFF
??CrossCallReturnLabel_22:
        CPL     A
        JNZ     ??afIncomingData_1
        MOV     DPL,?XSP + 0
        MOV     DPH,?XSP + 1
        LCALL   ?Subroutine23 & 0xFFFF
??CrossCallReturnLabel_28:
        INC     DPTR
        INC     DPTR
        LCALL   ?Subroutine5 & 0xFFFF
??CrossCallReturnLabel_82:
        MOV     DPL,?XSP + 0
        MOV     DPH,?XSP + 1
        MOVX    A,@DPTR
        MOV     R0,A
        ORL     A,R1
        JZ      $+5
        LJMP    ??afIncomingData_4 & 0xFFFF
//  374       else
//  375         epDesc = NULL;
//  376     }
//  377     else
//  378       epDesc = NULL;
//  379   }
//  380 }
??afIncomingData_1:
        MOV     A,#0xc
          CFI EndBlock cfiBlock22
        REQUIRE ?Subroutine3
        ; // Fall through to label ?Subroutine3

        RSEG BANKED_CODE:CODE:NOROOT(0)
?Subroutine3:
          CFI Block cfiBlock23 Using cfiCommon0
          CFI NoFunction
          CFI CFA_SP SP+0
          CFI CFA_XSP16 add(XSP16, 28)
          CFI VB load(1, XDATA, add(CFA_XSP16, literal(-15)))
          CFI DPL0 load(1, XDATA, add(CFA_XSP16, literal(-2)))
          CFI DPH0 load(1, XDATA, add(CFA_XSP16, literal(-1)))
          CFI R6 load(1, XDATA, add(CFA_XSP16, literal(-16)))
          CFI R7 load(1, XDATA, add(CFA_XSP16, literal(-6)))
          CFI V0 load(1, XDATA, add(CFA_XSP16, literal(-14)))
          CFI V1 load(1, XDATA, add(CFA_XSP16, literal(-13)))
          CFI V2 load(1, XDATA, add(CFA_XSP16, literal(-12)))
          CFI V3 load(1, XDATA, add(CFA_XSP16, literal(-11)))
          CFI V4 load(1, XDATA, add(CFA_XSP16, literal(-10)))
          CFI V5 load(1, XDATA, add(CFA_XSP16, literal(-9)))
          CFI V6 load(1, XDATA, add(CFA_XSP16, literal(-8)))
          CFI V7 load(1, XDATA, add(CFA_XSP16, literal(-7)))
          CFI ?BRET_EXT load(1, XDATA, add(CFA_XSP16, literal(-3)))
          CFI ?RET_HIGH load(1, XDATA, add(CFA_XSP16, literal(-4)))
          CFI ?RET_LOW load(1, XDATA, add(CFA_XSP16, literal(-5)))
          CFI Invalid
        LCALL   ?DEALLOC_XSTACK8
          CFI CFA_XSP16 add(XSP16, 16)
          CFI Valid
        MOV     R7,#0x8
        LJMP    ?BANKED_LEAVE_XDATA
          CFI CFA_SP SP+-3
          CFI CFA_XSP16 XSP16+0
          CFI VB SameValue
          CFI DPL0 SameValue
          CFI DPH0 SameValue
          CFI R6 SameValue
          CFI R7 SameValue
          CFI V0 SameValue
          CFI V1 SameValue
          CFI V2 SameValue
          CFI V3 SameValue
          CFI V4 SameValue
          CFI V5 SameValue
          CFI V6 SameValue
          CFI V7 SameValue
          CFI ?BRET_EXT Frame(CFA_SP, 3)
          CFI ?RET_HIGH Frame(CFA_SP, 2)
          CFI ?RET_LOW Frame(CFA_SP, 1)
          CFI EndBlock cfiBlock23

        RSEG BANKED_CODE:CODE:NOROOT(0)
?Subroutine17:
          CFI Block cfiCond24 Using cfiCommon0
          CFI Function afIncomingData
          CFI Conditional ??CrossCallReturnLabel_20
          CFI R6 load(1, XDATA, add(CFA_XSP16, literal(-16)))
          CFI VB load(1, XDATA, add(CFA_XSP16, literal(-15)))
          CFI V0 load(1, XDATA, add(CFA_XSP16, literal(-14)))
          CFI V1 load(1, XDATA, add(CFA_XSP16, literal(-13)))
          CFI V2 load(1, XDATA, add(CFA_XSP16, literal(-12)))
          CFI V3 load(1, XDATA, add(CFA_XSP16, literal(-11)))
          CFI V4 load(1, XDATA, add(CFA_XSP16, literal(-10)))
          CFI V5 load(1, XDATA, add(CFA_XSP16, literal(-9)))
          CFI V6 load(1, XDATA, add(CFA_XSP16, literal(-8)))
          CFI V7 load(1, XDATA, add(CFA_XSP16, literal(-7)))
          CFI R7 load(1, XDATA, add(CFA_XSP16, literal(-6)))
          CFI ?RET_LOW load(1, XDATA, add(CFA_XSP16, literal(-5)))
          CFI ?RET_HIGH load(1, XDATA, add(CFA_XSP16, literal(-4)))
          CFI ?BRET_EXT load(1, XDATA, add(CFA_XSP16, literal(-3)))
          CFI DPL0 load(1, XDATA, add(CFA_XSP16, literal(-2)))
          CFI DPH0 load(1, XDATA, add(CFA_XSP16, literal(-1)))
          CFI CFA_SP SP+-2
          CFI CFA_XSP16 add(XSP16, 28)
          CFI Block cfiCond25 Using cfiCommon0
          CFI (cfiCond25) Function afIncomingData
          CFI (cfiCond25) Conditional ??CrossCallReturnLabel_21
          CFI (cfiCond25) R6 load(1, XDATA, add(CFA_XSP16, literal(-16)))
          CFI (cfiCond25) VB load(1, XDATA, add(CFA_XSP16, literal(-15)))
          CFI (cfiCond25) V0 load(1, XDATA, add(CFA_XSP16, literal(-14)))
          CFI (cfiCond25) V1 load(1, XDATA, add(CFA_XSP16, literal(-13)))
          CFI (cfiCond25) V2 load(1, XDATA, add(CFA_XSP16, literal(-12)))
          CFI (cfiCond25) V3 load(1, XDATA, add(CFA_XSP16, literal(-11)))
          CFI (cfiCond25) V4 load(1, XDATA, add(CFA_XSP16, literal(-10)))
          CFI (cfiCond25) V5 load(1, XDATA, add(CFA_XSP16, literal(-9)))
          CFI (cfiCond25) V6 load(1, XDATA, add(CFA_XSP16, literal(-8)))
          CFI (cfiCond25) V7 load(1, XDATA, add(CFA_XSP16, literal(-7)))
          CFI (cfiCond25) R7 load(1, XDATA, add(CFA_XSP16, literal(-6)))
          CFI (cfiCond25) ?RET_LOW load(1, XDATA, add(CFA_XSP16, literal(-5)))
          CFI (cfiCond25) ?RET_HIGH load(1, XDATA, add(CFA_XSP16, literal(-4)))
          CFI (cfiCond25) ?BRET_EXT load(1, XDATA, add(CFA_XSP16, literal(-3)))
          CFI (cfiCond25) DPL0 load(1, XDATA, add(CFA_XSP16, literal(-2)))
          CFI (cfiCond25) DPH0 load(1, XDATA, add(CFA_XSP16, literal(-1)))
          CFI (cfiCond25) CFA_SP SP+-2
          CFI (cfiCond25) CFA_XSP16 add(XSP16, 28)
          CFI Block cfiPicker26 Using cfiCommon1
          CFI (cfiPicker26) NoFunction
          CFI (cfiPicker26) Picker
        INC     DPTR
        MOVX    A,@DPTR
        MOV     DPH,A
        MOV     DPL,R0
        MOVX    A,@DPTR
        MOV     R6,A
        INC     DPTR
        MOVX    A,@DPTR
        MOV     R7,A
        RET
          CFI (cfiCond24) CFA_SP SP+0
          CFI (cfiCond25) CFA_SP SP+0
          CFI (cfiPicker26) CFA_SP SP+0
          CFI EndBlock cfiCond24
          CFI EndBlock cfiCond25
          CFI EndBlock cfiPicker26

        RSEG BANKED_CODE:CODE:NOROOT(0)
?Subroutine15:
          CFI Block cfiCond27 Using cfiCommon0
          CFI Function afIncomingData
          CFI Conditional ??CrossCallReturnLabel_15
          CFI R6 load(1, XDATA, add(CFA_XSP16, literal(-16)))
          CFI VB load(1, XDATA, add(CFA_XSP16, literal(-15)))
          CFI V0 load(1, XDATA, add(CFA_XSP16, literal(-14)))
          CFI V1 load(1, XDATA, add(CFA_XSP16, literal(-13)))
          CFI V2 load(1, XDATA, add(CFA_XSP16, literal(-12)))
          CFI V3 load(1, XDATA, add(CFA_XSP16, literal(-11)))
          CFI V4 load(1, XDATA, add(CFA_XSP16, literal(-10)))
          CFI V5 load(1, XDATA, add(CFA_XSP16, literal(-9)))
          CFI V6 load(1, XDATA, add(CFA_XSP16, literal(-8)))
          CFI V7 load(1, XDATA, add(CFA_XSP16, literal(-7)))
          CFI R7 load(1, XDATA, add(CFA_XSP16, literal(-6)))
          CFI ?RET_LOW load(1, XDATA, add(CFA_XSP16, literal(-5)))
          CFI ?RET_HIGH load(1, XDATA, add(CFA_XSP16, literal(-4)))
          CFI ?BRET_EXT load(1, XDATA, add(CFA_XSP16, literal(-3)))
          CFI DPL0 load(1, XDATA, add(CFA_XSP16, literal(-2)))
          CFI DPH0 load(1, XDATA, add(CFA_XSP16, literal(-1)))
          CFI CFA_SP SP+-2
          CFI CFA_XSP16 add(XSP16, 28)
          CFI Block cfiCond28 Using cfiCommon0
          CFI (cfiCond28) Function afIncomingData
          CFI (cfiCond28) Conditional ??CrossCallReturnLabel_16
          CFI (cfiCond28) R6 load(1, XDATA, add(CFA_XSP16, literal(-16)))
          CFI (cfiCond28) VB load(1, XDATA, add(CFA_XSP16, literal(-15)))
          CFI (cfiCond28) V0 load(1, XDATA, add(CFA_XSP16, literal(-14)))
          CFI (cfiCond28) V1 load(1, XDATA, add(CFA_XSP16, literal(-13)))
          CFI (cfiCond28) V2 load(1, XDATA, add(CFA_XSP16, literal(-12)))
          CFI (cfiCond28) V3 load(1, XDATA, add(CFA_XSP16, literal(-11)))
          CFI (cfiCond28) V4 load(1, XDATA, add(CFA_XSP16, literal(-10)))
          CFI (cfiCond28) V5 load(1, XDATA, add(CFA_XSP16, literal(-9)))
          CFI (cfiCond28) V6 load(1, XDATA, add(CFA_XSP16, literal(-8)))
          CFI (cfiCond28) V7 load(1, XDATA, add(CFA_XSP16, literal(-7)))
          CFI (cfiCond28) R7 load(1, XDATA, add(CFA_XSP16, literal(-6)))
          CFI (cfiCond28) ?RET_LOW load(1, XDATA, add(CFA_XSP16, literal(-5)))
          CFI (cfiCond28) ?RET_HIGH load(1, XDATA, add(CFA_XSP16, literal(-4)))
          CFI (cfiCond28) ?BRET_EXT load(1, XDATA, add(CFA_XSP16, literal(-3)))
          CFI (cfiCond28) DPL0 load(1, XDATA, add(CFA_XSP16, literal(-2)))
          CFI (cfiCond28) DPH0 load(1, XDATA, add(CFA_XSP16, literal(-1)))
          CFI (cfiCond28) CFA_SP SP+-2
          CFI (cfiCond28) CFA_XSP16 add(XSP16, 28)
          CFI Block cfiCond29 Using cfiCommon0
          CFI (cfiCond29) Function afIncomingData
          CFI (cfiCond29) Conditional ??CrossCallReturnLabel_17
          CFI (cfiCond29) R6 load(1, XDATA, add(CFA_XSP16, literal(-16)))
          CFI (cfiCond29) VB load(1, XDATA, add(CFA_XSP16, literal(-15)))
          CFI (cfiCond29) V0 load(1, XDATA, add(CFA_XSP16, literal(-14)))
          CFI (cfiCond29) V1 load(1, XDATA, add(CFA_XSP16, literal(-13)))
          CFI (cfiCond29) V2 load(1, XDATA, add(CFA_XSP16, literal(-12)))
          CFI (cfiCond29) V3 load(1, XDATA, add(CFA_XSP16, literal(-11)))
          CFI (cfiCond29) V4 load(1, XDATA, add(CFA_XSP16, literal(-10)))
          CFI (cfiCond29) V5 load(1, XDATA, add(CFA_XSP16, literal(-9)))
          CFI (cfiCond29) V6 load(1, XDATA, add(CFA_XSP16, literal(-8)))
          CFI (cfiCond29) V7 load(1, XDATA, add(CFA_XSP16, literal(-7)))
          CFI (cfiCond29) R7 load(1, XDATA, add(CFA_XSP16, literal(-6)))
          CFI (cfiCond29) ?RET_LOW load(1, XDATA, add(CFA_XSP16, literal(-5)))
          CFI (cfiCond29) ?RET_HIGH load(1, XDATA, add(CFA_XSP16, literal(-4)))
          CFI (cfiCond29) ?BRET_EXT load(1, XDATA, add(CFA_XSP16, literal(-3)))
          CFI (cfiCond29) DPL0 load(1, XDATA, add(CFA_XSP16, literal(-2)))
          CFI (cfiCond29) DPH0 load(1, XDATA, add(CFA_XSP16, literal(-1)))
          CFI (cfiCond29) CFA_SP SP+-2
          CFI (cfiCond29) CFA_XSP16 add(XSP16, 28)
          CFI Block cfiPicker30 Using cfiCommon1
          CFI (cfiPicker30) NoFunction
          CFI (cfiPicker30) Picker
        LCALL   ?Subroutine25 & 0xFFFF
??CrossCallReturnLabel_63:
        MOV     A,#0x4
        RET
          CFI (cfiCond27) CFA_SP SP+0
          CFI (cfiCond28) CFA_SP SP+0
          CFI (cfiCond29) CFA_SP SP+0
          CFI (cfiPicker30) CFA_SP SP+0
          CFI EndBlock cfiCond27
          CFI EndBlock cfiCond28
          CFI EndBlock cfiCond29
          CFI EndBlock cfiPicker30

        RSEG BANKED_CODE:CODE:NOROOT(0)
?Subroutine14:
          CFI Block cfiCond31 Using cfiCommon0
          CFI Function afIncomingData
          CFI Conditional ??CrossCallReturnLabel_13
          CFI R6 load(1, XDATA, add(CFA_XSP16, literal(-16)))
          CFI VB load(1, XDATA, add(CFA_XSP16, literal(-15)))
          CFI V0 load(1, XDATA, add(CFA_XSP16, literal(-14)))
          CFI V1 load(1, XDATA, add(CFA_XSP16, literal(-13)))
          CFI V2 load(1, XDATA, add(CFA_XSP16, literal(-12)))
          CFI V3 load(1, XDATA, add(CFA_XSP16, literal(-11)))
          CFI V4 load(1, XDATA, add(CFA_XSP16, literal(-10)))
          CFI V5 load(1, XDATA, add(CFA_XSP16, literal(-9)))
          CFI V6 load(1, XDATA, add(CFA_XSP16, literal(-8)))
          CFI V7 load(1, XDATA, add(CFA_XSP16, literal(-7)))
          CFI R7 load(1, XDATA, add(CFA_XSP16, literal(-6)))
          CFI ?RET_LOW load(1, XDATA, add(CFA_XSP16, literal(-5)))
          CFI ?RET_HIGH load(1, XDATA, add(CFA_XSP16, literal(-4)))
          CFI ?BRET_EXT load(1, XDATA, add(CFA_XSP16, literal(-3)))
          CFI DPL0 load(1, XDATA, add(CFA_XSP16, literal(-2)))
          CFI DPH0 load(1, XDATA, add(CFA_XSP16, literal(-1)))
          CFI CFA_SP SP+-2
          CFI CFA_XSP16 add(XSP16, 28)
          CFI Block cfiCond32 Using cfiCommon0
          CFI (cfiCond32) Function afIncomingData
          CFI (cfiCond32) Conditional ??CrossCallReturnLabel_14
          CFI (cfiCond32) R6 load(1, XDATA, add(CFA_XSP16, literal(-16)))
          CFI (cfiCond32) VB load(1, XDATA, add(CFA_XSP16, literal(-15)))
          CFI (cfiCond32) V0 load(1, XDATA, add(CFA_XSP16, literal(-14)))
          CFI (cfiCond32) V1 load(1, XDATA, add(CFA_XSP16, literal(-13)))
          CFI (cfiCond32) V2 load(1, XDATA, add(CFA_XSP16, literal(-12)))
          CFI (cfiCond32) V3 load(1, XDATA, add(CFA_XSP16, literal(-11)))
          CFI (cfiCond32) V4 load(1, XDATA, add(CFA_XSP16, literal(-10)))
          CFI (cfiCond32) V5 load(1, XDATA, add(CFA_XSP16, literal(-9)))
          CFI (cfiCond32) V6 load(1, XDATA, add(CFA_XSP16, literal(-8)))
          CFI (cfiCond32) V7 load(1, XDATA, add(CFA_XSP16, literal(-7)))
          CFI (cfiCond32) R7 load(1, XDATA, add(CFA_XSP16, literal(-6)))
          CFI (cfiCond32) ?RET_LOW load(1, XDATA, add(CFA_XSP16, literal(-5)))
          CFI (cfiCond32) ?RET_HIGH load(1, XDATA, add(CFA_XSP16, literal(-4)))
          CFI (cfiCond32) ?BRET_EXT load(1, XDATA, add(CFA_XSP16, literal(-3)))
          CFI (cfiCond32) DPL0 load(1, XDATA, add(CFA_XSP16, literal(-2)))
          CFI (cfiCond32) DPH0 load(1, XDATA, add(CFA_XSP16, literal(-1)))
          CFI (cfiCond32) CFA_SP SP+-2
          CFI (cfiCond32) CFA_XSP16 add(XSP16, 28)
          CFI Block cfiPicker33 Using cfiCommon1
          CFI (cfiPicker33) NoFunction
          CFI (cfiPicker33) Picker
        LCALL   ?Subroutine22 & 0xFFFF
??CrossCallReturnLabel_38:
        ANL     A,#0xc
        XRL     A,#0xc
        RET
          CFI (cfiCond31) CFA_SP SP+0
          CFI (cfiCond32) CFA_SP SP+0
          CFI (cfiPicker33) CFA_SP SP+0
          CFI EndBlock cfiCond31
          CFI EndBlock cfiCond32
          CFI EndBlock cfiPicker33
//  381 
//  382 /*********************************************************************
//  383  * @fn          afBuildMSGIncoming
//  384  *
//  385  * @brief       Build the message for the app
//  386  *
//  387  * @param
//  388  *
//  389  * @return      pointer to next in data buffer
//  390  */

        RSEG BANKED_CODE:CODE:NOROOT(0)
//  391 static void afBuildMSGIncoming( aps_FrameFormat_t *aff, endPointDesc_t *epDesc,
afBuildMSGIncoming:
          CFI Block cfiBlock34 Using cfiCommon0
          CFI Function afBuildMSGIncoming
        CODE
//  392                  zAddrType_t *SrcAddress, uint16 SrcPanId, NLDE_Signal_t *sig, 
//  393                  byte SecurityUse, uint32 timestamp )
//  394 {
        FUNCALL afBuildMSGIncoming, osal_msg_allocate
        LOCFRAME ISTACK, 0, STACK
        LOCFRAME PSTACK, 0, STACK
        LOCFRAME XSTACK, 19, STACK
        LOCFRAME IOVERLAY, 0, STATIC
        LOCFRAME DOVERLAY, 0, STATIC
        ARGFRAME ISTACK, 0, STACK
        ARGFRAME PSTACK, 0, STACK
        ARGFRAME XSTACK, 19, STACK
        ARGFRAME IOVERLAY, 0, STATIC
        ARGFRAME DOVERLAY, 0, STATIC
        FUNCALL afBuildMSGIncoming, afCopyAddress
        LOCFRAME ISTACK, 0, STACK
        LOCFRAME PSTACK, 0, STACK
        LOCFRAME XSTACK, 19, STACK
        LOCFRAME IOVERLAY, 0, STATIC
        LOCFRAME DOVERLAY, 0, STATIC
        ARGFRAME ISTACK, 0, STACK
        ARGFRAME PSTACK, 0, STACK
        ARGFRAME XSTACK, 19, STACK
        ARGFRAME IOVERLAY, 0, STATIC
        ARGFRAME DOVERLAY, 0, STATIC
        FUNCALL afBuildMSGIncoming, osal_memcpy
        LOCFRAME ISTACK, 0, STACK
        LOCFRAME PSTACK, 0, STACK
        LOCFRAME XSTACK, 22, STACK
        LOCFRAME IOVERLAY, 0, STATIC
        LOCFRAME DOVERLAY, 0, STATIC
        ARGFRAME ISTACK, 0, STACK
        ARGFRAME PSTACK, 0, STACK
        ARGFRAME XSTACK, 22, STACK
        ARGFRAME IOVERLAY, 0, STATIC
        ARGFRAME DOVERLAY, 0, STATIC
        FUNCALL afBuildMSGIncoming, osal_msg_send
        LOCFRAME ISTACK, 0, STACK
        LOCFRAME PSTACK, 0, STACK
        LOCFRAME XSTACK, 19, STACK
        LOCFRAME IOVERLAY, 0, STATIC
        LOCFRAME DOVERLAY, 0, STATIC
        ARGFRAME ISTACK, 0, STACK
        ARGFRAME PSTACK, 0, STACK
        ARGFRAME XSTACK, 19, STACK
        ARGFRAME IOVERLAY, 0, STATIC
        ARGFRAME DOVERLAY, 0, STATIC
        REQUIRE ?V0
        REQUIRE ?V1
        REQUIRE ?V2
        REQUIRE ?V3
        REQUIRE ?V4
        REQUIRE ?V5
        REQUIRE ?V6
        REQUIRE ?V7
        MOV     A,#-0x10
        LCALL   ?BANKED_ENTER_XDATA
          CFI DPH0 load(1, XDATA, add(CFA_XSP16, literal(-1)))
          CFI DPL0 load(1, XDATA, add(CFA_XSP16, literal(-2)))
          CFI ?BRET_EXT load(1, XDATA, add(CFA_XSP16, literal(-3)))
          CFI ?RET_HIGH load(1, XDATA, add(CFA_XSP16, literal(-4)))
          CFI ?RET_LOW load(1, XDATA, add(CFA_XSP16, literal(-5)))
          CFI R7 load(1, XDATA, add(CFA_XSP16, literal(-6)))
          CFI V7 load(1, XDATA, add(CFA_XSP16, literal(-7)))
          CFI V6 load(1, XDATA, add(CFA_XSP16, literal(-8)))
          CFI V5 load(1, XDATA, add(CFA_XSP16, literal(-9)))
          CFI V4 load(1, XDATA, add(CFA_XSP16, literal(-10)))
          CFI V3 load(1, XDATA, add(CFA_XSP16, literal(-11)))
          CFI V2 load(1, XDATA, add(CFA_XSP16, literal(-12)))
          CFI V1 load(1, XDATA, add(CFA_XSP16, literal(-13)))
          CFI V0 load(1, XDATA, add(CFA_XSP16, literal(-14)))
          CFI VB load(1, XDATA, add(CFA_XSP16, literal(-15)))
          CFI R6 load(1, XDATA, add(CFA_XSP16, literal(-16)))
          CFI CFA_SP SP+0
          CFI CFA_XSP16 add(XSP16, 16)
        ; Saved register size: 16
        ; Auto size: 3
        MOV     A,#-0x3
        LCALL   ?ALLOC_XSTACK8
          CFI CFA_XSP16 add(XSP16, 19)
        MOV     A,R1
        MOV     DPL,?XSP + 0
        MOV     DPH,?XSP + 1
        MOVX    @DPTR,A
        MOV     ?V0,R2
        MOV     ?V1,R3
        MOV     ?V6,R4
        MOV     ?V7,R5
//  395   afIncomingMSGPacket_t *MSGpkt;
//  396   const byte len = sizeof( afIncomingMSGPacket_t ) + aff->asduLength;
//  397   byte *asdu = aff->asdu;
        MOV     A,R2
        ADD     A,#0xe
        MOV     DPL,A
        CLR     A
        ADDC    A,?V1
        MOV     DPH,A
        LCALL   ??Subroutine30_0 & 0xFFFF
??CrossCallReturnLabel_50:
        MOV     A,#0x1
        LCALL   ?XSTACK_DISP0_8
        LCALL   ??Subroutine31_0 & 0xFFFF
//  398   MSGpkt = (afIncomingMSGPacket_t *)osal_msg_allocate( len );
??CrossCallReturnLabel_70:
        MOV     A,R2
        ADD     A,#0x10
        MOV     ?V2,A
        CLR     A
        ADDC    A,?V1
        MOV     ?V3,A
        ; Setup parameters for call to function osal_msg_allocate
        MOV     DPL,?V2
        MOV     DPH,A
        MOVX    A,@DPTR
        ADD     A,#0x23
        MOV     R2,A
        MOV     R3,#0x0
        LCALL   `??osal_msg_allocate::?relay`; Banked call to: osal_msg_allocate
        MOV     ?V4,R2
        MOV     ?V5,R3
        MOV     R6,?V4
        MOV     R7,?V5
//  399 
//  400   if ( MSGpkt == NULL )
        MOV     A,R6
        ORL     A,R7
        JNZ     $+5
        LJMP    ??afBuildMSGIncoming_0 & 0xFFFF
//  401   {
//  402     return;
//  403   }
//  404 
//  405   MSGpkt->hdr.event = AF_INCOMING_MSG_CMD;
        MOV     DPL,R6
        MOV     DPH,R7
        MOV     A,#0x1a
        MOVX    @DPTR,A
//  406   MSGpkt->groupId = aff->GroupID;
        MOV     DPL,?V0
        MOV     DPH,?V1
        LCALL   ?Subroutine16 & 0xFFFF
??CrossCallReturnLabel_18:
        LCALL   ??Subroutine31_0 & 0xFFFF
//  407   MSGpkt->clusterId = aff->ClusterID;
??CrossCallReturnLabel_71:
        MOV     DPL,?V0
        MOV     DPH,?V1
        INC     DPTR
        INC     DPTR
        LCALL   ?Subroutine16 & 0xFFFF
??CrossCallReturnLabel_19:
        INC     DPTR
        INC     DPTR
        LCALL   ??Subroutine31_0 & 0xFFFF
//  408   afCopyAddress( &MSGpkt->srcAddr, SrcAddress );
??CrossCallReturnLabel_72:
        ; Setup parameters for call to function afCopyAddress
        MOV     A,#0x13
        LCALL   ?XSTACK_DISP0_8
        MOVX    A,@DPTR
        MOV     R4,A
        INC     DPTR
        MOVX    A,@DPTR
        MOV     R5,A
        MOV     A,R6
        ADD     A,#0x6
        MOV     R2,A
        CLR     A
        ADDC    A,R7
        MOV     R3,A
        LCALL   `??afCopyAddress::?relay`; Banked call to: afCopyAddress
//  409   MSGpkt->srcAddr.endPoint = aff->SrcEndPoint;
        MOV     DPL,?V0
        MOV     DPH,?V1
        INC     DPTR
        INC     DPTR
        INC     DPTR
        MOVX    A,@DPTR
        PUSH    A
          CFI CFA_SP SP+-1
        MOV     A,R6
        ADD     A,#0xf
        MOV     DPL,A
        CLR     A
        ADDC    A,R7
        MOV     DPH,A
        POP     A
          CFI CFA_SP SP+0
        MOVX    @DPTR,A
//  410   MSGpkt->endPoint = epDesc->endPoint;
        MOV     DPL,?V6
        MOV     DPH,?V7
        MOVX    A,@DPTR
        PUSH    A
          CFI CFA_SP SP+-1
        MOV     A,R6
        ADD     A,#0x14
        MOV     DPL,A
        CLR     A
        ADDC    A,R7
        MOV     DPH,A
        POP     A
          CFI CFA_SP SP+0
        MOVX    @DPTR,A
//  411   MSGpkt->wasBroadcast = aff->wasBroadcast;
        MOV     A,?V0
        ADD     A,#0xc
        MOV     DPL,A
        CLR     A
        ADDC    A,?V1
        MOV     DPH,A
        MOVX    A,@DPTR
        PUSH    A
          CFI CFA_SP SP+-1
        MOV     A,R6
        ADD     A,#0x15
        MOV     DPL,A
        CLR     A
        ADDC    A,R7
        MOV     DPH,A
        POP     A
          CFI CFA_SP SP+0
        MOVX    @DPTR,A
        MOV     A,#0x17
        LCALL   ?XSTACK_DISP0_8
        LCALL   ?Subroutine19 & 0xFFFF
//  412   MSGpkt->LinkQuality = sig->LinkQuality;
??CrossCallReturnLabel_24:
        MOVX    A,@DPTR
        PUSH    A
          CFI CFA_SP SP+-1
        MOV     A,R6
        ADD     A,#0x16
        MOV     DPL,A
        CLR     A
        ADDC    A,R7
        MOV     DPH,A
        POP     A
          CFI CFA_SP SP+0
        MOVX    @DPTR,A
//  413   MSGpkt->correlation = sig->correlation;
        MOV     DPL,R0
        MOV     DPH,R1
        INC     DPTR
        MOVX    A,@DPTR
        PUSH    A
          CFI CFA_SP SP+-1
        MOV     A,R6
        ADD     A,#0x17
        MOV     DPL,A
        CLR     A
        ADDC    A,R7
        MOV     DPH,A
        POP     A
          CFI CFA_SP SP+0
        MOVX    @DPTR,A
//  414   MSGpkt->rssi = sig->rssi;
        MOV     DPL,R0
        MOV     DPH,R1
        INC     DPTR
        INC     DPTR
        MOVX    A,@DPTR
        PUSH    A
          CFI CFA_SP SP+-1
        MOV     A,R6
        ADD     A,#0x18
        MOV     DPL,A
        CLR     A
        ADDC    A,R7
        MOV     DPH,A
        POP     A
          CFI CFA_SP SP+0
        MOVX    @DPTR,A
//  415   MSGpkt->SecurityUse = SecurityUse;
        MOV     DPL,?XSP + 0
        MOV     DPH,?XSP + 1
        MOVX    A,@DPTR
        PUSH    A
          CFI CFA_SP SP+-1
        MOV     A,R6
        ADD     A,#0x19
        MOV     DPL,A
        CLR     A
        ADDC    A,R7
        MOV     DPH,A
        POP     A
          CFI CFA_SP SP+0
        MOVX    @DPTR,A
//  416   MSGpkt->timestamp = timestamp;
        MOV     A,#0x19
        LCALL   ?XSTACK_DISP0_8
        LCALL   ?XLOAD_R0123
        MOV     A,R6
        ADD     A,#0x1a
        MOV     DPL,A
        CLR     A
        ADDC    A,R7
        MOV     DPH,A
        LCALL   ?XSTORE_R0123
//  417   MSGpkt->macDestAddr = aff->macDestAddr;
        MOV     DPL,?V0
        MOV     DPH,?V1
        INC     DPTR
        INC     DPTR
        INC     DPTR
        INC     DPTR
        INC     DPTR
        INC     DPTR
        INC     DPTR
        INC     DPTR
        INC     DPTR
        LCALL   ?Subroutine20 & 0xFFFF
??CrossCallReturnLabel_58:
        MOV     A,R6
        ADD     A,#0x12
        MOV     DPL,A
        CLR     A
        ADDC    A,R7
        MOV     DPH,A
        LCALL   ??Subroutine31_0 & 0xFFFF
//  418   MSGpkt->srcAddr.panId = SrcPanId;
??CrossCallReturnLabel_73:
        MOV     A,#0x15
        LCALL   ?XSTACK_DISP0_8
        LCALL   ??Subroutine30_0 & 0xFFFF
??CrossCallReturnLabel_51:
        MOV     A,R6
        ADD     A,#0x10
        MOV     DPL,A
        CLR     A
        ADDC    A,R7
        MOV     DPH,A
        LCALL   ??Subroutine31_0 & 0xFFFF
//  419   MSGpkt->cmd.TransSeqNumber = 0;
??CrossCallReturnLabel_74:
        MOV     A,R6
        ADD     A,#0x1e
        MOV     DPL,A
        CLR     A
        ADDC    A,R7
        MOV     DPH,A
        CLR     A
        MOVX    @DPTR,A
//  420   MSGpkt->cmd.DataLength = aff->asduLength;
        MOV     DPL,?V2
        MOV     DPH,?V3
        MOVX    A,@DPTR
        MOV     R0,A
        MOV     A,R6
        ADD     A,#0x1f
        MOV     R4,A
        CLR     A
        ADDC    A,R7
        MOV     R5,A
        MOV     DPL,R4
        MOV     DPH,R5
        MOV     A,R0
        MOVX    @DPTR,A
        INC     DPTR
        CLR     A
        MOVX    @DPTR,A
//  421 
//  422   if ( MSGpkt->cmd.DataLength )
        MOV     A,R6
        ADD     A,#0x21
        MOV     DPL,A
        CLR     A
        ADDC    A,R7
        MOV     DPH,A
        MOV     A,R0
        JZ      ??afBuildMSGIncoming_1
//  423   {
//  424     MSGpkt->cmd.Data = (byte *)(MSGpkt + 1);
        MOV     A,R6
        ADD     A,#0x23
        MOV     R2,A
        CLR     A
        ADDC    A,R7
        MOV     R3,A
        LCALL   ??Subroutine29_0 & 0xFFFF
//  425     osal_memcpy( MSGpkt->cmd.Data, asdu, MSGpkt->cmd.DataLength );
??CrossCallReturnLabel_46:
        ; Setup parameters for call to function osal_memcpy
        MOV     A,#0x1
        LCALL   ?XSTACK_DISP0_8
        MOVX    A,@DPTR
        MOV     ?V0,A
        INC     DPTR
        MOVX    A,@DPTR
        MOV     ?V1,A
        MOV     ?V2,#0x0
        MOV     R0,#?V0
        LCALL   ?PUSH_XSTACK_I_THREE
          CFI CFA_XSP16 add(XSP16, 22)
        MOV     DPL,R4
        MOV     DPH,R5
        MOVX    A,@DPTR
        MOV     R4,A
        INC     DPTR
        MOVX    A,@DPTR
        MOV     R5,A
        LCALL   `??osal_memcpy::?relay`; Banked call to: osal_memcpy
        MOV     A,#0x3
        LCALL   ?DEALLOC_XSTACK8
          CFI CFA_XSP16 add(XSP16, 19)
        SJMP    ??afBuildMSGIncoming_2
//  426   }
//  427   else
//  428   {
//  429     MSGpkt->cmd.Data = NULL;
??afBuildMSGIncoming_1:
        CLR     A
        MOVX    @DPTR,A
        INC     DPTR
        MOVX    @DPTR,A
//  430   }
//  431 
//  432 #if defined ( MT_AF_CB_FUNC )
//  433   // If ZDO or SAPI have registered for this endpoint, dont intercept it here
//  434   if (AFCB_CHECK(CB_ID_AF_DATA_IND, *(epDesc->task_id)))
//  435   {
//  436     MT_AfIncomingMsg( (void *)MSGpkt );
//  437     // Release the memory.
//  438     osal_msg_deallocate( (void *)MSGpkt );
//  439   }
//  440   else
//  441 #endif
//  442   {
//  443     // Send message through task message.
//  444     osal_msg_send( *(epDesc->task_id), (uint8 *)MSGpkt );
??afBuildMSGIncoming_2:
        ; Setup parameters for call to function osal_msg_send
        MOV     A,R6
        MOV     R2,A
        MOV     A,R7
        MOV     R3,A
        MOV     DPL,?V6
        MOV     DPH,?V7
        LCALL   ?Subroutine11 & 0xFFFF
//  445   }
??CrossCallReturnLabel_37:
        LCALL   `??osal_msg_send::?relay`; Banked call to: osal_msg_send
//  446 }
??afBuildMSGIncoming_0:
        MOV     A,#0x3
        LJMP    ?Subroutine3 & 0xFFFF
          CFI EndBlock cfiBlock34

        RSEG BANKED_CODE:CODE:NOROOT(0)
?Subroutine16:
          CFI Block cfiCond35 Using cfiCommon0
          CFI Function afBuildMSGIncoming
          CFI Conditional ??CrossCallReturnLabel_18
          CFI R6 load(1, XDATA, add(CFA_XSP16, literal(-16)))
          CFI VB load(1, XDATA, add(CFA_XSP16, literal(-15)))
          CFI V0 load(1, XDATA, add(CFA_XSP16, literal(-14)))
          CFI V1 load(1, XDATA, add(CFA_XSP16, literal(-13)))
          CFI V2 load(1, XDATA, add(CFA_XSP16, literal(-12)))
          CFI V3 load(1, XDATA, add(CFA_XSP16, literal(-11)))
          CFI V4 load(1, XDATA, add(CFA_XSP16, literal(-10)))
          CFI V5 load(1, XDATA, add(CFA_XSP16, literal(-9)))
          CFI V6 load(1, XDATA, add(CFA_XSP16, literal(-8)))
          CFI V7 load(1, XDATA, add(CFA_XSP16, literal(-7)))
          CFI R7 load(1, XDATA, add(CFA_XSP16, literal(-6)))
          CFI ?RET_LOW load(1, XDATA, add(CFA_XSP16, literal(-5)))
          CFI ?RET_HIGH load(1, XDATA, add(CFA_XSP16, literal(-4)))
          CFI ?BRET_EXT load(1, XDATA, add(CFA_XSP16, literal(-3)))
          CFI DPL0 load(1, XDATA, add(CFA_XSP16, literal(-2)))
          CFI DPH0 load(1, XDATA, add(CFA_XSP16, literal(-1)))
          CFI CFA_SP SP+-2
          CFI CFA_XSP16 add(XSP16, 19)
          CFI Block cfiCond36 Using cfiCommon0
          CFI (cfiCond36) Function afBuildMSGIncoming
          CFI (cfiCond36) Conditional ??CrossCallReturnLabel_19
          CFI (cfiCond36) R6 load(1, XDATA, add(CFA_XSP16, literal(-16)))
          CFI (cfiCond36) VB load(1, XDATA, add(CFA_XSP16, literal(-15)))
          CFI (cfiCond36) V0 load(1, XDATA, add(CFA_XSP16, literal(-14)))
          CFI (cfiCond36) V1 load(1, XDATA, add(CFA_XSP16, literal(-13)))
          CFI (cfiCond36) V2 load(1, XDATA, add(CFA_XSP16, literal(-12)))
          CFI (cfiCond36) V3 load(1, XDATA, add(CFA_XSP16, literal(-11)))
          CFI (cfiCond36) V4 load(1, XDATA, add(CFA_XSP16, literal(-10)))
          CFI (cfiCond36) V5 load(1, XDATA, add(CFA_XSP16, literal(-9)))
          CFI (cfiCond36) V6 load(1, XDATA, add(CFA_XSP16, literal(-8)))
          CFI (cfiCond36) V7 load(1, XDATA, add(CFA_XSP16, literal(-7)))
          CFI (cfiCond36) R7 load(1, XDATA, add(CFA_XSP16, literal(-6)))
          CFI (cfiCond36) ?RET_LOW load(1, XDATA, add(CFA_XSP16, literal(-5)))
          CFI (cfiCond36) ?RET_HIGH load(1, XDATA, add(CFA_XSP16, literal(-4)))
          CFI (cfiCond36) ?BRET_EXT load(1, XDATA, add(CFA_XSP16, literal(-3)))
          CFI (cfiCond36) DPL0 load(1, XDATA, add(CFA_XSP16, literal(-2)))
          CFI (cfiCond36) DPH0 load(1, XDATA, add(CFA_XSP16, literal(-1)))
          CFI (cfiCond36) CFA_SP SP+-2
          CFI (cfiCond36) CFA_XSP16 add(XSP16, 19)
          CFI Block cfiPicker37 Using cfiCommon1
          CFI (cfiPicker37) NoFunction
          CFI (cfiPicker37) Picker
        INC     DPTR
        INC     DPTR
        INC     DPTR
        INC     DPTR
        LCALL   ?Subroutine25 & 0xFFFF
??CrossCallReturnLabel_64:
        MOV     DPL,R6
        MOV     DPH,R7
        INC     DPTR
        INC     DPTR
        RET
          CFI (cfiCond35) CFA_SP SP+0
          CFI (cfiCond36) CFA_SP SP+0
          CFI (cfiPicker37) CFA_SP SP+0
          CFI EndBlock cfiCond35
          CFI EndBlock cfiCond36
          CFI EndBlock cfiPicker37

        RSEG BANKED_CODE:CODE:NOROOT(0)
?Subroutine7:
          CFI Block cfiCond38 Using cfiCommon0
          CFI Function afIncomingData
          CFI Conditional ??CrossCallReturnLabel_48
          CFI R6 load(1, XDATA, add(CFA_XSP16, literal(-16)))
          CFI VB load(1, XDATA, add(CFA_XSP16, literal(-15)))
          CFI V0 load(1, XDATA, add(CFA_XSP16, literal(-14)))
          CFI V1 load(1, XDATA, add(CFA_XSP16, literal(-13)))
          CFI V2 load(1, XDATA, add(CFA_XSP16, literal(-12)))
          CFI V3 load(1, XDATA, add(CFA_XSP16, literal(-11)))
          CFI V4 load(1, XDATA, add(CFA_XSP16, literal(-10)))
          CFI V5 load(1, XDATA, add(CFA_XSP16, literal(-9)))
          CFI V6 load(1, XDATA, add(CFA_XSP16, literal(-8)))
          CFI V7 load(1, XDATA, add(CFA_XSP16, literal(-7)))
          CFI R7 load(1, XDATA, add(CFA_XSP16, literal(-6)))
          CFI ?RET_LOW load(1, XDATA, add(CFA_XSP16, literal(-5)))
          CFI ?RET_HIGH load(1, XDATA, add(CFA_XSP16, literal(-4)))
          CFI ?BRET_EXT load(1, XDATA, add(CFA_XSP16, literal(-3)))
          CFI DPL0 load(1, XDATA, add(CFA_XSP16, literal(-2)))
          CFI DPH0 load(1, XDATA, add(CFA_XSP16, literal(-1)))
          CFI CFA_SP SP+-2
          CFI CFA_XSP16 add(XSP16, 28)
          CFI Block cfiCond39 Using cfiCommon0
          CFI (cfiCond39) Function afIncomingData
          CFI (cfiCond39) Conditional ??CrossCallReturnLabel_49
          CFI (cfiCond39) R6 load(1, XDATA, add(CFA_XSP16, literal(-16)))
          CFI (cfiCond39) VB load(1, XDATA, add(CFA_XSP16, literal(-15)))
          CFI (cfiCond39) V0 load(1, XDATA, add(CFA_XSP16, literal(-14)))
          CFI (cfiCond39) V1 load(1, XDATA, add(CFA_XSP16, literal(-13)))
          CFI (cfiCond39) V2 load(1, XDATA, add(CFA_XSP16, literal(-12)))
          CFI (cfiCond39) V3 load(1, XDATA, add(CFA_XSP16, literal(-11)))
          CFI (cfiCond39) V4 load(1, XDATA, add(CFA_XSP16, literal(-10)))
          CFI (cfiCond39) V5 load(1, XDATA, add(CFA_XSP16, literal(-9)))
          CFI (cfiCond39) V6 load(1, XDATA, add(CFA_XSP16, literal(-8)))
          CFI (cfiCond39) V7 load(1, XDATA, add(CFA_XSP16, literal(-7)))
          CFI (cfiCond39) R7 load(1, XDATA, add(CFA_XSP16, literal(-6)))
          CFI (cfiCond39) ?RET_LOW load(1, XDATA, add(CFA_XSP16, literal(-5)))
          CFI (cfiCond39) ?RET_HIGH load(1, XDATA, add(CFA_XSP16, literal(-4)))
          CFI (cfiCond39) ?BRET_EXT load(1, XDATA, add(CFA_XSP16, literal(-3)))
          CFI (cfiCond39) DPL0 load(1, XDATA, add(CFA_XSP16, literal(-2)))
          CFI (cfiCond39) DPH0 load(1, XDATA, add(CFA_XSP16, literal(-1)))
          CFI (cfiCond39) CFA_SP SP+-2
          CFI (cfiCond39) CFA_XSP16 add(XSP16, 28)
          CFI Block cfiPicker40 Using cfiCommon1
          CFI (cfiPicker40) NoFunction
          CFI (cfiPicker40) Picker
        MOV     DPL,?XSP + 0
        MOV     DPH,?XSP + 1
          CFI EndBlock cfiCond38
          CFI EndBlock cfiCond39
          CFI EndBlock cfiPicker40
        REQUIRE ??Subroutine29_0
        ; // Fall through to label ??Subroutine29_0

        RSEG BANKED_CODE:CODE:NOROOT(0)
??Subroutine29_0:
          CFI Block cfiCond41 Using cfiCommon0
          CFI Function afRegisterExtended
          CFI Conditional ??CrossCallReturnLabel_44
          CFI R6 load(1, XDATA, add(CFA_XSP16, literal(-12)))
          CFI VB load(1, XDATA, add(CFA_XSP16, literal(-11)))
          CFI V0 load(1, XDATA, add(CFA_XSP16, literal(-10)))
          CFI V1 load(1, XDATA, add(CFA_XSP16, literal(-9)))
          CFI V2 load(1, XDATA, add(CFA_XSP16, literal(-8)))
          CFI V3 load(1, XDATA, add(CFA_XSP16, literal(-7)))
          CFI R7 load(1, XDATA, add(CFA_XSP16, literal(-6)))
          CFI ?RET_LOW load(1, XDATA, add(CFA_XSP16, literal(-5)))
          CFI ?RET_HIGH load(1, XDATA, add(CFA_XSP16, literal(-4)))
          CFI ?BRET_EXT load(1, XDATA, add(CFA_XSP16, literal(-3)))
          CFI DPL0 load(1, XDATA, add(CFA_XSP16, literal(-2)))
          CFI DPH0 load(1, XDATA, add(CFA_XSP16, literal(-1)))
          CFI CFA_SP SP+-2
          CFI CFA_XSP16 add(XSP16, 12)
          CFI Block cfiCond42 Using cfiCommon0
          CFI (cfiCond42) Function afIncomingData
          CFI (cfiCond42) Conditional ??CrossCallReturnLabel_45
          CFI (cfiCond42) R6 load(1, XDATA, add(CFA_XSP16, literal(-16)))
          CFI (cfiCond42) VB load(1, XDATA, add(CFA_XSP16, literal(-15)))
          CFI (cfiCond42) V0 load(1, XDATA, add(CFA_XSP16, literal(-14)))
          CFI (cfiCond42) V1 load(1, XDATA, add(CFA_XSP16, literal(-13)))
          CFI (cfiCond42) V2 load(1, XDATA, add(CFA_XSP16, literal(-12)))
          CFI (cfiCond42) V3 load(1, XDATA, add(CFA_XSP16, literal(-11)))
          CFI (cfiCond42) V4 load(1, XDATA, add(CFA_XSP16, literal(-10)))
          CFI (cfiCond42) V5 load(1, XDATA, add(CFA_XSP16, literal(-9)))
          CFI (cfiCond42) V6 load(1, XDATA, add(CFA_XSP16, literal(-8)))
          CFI (cfiCond42) V7 load(1, XDATA, add(CFA_XSP16, literal(-7)))
          CFI (cfiCond42) R7 load(1, XDATA, add(CFA_XSP16, literal(-6)))
          CFI (cfiCond42) ?RET_LOW load(1, XDATA, add(CFA_XSP16, literal(-5)))
          CFI (cfiCond42) ?RET_HIGH load(1, XDATA, add(CFA_XSP16, literal(-4)))
          CFI (cfiCond42) ?BRET_EXT load(1, XDATA, add(CFA_XSP16, literal(-3)))
          CFI (cfiCond42) DPL0 load(1, XDATA, add(CFA_XSP16, literal(-2)))
          CFI (cfiCond42) DPH0 load(1, XDATA, add(CFA_XSP16, literal(-1)))
          CFI (cfiCond42) CFA_SP SP+-2
          CFI (cfiCond42) CFA_XSP16 add(XSP16, 28)
          CFI Block cfiCond43 Using cfiCommon0
          CFI (cfiCond43) Function afBuildMSGIncoming
          CFI (cfiCond43) Conditional ??CrossCallReturnLabel_46
          CFI (cfiCond43) R6 load(1, XDATA, add(CFA_XSP16, literal(-16)))
          CFI (cfiCond43) VB load(1, XDATA, add(CFA_XSP16, literal(-15)))
          CFI (cfiCond43) V0 load(1, XDATA, add(CFA_XSP16, literal(-14)))
          CFI (cfiCond43) V1 load(1, XDATA, add(CFA_XSP16, literal(-13)))
          CFI (cfiCond43) V2 load(1, XDATA, add(CFA_XSP16, literal(-12)))
          CFI (cfiCond43) V3 load(1, XDATA, add(CFA_XSP16, literal(-11)))
          CFI (cfiCond43) V4 load(1, XDATA, add(CFA_XSP16, literal(-10)))
          CFI (cfiCond43) V5 load(1, XDATA, add(CFA_XSP16, literal(-9)))
          CFI (cfiCond43) V6 load(1, XDATA, add(CFA_XSP16, literal(-8)))
          CFI (cfiCond43) V7 load(1, XDATA, add(CFA_XSP16, literal(-7)))
          CFI (cfiCond43) R7 load(1, XDATA, add(CFA_XSP16, literal(-6)))
          CFI (cfiCond43) ?RET_LOW load(1, XDATA, add(CFA_XSP16, literal(-5)))
          CFI (cfiCond43) ?RET_HIGH load(1, XDATA, add(CFA_XSP16, literal(-4)))
          CFI (cfiCond43) ?BRET_EXT load(1, XDATA, add(CFA_XSP16, literal(-3)))
          CFI (cfiCond43) DPL0 load(1, XDATA, add(CFA_XSP16, literal(-2)))
          CFI (cfiCond43) DPH0 load(1, XDATA, add(CFA_XSP16, literal(-1)))
          CFI (cfiCond43) CFA_SP SP+-2
          CFI (cfiCond43) CFA_XSP16 add(XSP16, 19)
          CFI Block cfiCond44 Using cfiCommon0
          CFI (cfiCond44) Function afFindSimpleDesc
          CFI (cfiCond44) Conditional ??CrossCallReturnLabel_47
          CFI (cfiCond44) R6 load(1, XDATA, add(CFA_XSP16, literal(-12)))
          CFI (cfiCond44) VB load(1, XDATA, add(CFA_XSP16, literal(-11)))
          CFI (cfiCond44) V0 load(1, XDATA, add(CFA_XSP16, literal(-10)))
          CFI (cfiCond44) V1 load(1, XDATA, add(CFA_XSP16, literal(-9)))
          CFI (cfiCond44) V2 load(1, XDATA, add(CFA_XSP16, literal(-8)))
          CFI (cfiCond44) V3 load(1, XDATA, add(CFA_XSP16, literal(-7)))
          CFI (cfiCond44) R7 load(1, XDATA, add(CFA_XSP16, literal(-6)))
          CFI (cfiCond44) ?RET_LOW load(1, XDATA, add(CFA_XSP16, literal(-5)))
          CFI (cfiCond44) ?RET_HIGH load(1, XDATA, add(CFA_XSP16, literal(-4)))
          CFI (cfiCond44) ?BRET_EXT load(1, XDATA, add(CFA_XSP16, literal(-3)))
          CFI (cfiCond44) DPL0 load(1, XDATA, add(CFA_XSP16, literal(-2)))
          CFI (cfiCond44) DPH0 load(1, XDATA, add(CFA_XSP16, literal(-1)))
          CFI (cfiCond44) CFA_SP SP+-2
          CFI (cfiCond44) CFA_XSP16 add(XSP16, 12)
          CFI Block cfiCond45 Using cfiCommon0
          CFI (cfiCond45) Function afIncomingData
          CFI (cfiCond45) Conditional ??CrossCallReturnLabel_48
          CFI (cfiCond45) R6 load(1, XDATA, add(CFA_XSP16, literal(-16)))
          CFI (cfiCond45) VB load(1, XDATA, add(CFA_XSP16, literal(-15)))
          CFI (cfiCond45) V0 load(1, XDATA, add(CFA_XSP16, literal(-14)))
          CFI (cfiCond45) V1 load(1, XDATA, add(CFA_XSP16, literal(-13)))
          CFI (cfiCond45) V2 load(1, XDATA, add(CFA_XSP16, literal(-12)))
          CFI (cfiCond45) V3 load(1, XDATA, add(CFA_XSP16, literal(-11)))
          CFI (cfiCond45) V4 load(1, XDATA, add(CFA_XSP16, literal(-10)))
          CFI (cfiCond45) V5 load(1, XDATA, add(CFA_XSP16, literal(-9)))
          CFI (cfiCond45) V6 load(1, XDATA, add(CFA_XSP16, literal(-8)))
          CFI (cfiCond45) V7 load(1, XDATA, add(CFA_XSP16, literal(-7)))
          CFI (cfiCond45) R7 load(1, XDATA, add(CFA_XSP16, literal(-6)))
          CFI (cfiCond45) ?RET_LOW load(1, XDATA, add(CFA_XSP16, literal(-5)))
          CFI (cfiCond45) ?RET_HIGH load(1, XDATA, add(CFA_XSP16, literal(-4)))
          CFI (cfiCond45) ?BRET_EXT load(1, XDATA, add(CFA_XSP16, literal(-3)))
          CFI (cfiCond45) DPL0 load(1, XDATA, add(CFA_XSP16, literal(-2)))
          CFI (cfiCond45) DPH0 load(1, XDATA, add(CFA_XSP16, literal(-1)))
          CFI (cfiCond45) CFA_SP SP+-2
          CFI (cfiCond45) CFA_XSP16 add(XSP16, 28)
          CFI Block cfiCond46 Using cfiCommon0
          CFI (cfiCond46) Function afIncomingData
          CFI (cfiCond46) Conditional ??CrossCallReturnLabel_49
          CFI (cfiCond46) R6 load(1, XDATA, add(CFA_XSP16, literal(-16)))
          CFI (cfiCond46) VB load(1, XDATA, add(CFA_XSP16, literal(-15)))
          CFI (cfiCond46) V0 load(1, XDATA, add(CFA_XSP16, literal(-14)))
          CFI (cfiCond46) V1 load(1, XDATA, add(CFA_XSP16, literal(-13)))
          CFI (cfiCond46) V2 load(1, XDATA, add(CFA_XSP16, literal(-12)))
          CFI (cfiCond46) V3 load(1, XDATA, add(CFA_XSP16, literal(-11)))
          CFI (cfiCond46) V4 load(1, XDATA, add(CFA_XSP16, literal(-10)))
          CFI (cfiCond46) V5 load(1, XDATA, add(CFA_XSP16, literal(-9)))
          CFI (cfiCond46) V6 load(1, XDATA, add(CFA_XSP16, literal(-8)))
          CFI (cfiCond46) V7 load(1, XDATA, add(CFA_XSP16, literal(-7)))
          CFI (cfiCond46) R7 load(1, XDATA, add(CFA_XSP16, literal(-6)))
          CFI (cfiCond46) ?RET_LOW load(1, XDATA, add(CFA_XSP16, literal(-5)))
          CFI (cfiCond46) ?RET_HIGH load(1, XDATA, add(CFA_XSP16, literal(-4)))
          CFI (cfiCond46) ?BRET_EXT load(1, XDATA, add(CFA_XSP16, literal(-3)))
          CFI (cfiCond46) DPL0 load(1, XDATA, add(CFA_XSP16, literal(-2)))
          CFI (cfiCond46) DPH0 load(1, XDATA, add(CFA_XSP16, literal(-1)))
          CFI (cfiCond46) CFA_SP SP+-2
          CFI (cfiCond46) CFA_XSP16 add(XSP16, 28)
          CFI Block cfiPicker47 Using cfiCommon1
          CFI (cfiPicker47) NoFunction
          CFI (cfiPicker47) Picker
        MOV     A,R2
        MOVX    @DPTR,A
        INC     DPTR
        MOV     A,R3
        MOVX    @DPTR,A
        RET
          CFI (cfiCond41) CFA_SP SP+0
          CFI (cfiCond42) CFA_SP SP+0
          CFI (cfiCond43) CFA_SP SP+0
          CFI (cfiCond44) CFA_SP SP+0
          CFI (cfiCond45) CFA_SP SP+0
          CFI (cfiCond46) CFA_SP SP+0
          CFI (cfiPicker47) CFA_SP SP+0
          CFI EndBlock cfiCond41
          CFI EndBlock cfiCond42
          CFI EndBlock cfiCond43
          CFI EndBlock cfiCond44
          CFI EndBlock cfiCond45
          CFI EndBlock cfiCond46
          CFI EndBlock cfiPicker47
//  447 
//  448 /*********************************************************************
//  449  * @fn      AF_DataRequest
//  450  *
//  451  * @brief   Common functionality for invoking APSDE_DataReq() for both
//  452  *          SendMulti and MSG-Send.
//  453  *
//  454  * input parameters
//  455  *
//  456  * @param  *dstAddr - Full ZB destination address: Nwk Addr + End Point.
//  457  * @param  *srcEP - Origination (i.e. respond to or ack to) End Point Descr.
//  458  * @param   cID - A valid cluster ID as specified by the Profile.
//  459  * @param   len - Number of bytes of data pointed to by next param.
//  460  * @param  *buf - A pointer to the data bytes to send.
//  461  * @param  *transID - A pointer to a byte which can be modified and which will
//  462  *                    be used as the transaction sequence number of the msg.
//  463  * @param   options - Valid bit mask of Tx options.
//  464  * @param   radius - Normally set to AF_DEFAULT_RADIUS.
//  465  *
//  466  * output parameters
//  467  *
//  468  * @param  *transID - Incremented by one if the return value is success.
//  469  *
//  470  * @return  afStatus_t - See previous definition of afStatus_... types.
//  471  */

        RSEG XDATA_I:XDATA:NOROOT(0)
//  472 uint8 AF_DataRequestDiscoverRoute = TRUE;
AF_DataRequestDiscoverRoute:
        DATA8
        DS 1
        REQUIRE `?<Initializer for AF_DataRequestDiscoverRoute>`
        REQUIRE __INIT_XDATA_I

        RSEG BANKED_CODE:CODE:NOROOT(0)
//  473 afStatus_t AF_DataRequest( afAddrType_t *dstAddr, endPointDesc_t *srcEP,
AF_DataRequest:
          CFI Block cfiBlock48 Using cfiCommon0
          CFI Function AF_DataRequest
        CODE
//  474                            uint16 cID, uint16 len, uint8 *buf, uint8 *transID,
//  475                            uint8 options, uint8 radius )
//  476 {
        FUNCALL AF_DataRequest, NLME_IsAddressBroadcast
        LOCFRAME ISTACK, 0, STACK
        LOCFRAME PSTACK, 0, STACK
        LOCFRAME XSTACK, 45, STACK
        LOCFRAME IOVERLAY, 0, STATIC
        LOCFRAME DOVERLAY, 0, STATIC
        ARGFRAME ISTACK, 0, STACK
        ARGFRAME PSTACK, 0, STACK
        ARGFRAME XSTACK, 45, STACK
        ARGFRAME IOVERLAY, 0, STATIC
        ARGFRAME DOVERLAY, 0, STATIC
        FUNCALL AF_DataRequest, sAddrExtCpy
        LOCFRAME ISTACK, 0, STACK
        LOCFRAME PSTACK, 0, STACK
        LOCFRAME XSTACK, 45, STACK
        LOCFRAME IOVERLAY, 0, STATIC
        LOCFRAME DOVERLAY, 0, STATIC
        ARGFRAME ISTACK, 0, STACK
        ARGFRAME PSTACK, 0, STACK
        ARGFRAME XSTACK, 45, STACK
        ARGFRAME IOVERLAY, 0, STATIC
        ARGFRAME DOVERLAY, 0, STATIC
        FUNCALL AF_DataRequest, osal_mem_free
        LOCFRAME ISTACK, 0, STACK
        LOCFRAME PSTACK, 0, STACK
        LOCFRAME XSTACK, 45, STACK
        LOCFRAME IOVERLAY, 0, STATIC
        LOCFRAME DOVERLAY, 0, STATIC
        ARGFRAME ISTACK, 0, STACK
        ARGFRAME PSTACK, 0, STACK
        ARGFRAME XSTACK, 45, STACK
        ARGFRAME IOVERLAY, 0, STATIC
        ARGFRAME DOVERLAY, 0, STATIC
        FUNCALL AF_DataRequest, afDataReqMTU
        LOCFRAME ISTACK, 0, STACK
        LOCFRAME PSTACK, 0, STACK
        LOCFRAME XSTACK, 45, STACK
        LOCFRAME IOVERLAY, 0, STATIC
        LOCFRAME DOVERLAY, 0, STATIC
        ARGFRAME ISTACK, 0, STACK
        ARGFRAME PSTACK, 0, STACK
        ARGFRAME XSTACK, 45, STACK
        ARGFRAME IOVERLAY, 0, STATIC
        ARGFRAME DOVERLAY, 0, STATIC
        FUNCALL AF_DataRequest, APSDE_DataReq
        LOCFRAME ISTACK, 0, STACK
        LOCFRAME PSTACK, 0, STACK
        LOCFRAME XSTACK, 45, STACK
        LOCFRAME IOVERLAY, 0, STATIC
        LOCFRAME DOVERLAY, 0, STATIC
        ARGFRAME ISTACK, 0, STACK
        ARGFRAME PSTACK, 0, STACK
        ARGFRAME XSTACK, 45, STACK
        ARGFRAME IOVERLAY, 0, STATIC
        ARGFRAME DOVERLAY, 0, STATIC
        FUNCALL AF_DataRequest, NLME_GetShortAddr
        LOCFRAME ISTACK, 0, STACK
        LOCFRAME PSTACK, 0, STACK
        LOCFRAME XSTACK, 45, STACK
        LOCFRAME IOVERLAY, 0, STATIC
        LOCFRAME DOVERLAY, 0, STATIC
        ARGFRAME ISTACK, 0, STACK
        ARGFRAME PSTACK, 0, STACK
        ARGFRAME XSTACK, 45, STACK
        ARGFRAME IOVERLAY, 0, STATIC
        ARGFRAME DOVERLAY, 0, STATIC
        FUNCALL AF_DataRequest, afDataConfirm
        LOCFRAME ISTACK, 0, STACK
        LOCFRAME PSTACK, 0, STACK
        LOCFRAME XSTACK, 45, STACK
        LOCFRAME IOVERLAY, 0, STATIC
        LOCFRAME DOVERLAY, 0, STATIC
        ARGFRAME ISTACK, 0, STACK
        ARGFRAME PSTACK, 0, STACK
        ARGFRAME XSTACK, 45, STACK
        ARGFRAME IOVERLAY, 0, STATIC
        ARGFRAME DOVERLAY, 0, STATIC
        REQUIRE ?V0
        REQUIRE ?V1
        REQUIRE ?V2
        REQUIRE ?V3
        REQUIRE ?V4
        REQUIRE ?V5
        REQUIRE ?V6
        MOV     A,#-0xf
        LCALL   ?BANKED_ENTER_XDATA
          CFI DPH0 load(1, XDATA, add(CFA_XSP16, literal(-1)))
          CFI DPL0 load(1, XDATA, add(CFA_XSP16, literal(-2)))
          CFI ?BRET_EXT load(1, XDATA, add(CFA_XSP16, literal(-3)))
          CFI ?RET_HIGH load(1, XDATA, add(CFA_XSP16, literal(-4)))
          CFI ?RET_LOW load(1, XDATA, add(CFA_XSP16, literal(-5)))
          CFI R7 load(1, XDATA, add(CFA_XSP16, literal(-6)))
          CFI V6 load(1, XDATA, add(CFA_XSP16, literal(-7)))
          CFI V5 load(1, XDATA, add(CFA_XSP16, literal(-8)))
          CFI V4 load(1, XDATA, add(CFA_XSP16, literal(-9)))
          CFI V3 load(1, XDATA, add(CFA_XSP16, literal(-10)))
          CFI V2 load(1, XDATA, add(CFA_XSP16, literal(-11)))
          CFI V1 load(1, XDATA, add(CFA_XSP16, literal(-12)))
          CFI V0 load(1, XDATA, add(CFA_XSP16, literal(-13)))
          CFI VB load(1, XDATA, add(CFA_XSP16, literal(-14)))
          CFI R6 load(1, XDATA, add(CFA_XSP16, literal(-15)))
          CFI CFA_SP SP+0
          CFI CFA_XSP16 add(XSP16, 15)
        ; Saved register size: 15
        ; Auto size: 30
        MOV     A,#-0x1e
        LCALL   ?ALLOC_XSTACK8
          CFI CFA_XSP16 add(XSP16, 45)
        MOV     ?V2,R2
        MOV     ?V3,R3
        MOV     A,R4
        MOV     R6,A
        MOV     A,R5
        MOV     R7,A
        MOV     ?V6,R1
//  477   pDescCB pfnDescCB;
//  478   ZStatus_t stat;
//  479   APSDE_DataReq_t req;
//  480   afDataReqMTU_t mtu;
//  481 
//  482   // Verify source end point
//  483   if ( srcEP == NULL )
        MOV     A,R6
        ORL     A,R7
        JZ      ??AF_DataRequest_0
//  484   {
//  485     return afStatus_INVALID_PARAMETER;
//  486   }
//  487 
//  488 #if !defined( REFLECTOR )
//  489   if ( dstAddr->addrMode == afAddrNotPresent )
//  490   {
//  491     return afStatus_INVALID_PARAMETER;
//  492   }
//  493 #endif
//  494 
//  495   // Validate broadcasting
//  496   if ( ( dstAddr->addrMode == afAddr16Bit     ) ||
//  497        ( dstAddr->addrMode == afAddrBroadcast )    )
        MOV     A,R2
        ADD     A,#0x8
        MOV     ?V0,A
        CLR     A
        ADDC    A,?V3
        MOV     ?V1,A
        MOV     DPL,?V0
        MOV     DPH,A
        MOVX    A,@DPTR
        MOV     R0,A
        MOV     A,#0x2
        XRL     A,R0
        JZ      ??AF_DataRequest_1
        MOV     A,#0xf
        XRL     A,R0
        JNZ     ??AF_DataRequest_2
//  498   {
//  499     // Check for valid broadcast values
//  500     if( ADDR_NOT_BCAST != NLME_IsAddressBroadcast( dstAddr->addr.shortAddr )  )
??AF_DataRequest_1:
        ; Setup parameters for call to function NLME_IsAddressBroadcast
        MOV     DPL,R2
        MOV     DPH,R3
        LCALL   ??Subroutine32_0 & 0xFFFF
??CrossCallReturnLabel_84:
        LCALL   `??NLME_IsAddressBroadcast::?relay`; Banked call to: NLME_IsAddressBroadcast
        MOV     A,R1
        MOV     DPL,?V0
        MOV     DPH,?V1
        JZ      ??AF_DataRequest_3
//  501     {
//  502       // Force mode to broadcast
//  503       dstAddr->addrMode = afAddrBroadcast;
        MOV     A,#0xf
        MOVX    @DPTR,A
//  504     }
//  505     else
//  506     {
//  507       // Address is not a valid broadcast type
//  508       if ( dstAddr->addrMode == afAddrBroadcast )
//  509       {
//  510         return afStatus_INVALID_PARAMETER;
//  511       }
//  512     }
//  513   }
//  514   else if ( dstAddr->addrMode != afAddr64Bit &&
//  515             dstAddr->addrMode != afAddrGroup &&
//  516             dstAddr->addrMode != afAddrNotPresent )
//  517   {
//  518     return afStatus_INVALID_PARAMETER;
//  519   }
//  520   
//  521   // Set destination address
//  522   req.dstAddr.addrMode = dstAddr->addrMode;
??AF_DataRequest_4:
        MOVX    A,@DPTR
        PUSH    A
          CFI CFA_SP SP+-1
        MOV     A,#0xa
        LCALL   ?XSTACK_DISP0_8
        POP     A
          CFI CFA_SP SP+0
        MOVX    @DPTR,A
//  523   if ( dstAddr->addrMode == afAddr64Bit )
        MOV     DPL,?V0
        MOV     DPH,?V1
        MOVX    A,@DPTR
        XRL     A,#0x3
        JNZ     ??AF_DataRequest_5
//  524     osal_cpyExtAddr( req.dstAddr.addr.extAddr, dstAddr->addr.extAddr );
        ; Setup parameters for call to function sAddrExtCpy
        MOV     R4,?V2
        MOV     R5,?V3
        MOV     A,#0x2
        LCALL   ?XSTACK_DISP101_8
        LCALL   `??sAddrExtCpy::?relay`; Banked call to: sAddrExtCpy
        SJMP    ??CrossCallReturnLabel_75
??AF_DataRequest_3:
        MOVX    A,@DPTR
        XRL     A,#0xf
        JNZ     ??AF_DataRequest_4
        SJMP    ??AF_DataRequest_0
??AF_DataRequest_2:
        MOV     A,#0x3
        XRL     A,R0
        JZ      ??AF_DataRequest_4
        MOV     A,#0x1
        XRL     A,R0
        JZ      ??AF_DataRequest_4
        MOV     A,R0
        JZ      ??AF_DataRequest_4
??AF_DataRequest_0:
        MOV     R1,#0x2
        LJMP    ??AF_DataRequest_6 & 0xFFFF
//  525   else
//  526     req.dstAddr.addr.shortAddr = dstAddr->addr.shortAddr;
??AF_DataRequest_5:
        MOV     DPL,?V2
        MOV     DPH,?V3
        LCALL   ??Subroutine30_0 & 0xFFFF
??CrossCallReturnLabel_52:
        MOV     A,#0x2
        LCALL   ?XSTACK_DISP0_8
        LCALL   ??Subroutine31_0 & 0xFFFF
//  527   
//  528   req.profileID = ZDO_PROFILE_ID;
??CrossCallReturnLabel_75:
        MOV     A,#0x11
        LCALL   ?XSTACK_DISP0_8
        LCALL   ?Subroutine6 & 0xFFFF
??CrossCallReturnLabel_33:
        SJMP    ??AF_DataRequest_7
??AF_DataRequest_8:
        INC     DPTR
        INC     DPTR
??AF_DataRequest_7:
        LCALL   ?Subroutine9 & 0xFFFF
??CrossCallReturnLabel_2:
        JZ      ??AF_DataRequest_9
        MOV     DPL,R0
        MOV     DPH,R1
        LCALL   ??Subroutine32_0 & 0xFFFF
??CrossCallReturnLabel_85:
        MOV     A,R6
        XRL     A,R2
        JNZ     ??AF_DataRequest_10
        MOV     A,R7
        XRL     A,R3
??AF_DataRequest_10:
        MOV     DPL,R0
        MOV     DPH,R1
        INC     DPTR
        INC     DPTR
        INC     DPTR
        JNZ     ??AF_DataRequest_8
        LCALL   ??Subroutine30_0 & 0xFFFF
??CrossCallReturnLabel_53:
        MOV     A,R0
        MOV     R4,A
        MOV     A,R1
        MOV     R5,A
//  529 
//  530   if ( (pfnDescCB = afGetDescCB( srcEP )) )
        MOV     A,R4
        ORL     A,R5
        JZ      ??AF_DataRequest_9
//  531   {
//  532     uint16 *pID = (uint16 *)(pfnDescCB(
//  533                                  AF_DESCRIPTOR_PROFILE_ID, srcEP->endPoint ));
        ; Setup parameters for indirect call
        MOV     DPL,R6
        MOV     DPH,R7
        LCALL   ?Subroutine21 & 0xFFFF
??CrossCallReturnLabel_27:
        LCALL   ?CALL_IND
//  534     if ( pID )
        MOV     A,R2
        ORL     A,R3
        JZ      ??CrossCallReturnLabel_77
//  535     {
//  536       req.profileID = *pID;
        MOV     DPL,R2
        MOV     DPH,R3
        LCALL   ??Subroutine30_0 & 0xFFFF
??CrossCallReturnLabel_54:
        MOV     A,#0x11
        LCALL   ?XSTACK_DISP0_8
        LCALL   ??Subroutine31_0 & 0xFFFF
//  537       osal_mem_free( pID );
??CrossCallReturnLabel_76:
        ; Setup parameters for call to function osal_mem_free
        LCALL   `??osal_mem_free::?relay`; Banked call to: osal_mem_free
        SJMP    ??CrossCallReturnLabel_77
//  538     }
//  539   }
//  540   else if ( srcEP->simpleDesc )
??AF_DataRequest_9:
        MOV     DPL,R6
        MOV     DPH,R7
        LCALL   ?Subroutine10 & 0xFFFF
??CrossCallReturnLabel_9:
        JZ      ??CrossCallReturnLabel_77
//  541   {
//  542     req.profileID = srcEP->simpleDesc->AppProfId;
        LCALL   ?Subroutine20 & 0xFFFF
//  543   }
??CrossCallReturnLabel_59:
        MOV     A,#0x11
        LCALL   ?XSTACK_DISP0_8
        LCALL   ??Subroutine31_0 & 0xFFFF
//  544 
//  545   req.txOptions = 0;
??CrossCallReturnLabel_77:
        MOV     A,#0x17
        LCALL   ?XSTACK_DISP0_8
        CLR     A
        MOVX    @DPTR,A
        INC     DPTR
        MOVX    @DPTR,A
//  546 
//  547   if ( ( options & AF_ACK_REQUEST              ) &&
//  548        ( req.dstAddr.addrMode != AddrBroadcast ) &&
//  549        ( req.dstAddr.addrMode != AddrGroup     )    )
        MOV     A,?V6
        MOV     C,0xE0 /* A   */.4
        JNC     ??AF_DataRequest_11
        MOV     A,#0xa
        LCALL   ?XSTACK_DISP0_8
        MOVX    A,@DPTR
        MOV     R0,A
        MOV     A,#0xf
        XRL     A,R0
        JZ      ??AF_DataRequest_11
        MOV     A,#0x1
        XRL     A,R0
        JZ      ??AF_DataRequest_11
//  550   {
//  551     req.txOptions |=  APS_TX_OPTIONS_ACK;
        MOV     A,#0x17
        LCALL   ?XSTACK_DISP0_8
        MOV     A,#0x4
        MOVX    @DPTR,A
        INC     DPTR
        CLR     A
        MOVX    @DPTR,A
//  552   }
//  553 
//  554   if ( options & AF_SKIP_ROUTING )
??AF_DataRequest_11:
        MOV     A,?V6
        MOV     C,0xE0 /* A   */.7
        JNC     ??AF_DataRequest_12
//  555   {
//  556     req.txOptions |=  APS_TX_OPTIONS_SKIP_ROUTING;
        MOV     A,#0x17
        LCALL   ?XSTACK_DISP0_8
        MOVX    A,@DPTR
        ORL     A,#0x10
        MOVX    @DPTR,A
//  557   }
//  558 
//  559   if ( options & AF_EN_SECURITY )
??AF_DataRequest_12:
        MOV     A,?V6
        MOV     C,0xE0 /* A   */.6
        JNC     ??AF_DataRequest_13
//  560   {
//  561     req.txOptions |= APS_TX_OPTIONS_SECURITY_ENABLE;
        MOV     A,#0x17
        LCALL   ?XSTACK_DISP0_8
        MOVX    A,@DPTR
        ORL     A,#0x1
        MOVX    @DPTR,A
//  562     mtu.aps.secure = TRUE;
        MOV     A,#0x1
        LCALL   ?XSTACK_DISP0_8
        MOV     A,#0x1
        SJMP    ??AF_DataRequest_14
//  563   }
//  564   else
//  565   {
//  566     mtu.aps.secure = FALSE;
??AF_DataRequest_13:
        MOV     A,#0x1
        LCALL   ?XSTACK_DISP0_8
        CLR     A
??AF_DataRequest_14:
        MOVX    @DPTR,A
//  567   }
//  568 
//  569   mtu.kvp = FALSE;
        MOV     DPL,?XSP + 0
        MOV     DPH,?XSP + 1
        CLR     A
        MOVX    @DPTR,A
        MOV     A,#0x33
        LCALL   ?XSTACK_DISP0_8
        MOVX    A,@DPTR
        MOV     ?V4,A
        INC     DPTR
        MOVX    A,@DPTR
        MOV     ?V5,A
//  570 
//  571   req.transID       = *transID;
        MOV     DPL,?V4
        MOV     DPH,A
        MOVX    A,@DPTR
        PUSH    A
          CFI CFA_SP SP+-1
        MOV     A,#0x19
        LCALL   ?XSTACK_DISP0_8
        POP     A
          CFI CFA_SP SP+0
        MOVX    @DPTR,A
//  572   req.srcEP         = srcEP->endPoint;
        MOV     DPL,R6
        MOV     DPH,R7
        MOVX    A,@DPTR
        PUSH    A
          CFI CFA_SP SP+-1
        MOV     A,#0xb
        LCALL   ?XSTACK_DISP0_8
        POP     A
          CFI CFA_SP SP+0
        MOVX    @DPTR,A
//  573   req.dstEP         = dstAddr->endPoint;
        MOV     DPL,?V2
        MOV     DPH,?V3
        INC     DPTR
        INC     DPTR
        INC     DPTR
        INC     DPTR
        INC     DPTR
        INC     DPTR
        INC     DPTR
        INC     DPTR
        INC     DPTR
        MOVX    A,@DPTR
        PUSH    A
          CFI CFA_SP SP+-1
        MOV     A,#0xc
        LCALL   ?XSTACK_DISP0_8
        POP     A
          CFI CFA_SP SP+0
        MOVX    @DPTR,A
//  574   req.clusterID     = cID;
        MOV     A,#0x2d
        LCALL   ?XSTACK_DISP0_8
        LCALL   ??Subroutine30_0 & 0xFFFF
??CrossCallReturnLabel_55:
        MOV     A,#0xf
        LCALL   ?XSTACK_DISP0_8
        LCALL   ??Subroutine31_0 & 0xFFFF
??CrossCallReturnLabel_78:
        MOV     A,#0x2f
        LCALL   ?XSTACK_DISP0_8
        MOVX    A,@DPTR
        MOV     ?V0,A
        INC     DPTR
        MOVX    A,@DPTR
        MOV     ?V1,A
//  575   req.asduLen       = len;
        MOV     A,#0x13
        LCALL   ?XSTACK_DISP0_8
        MOV     A,?V0
        MOVX    @DPTR,A
        INC     DPTR
        MOV     A,?V1
        MOVX    @DPTR,A
//  576   req.asdu          = buf;
        MOV     A,#0x31
        LCALL   ?XSTACK_DISP0_8
        LCALL   ??Subroutine30_0 & 0xFFFF
??CrossCallReturnLabel_56:
        MOV     A,#0x15
        LCALL   ?XSTACK_DISP0_8
        LCALL   ??Subroutine31_0 & 0xFFFF
//  577   req.discoverRoute = AF_DataRequestDiscoverRoute;//(uint8)((options & AF_DISCV_ROUTE) ? 1 : 0);
??CrossCallReturnLabel_79:
        MOV     DPTR,#AF_DataRequestDiscoverRoute
        MOVX    A,@DPTR
        PUSH    A
          CFI CFA_SP SP+-1
        MOV     A,#0x1a
        LCALL   ?XSTACK_DISP0_8
        POP     A
          CFI CFA_SP SP+0
        MOVX    @DPTR,A
//  578   req.radiusCounter = radius;
        MOV     A,#0x35
        LCALL   ?XSTACK_DISP0_8
        MOVX    A,@DPTR
        PUSH    A
          CFI CFA_SP SP+-1
        MOV     A,#0x1b
        LCALL   ?XSTACK_DISP0_8
        POP     A
          CFI CFA_SP SP+0
        MOVX    @DPTR,A
//  579 #if defined ( INTER_PAN )
//  580   req.dstPanId      = dstAddr->panId;
//  581 
//  582   if ( StubAPS_InterPan( dstAddr->panId, dstAddr->endPoint ) )
//  583   {
//  584     if ( len > INTERP_DataReqMTU() )
//  585     {
//  586       stat = afStatus_INVALID_PARAMETER;
//  587     }
//  588     else
//  589     {
//  590       stat = INTERP_DataReq( &req );
//  591     }
//  592   }
//  593   else
//  594 #endif // INTER_PAN
//  595   {
//  596     if (len > afDataReqMTU( &mtu ) )
        ; Setup parameters for call to function afDataReqMTU
        MOV     R2,?XSP + 0
        MOV     R3,?XSP + 1
        LCALL   `??afDataReqMTU::?relay`; Banked call to: afDataReqMTU
        MOV     A,R1
        CLR     C
        SUBB    A,?V0
        CLR     A
        SUBB    A,?V1
        JNC     ??AF_DataRequest_15
//  597     {
//  598       if (apsfSendFragmented)
        MOV     DPTR,#apsfSendFragmented
        LCALL   ?Subroutine9 & 0xFFFF
??CrossCallReturnLabel_7:
        JZ      ??AF_DataRequest_16
//  599       {
//  600         stat = (*apsfSendFragmented)( &req );
        ; Setup parameters for indirect call
        MOV     A,#0x2
        LCALL   ?XSTACK_DISP101_8
        MOVX    A,@DPTR
        MOV     DPH,A
        MOV     DPL,R0
        LCALL   ?CALL_IND
        SJMP    ??AF_DataRequest_17
//  601       }
//  602       else
//  603       {
//  604         stat = afStatus_INVALID_PARAMETER;
??AF_DataRequest_16:
        MOV     ?V0,#0x2
        SJMP    ??AF_DataRequest_18
//  605       }
//  606     }
//  607     else
//  608     {
//  609       stat = APSDE_DataReq( &req );
??AF_DataRequest_15:
        ; Setup parameters for call to function APSDE_DataReq
        MOV     A,#0x2
        LCALL   ?XSTACK_DISP101_8
        LCALL   `??APSDE_DataReq::?relay`; Banked call to: APSDE_DataReq
??AF_DataRequest_17:
        MOV     A,R1
        MOV     ?V0,A
//  610     }
//  611   }
//  612 
//  613   /*
//  614    * If this is an EndPoint-to-EndPoint message on the same device, it will not
//  615    * get added to the NWK databufs. So it will not go OTA and it will not get
//  616    * a MACCB_DATA_CONFIRM_CMD callback. Thus it is necessary to generate the
//  617    * AF_DATA_CONFIRM_CMD here. Note that APSDE_DataConfirm() only generates one
//  618    * message with the first in line TransSeqNumber, even on a multi message.
//  619    * Also note that a reflected msg will not have its confirmation generated
//  620    * here.
//  621    */
//  622   if ( (req.dstAddr.addrMode == Addr16Bit) &&
//  623        (req.dstAddr.addr.shortAddr == NLME_GetShortAddr()) )
??AF_DataRequest_18:
        MOV     A,#0xa
        LCALL   ?XSTACK_DISP0_8
        MOVX    A,@DPTR
        XRL     A,#0x2
        JNZ     ??AF_DataRequest_19
        ; Setup parameters for call to function NLME_GetShortAddr
        LCALL   `??NLME_GetShortAddr::?relay`; Banked call to: NLME_GetShortAddr
        MOV     ?V2,R2
        MOV     ?V3,R3
        MOV     R0,?V2
        MOV     R1,?V3
        MOV     A,#0x2
        LCALL   ?XSTACK_DISP0_8
        MOVX    A,@DPTR
        XRL     A,R0
        JNZ     ??AF_DataRequest_20
        INC     DPTR
        MOVX    A,@DPTR
        XRL     A,R1
??AF_DataRequest_20:
        JNZ     ??AF_DataRequest_19
//  624   {
//  625     afDataConfirm( srcEP->endPoint, *transID, stat );
        ; Setup parameters for call to function afDataConfirm
        MOV     R3,?V0
        MOV     DPL,?V4
        MOV     DPH,?V5
        MOVX    A,@DPTR
        MOV     R2,A
        MOV     DPL,R6
        MOV     DPH,R7
        MOVX    A,@DPTR
        MOV     R1,A
        LCALL   `??afDataConfirm::?relay`; Banked call to: afDataConfirm
//  626   }
//  627 
//  628   if ( stat == afStatus_SUCCESS )
??AF_DataRequest_19:
        MOV     A,?V0
        JNZ     ??AF_DataRequest_21
//  629   {
//  630     (*transID)++;
        MOV     DPL,?V4
        MOV     DPH,?V5
        MOVX    A,@DPTR
        INC     A
        MOVX    @DPTR,A
//  631   }
//  632 
//  633   return (afStatus_t)stat;
??AF_DataRequest_21:
        MOV     R1,?V0
??AF_DataRequest_6:
        MOV     A,#0x1e
        LCALL   ?DEALLOC_XSTACK8
          CFI CFA_XSP16 add(XSP16, 15)
        MOV     R7,#0x7
        LJMP    ?BANKED_LEAVE_XDATA
          CFI R6 SameValue
          CFI VB SameValue
          CFI V0 SameValue
          CFI V1 SameValue
          CFI V2 SameValue
          CFI V3 SameValue
          CFI V4 SameValue
          CFI V5 SameValue
          CFI V6 SameValue
          CFI R7 SameValue
          CFI ?RET_LOW Frame(CFA_SP, 1)
          CFI ?RET_HIGH Frame(CFA_SP, 2)
          CFI ?BRET_EXT Frame(CFA_SP, 3)
          CFI DPL0 SameValue
          CFI DPH0 SameValue
          CFI CFA_SP SP+-3
          CFI CFA_XSP16 XSP16+0
//  634 }
          CFI EndBlock cfiBlock48

        RSEG BANKED_CODE:CODE:NOROOT(0)
?Subroutine21:
          CFI Block cfiCond49 Using cfiCommon0
          CFI Function afIncomingData
          CFI Conditional ??CrossCallReturnLabel_26
          CFI R6 load(1, XDATA, add(CFA_XSP16, literal(-16)))
          CFI VB load(1, XDATA, add(CFA_XSP16, literal(-15)))
          CFI V0 load(1, XDATA, add(CFA_XSP16, literal(-14)))
          CFI V1 load(1, XDATA, add(CFA_XSP16, literal(-13)))
          CFI V2 load(1, XDATA, add(CFA_XSP16, literal(-12)))
          CFI V3 load(1, XDATA, add(CFA_XSP16, literal(-11)))
          CFI V4 load(1, XDATA, add(CFA_XSP16, literal(-10)))
          CFI V5 load(1, XDATA, add(CFA_XSP16, literal(-9)))
          CFI V6 load(1, XDATA, add(CFA_XSP16, literal(-8)))
          CFI V7 load(1, XDATA, add(CFA_XSP16, literal(-7)))
          CFI R7 load(1, XDATA, add(CFA_XSP16, literal(-6)))
          CFI ?RET_LOW load(1, XDATA, add(CFA_XSP16, literal(-5)))
          CFI ?RET_HIGH load(1, XDATA, add(CFA_XSP16, literal(-4)))
          CFI ?BRET_EXT load(1, XDATA, add(CFA_XSP16, literal(-3)))
          CFI DPL0 load(1, XDATA, add(CFA_XSP16, literal(-2)))
          CFI DPH0 load(1, XDATA, add(CFA_XSP16, literal(-1)))
          CFI CFA_SP SP+-2
          CFI CFA_XSP16 add(XSP16, 28)
          CFI Block cfiCond50 Using cfiCommon0
          CFI (cfiCond50) Function AF_DataRequest
          CFI (cfiCond50) Conditional ??CrossCallReturnLabel_27
          CFI (cfiCond50) R6 load(1, XDATA, add(CFA_XSP16, literal(-15)))
          CFI (cfiCond50) VB load(1, XDATA, add(CFA_XSP16, literal(-14)))
          CFI (cfiCond50) V0 load(1, XDATA, add(CFA_XSP16, literal(-13)))
          CFI (cfiCond50) V1 load(1, XDATA, add(CFA_XSP16, literal(-12)))
          CFI (cfiCond50) V2 load(1, XDATA, add(CFA_XSP16, literal(-11)))
          CFI (cfiCond50) V3 load(1, XDATA, add(CFA_XSP16, literal(-10)))
          CFI (cfiCond50) V4 load(1, XDATA, add(CFA_XSP16, literal(-9)))
          CFI (cfiCond50) V5 load(1, XDATA, add(CFA_XSP16, literal(-8)))
          CFI (cfiCond50) V6 load(1, XDATA, add(CFA_XSP16, literal(-7)))
          CFI (cfiCond50) R7 load(1, XDATA, add(CFA_XSP16, literal(-6)))
          CFI (cfiCond50) ?RET_LOW load(1, XDATA, add(CFA_XSP16, literal(-5)))
          CFI (cfiCond50) ?RET_HIGH load(1, XDATA, add(CFA_XSP16, literal(-4)))
          CFI (cfiCond50) ?BRET_EXT load(1, XDATA, add(CFA_XSP16, literal(-3)))
          CFI (cfiCond50) DPL0 load(1, XDATA, add(CFA_XSP16, literal(-2)))
          CFI (cfiCond50) DPH0 load(1, XDATA, add(CFA_XSP16, literal(-1)))
          CFI (cfiCond50) CFA_SP SP+-2
          CFI (cfiCond50) CFA_XSP16 add(XSP16, 45)
          CFI Block cfiPicker51 Using cfiCommon1
          CFI (cfiPicker51) NoFunction
          CFI (cfiPicker51) Picker
        MOVX    A,@DPTR
        MOV     R2,A
        MOV     R1,#0x2
        MOV     DPL,R4
        MOV     DPH,R5
        RET
          CFI (cfiCond49) CFA_SP SP+0
          CFI (cfiCond50) CFA_SP SP+0
          CFI (cfiPicker51) CFA_SP SP+0
          CFI EndBlock cfiCond49
          CFI EndBlock cfiCond50
          CFI EndBlock cfiPicker51

        RSEG BANKED_CODE:CODE:NOROOT(0)
?Subroutine20:
          CFI Block cfiCond52 Using cfiCommon0
          CFI Function afBuildMSGIncoming
          CFI Conditional ??CrossCallReturnLabel_58
          CFI R6 load(1, XDATA, add(CFA_XSP16, literal(-16)))
          CFI VB load(1, XDATA, add(CFA_XSP16, literal(-15)))
          CFI V0 load(1, XDATA, add(CFA_XSP16, literal(-14)))
          CFI V1 load(1, XDATA, add(CFA_XSP16, literal(-13)))
          CFI V2 load(1, XDATA, add(CFA_XSP16, literal(-12)))
          CFI V3 load(1, XDATA, add(CFA_XSP16, literal(-11)))
          CFI V4 load(1, XDATA, add(CFA_XSP16, literal(-10)))
          CFI V5 load(1, XDATA, add(CFA_XSP16, literal(-9)))
          CFI V6 load(1, XDATA, add(CFA_XSP16, literal(-8)))
          CFI V7 load(1, XDATA, add(CFA_XSP16, literal(-7)))
          CFI R7 load(1, XDATA, add(CFA_XSP16, literal(-6)))
          CFI ?RET_LOW load(1, XDATA, add(CFA_XSP16, literal(-5)))
          CFI ?RET_HIGH load(1, XDATA, add(CFA_XSP16, literal(-4)))
          CFI ?BRET_EXT load(1, XDATA, add(CFA_XSP16, literal(-3)))
          CFI DPL0 load(1, XDATA, add(CFA_XSP16, literal(-2)))
          CFI DPH0 load(1, XDATA, add(CFA_XSP16, literal(-1)))
          CFI CFA_SP SP+-2
          CFI CFA_XSP16 add(XSP16, 19)
          CFI Block cfiCond53 Using cfiCommon0
          CFI (cfiCond53) Function AF_DataRequest
          CFI (cfiCond53) Conditional ??CrossCallReturnLabel_59
          CFI (cfiCond53) R6 load(1, XDATA, add(CFA_XSP16, literal(-15)))
          CFI (cfiCond53) VB load(1, XDATA, add(CFA_XSP16, literal(-14)))
          CFI (cfiCond53) V0 load(1, XDATA, add(CFA_XSP16, literal(-13)))
          CFI (cfiCond53) V1 load(1, XDATA, add(CFA_XSP16, literal(-12)))
          CFI (cfiCond53) V2 load(1, XDATA, add(CFA_XSP16, literal(-11)))
          CFI (cfiCond53) V3 load(1, XDATA, add(CFA_XSP16, literal(-10)))
          CFI (cfiCond53) V4 load(1, XDATA, add(CFA_XSP16, literal(-9)))
          CFI (cfiCond53) V5 load(1, XDATA, add(CFA_XSP16, literal(-8)))
          CFI (cfiCond53) V6 load(1, XDATA, add(CFA_XSP16, literal(-7)))
          CFI (cfiCond53) R7 load(1, XDATA, add(CFA_XSP16, literal(-6)))
          CFI (cfiCond53) ?RET_LOW load(1, XDATA, add(CFA_XSP16, literal(-5)))
          CFI (cfiCond53) ?RET_HIGH load(1, XDATA, add(CFA_XSP16, literal(-4)))
          CFI (cfiCond53) ?BRET_EXT load(1, XDATA, add(CFA_XSP16, literal(-3)))
          CFI (cfiCond53) DPL0 load(1, XDATA, add(CFA_XSP16, literal(-2)))
          CFI (cfiCond53) DPH0 load(1, XDATA, add(CFA_XSP16, literal(-1)))
          CFI (cfiCond53) CFA_SP SP+-2
          CFI (cfiCond53) CFA_XSP16 add(XSP16, 45)
          CFI Block cfiPicker54 Using cfiCommon1
          CFI (cfiPicker54) NoFunction
          CFI (cfiPicker54) Picker
        INC     DPTR
          CFI EndBlock cfiCond52
          CFI EndBlock cfiCond53
          CFI EndBlock cfiPicker54
        REQUIRE ??Subroutine30_0
        ; // Fall through to label ??Subroutine30_0

        RSEG BANKED_CODE:CODE:NOROOT(0)
??Subroutine30_0:
          CFI Block cfiCond55 Using cfiCommon0
          CFI Function afBuildMSGIncoming
          CFI Conditional ??CrossCallReturnLabel_50
          CFI R6 load(1, XDATA, add(CFA_XSP16, literal(-16)))
          CFI VB load(1, XDATA, add(CFA_XSP16, literal(-15)))
          CFI V0 load(1, XDATA, add(CFA_XSP16, literal(-14)))
          CFI V1 load(1, XDATA, add(CFA_XSP16, literal(-13)))
          CFI V2 load(1, XDATA, add(CFA_XSP16, literal(-12)))
          CFI V3 load(1, XDATA, add(CFA_XSP16, literal(-11)))
          CFI V4 load(1, XDATA, add(CFA_XSP16, literal(-10)))
          CFI V5 load(1, XDATA, add(CFA_XSP16, literal(-9)))
          CFI V6 load(1, XDATA, add(CFA_XSP16, literal(-8)))
          CFI V7 load(1, XDATA, add(CFA_XSP16, literal(-7)))
          CFI R7 load(1, XDATA, add(CFA_XSP16, literal(-6)))
          CFI ?RET_LOW load(1, XDATA, add(CFA_XSP16, literal(-5)))
          CFI ?RET_HIGH load(1, XDATA, add(CFA_XSP16, literal(-4)))
          CFI ?BRET_EXT load(1, XDATA, add(CFA_XSP16, literal(-3)))
          CFI DPL0 load(1, XDATA, add(CFA_XSP16, literal(-2)))
          CFI DPH0 load(1, XDATA, add(CFA_XSP16, literal(-1)))
          CFI CFA_SP SP+-2
          CFI CFA_XSP16 add(XSP16, 19)
          CFI Block cfiCond56 Using cfiCommon0
          CFI (cfiCond56) Function afBuildMSGIncoming
          CFI (cfiCond56) Conditional ??CrossCallReturnLabel_51
          CFI (cfiCond56) R6 load(1, XDATA, add(CFA_XSP16, literal(-16)))
          CFI (cfiCond56) VB load(1, XDATA, add(CFA_XSP16, literal(-15)))
          CFI (cfiCond56) V0 load(1, XDATA, add(CFA_XSP16, literal(-14)))
          CFI (cfiCond56) V1 load(1, XDATA, add(CFA_XSP16, literal(-13)))
          CFI (cfiCond56) V2 load(1, XDATA, add(CFA_XSP16, literal(-12)))
          CFI (cfiCond56) V3 load(1, XDATA, add(CFA_XSP16, literal(-11)))
          CFI (cfiCond56) V4 load(1, XDATA, add(CFA_XSP16, literal(-10)))
          CFI (cfiCond56) V5 load(1, XDATA, add(CFA_XSP16, literal(-9)))
          CFI (cfiCond56) V6 load(1, XDATA, add(CFA_XSP16, literal(-8)))
          CFI (cfiCond56) V7 load(1, XDATA, add(CFA_XSP16, literal(-7)))
          CFI (cfiCond56) R7 load(1, XDATA, add(CFA_XSP16, literal(-6)))
          CFI (cfiCond56) ?RET_LOW load(1, XDATA, add(CFA_XSP16, literal(-5)))
          CFI (cfiCond56) ?RET_HIGH load(1, XDATA, add(CFA_XSP16, literal(-4)))
          CFI (cfiCond56) ?BRET_EXT load(1, XDATA, add(CFA_XSP16, literal(-3)))
          CFI (cfiCond56) DPL0 load(1, XDATA, add(CFA_XSP16, literal(-2)))
          CFI (cfiCond56) DPH0 load(1, XDATA, add(CFA_XSP16, literal(-1)))
          CFI (cfiCond56) CFA_SP SP+-2
          CFI (cfiCond56) CFA_XSP16 add(XSP16, 19)
          CFI Block cfiCond57 Using cfiCommon0
          CFI (cfiCond57) Function AF_DataRequest
          CFI (cfiCond57) Conditional ??CrossCallReturnLabel_52
          CFI (cfiCond57) R6 load(1, XDATA, add(CFA_XSP16, literal(-15)))
          CFI (cfiCond57) VB load(1, XDATA, add(CFA_XSP16, literal(-14)))
          CFI (cfiCond57) V0 load(1, XDATA, add(CFA_XSP16, literal(-13)))
          CFI (cfiCond57) V1 load(1, XDATA, add(CFA_XSP16, literal(-12)))
          CFI (cfiCond57) V2 load(1, XDATA, add(CFA_XSP16, literal(-11)))
          CFI (cfiCond57) V3 load(1, XDATA, add(CFA_XSP16, literal(-10)))
          CFI (cfiCond57) V4 load(1, XDATA, add(CFA_XSP16, literal(-9)))
          CFI (cfiCond57) V5 load(1, XDATA, add(CFA_XSP16, literal(-8)))
          CFI (cfiCond57) V6 load(1, XDATA, add(CFA_XSP16, literal(-7)))
          CFI (cfiCond57) R7 load(1, XDATA, add(CFA_XSP16, literal(-6)))
          CFI (cfiCond57) ?RET_LOW load(1, XDATA, add(CFA_XSP16, literal(-5)))
          CFI (cfiCond57) ?RET_HIGH load(1, XDATA, add(CFA_XSP16, literal(-4)))
          CFI (cfiCond57) ?BRET_EXT load(1, XDATA, add(CFA_XSP16, literal(-3)))
          CFI (cfiCond57) DPL0 load(1, XDATA, add(CFA_XSP16, literal(-2)))
          CFI (cfiCond57) DPH0 load(1, XDATA, add(CFA_XSP16, literal(-1)))
          CFI (cfiCond57) CFA_SP SP+-2
          CFI (cfiCond57) CFA_XSP16 add(XSP16, 45)
          CFI Block cfiCond58 Using cfiCommon0
          CFI (cfiCond58) Function AF_DataRequest
          CFI (cfiCond58) Conditional ??CrossCallReturnLabel_53
          CFI (cfiCond58) R6 load(1, XDATA, add(CFA_XSP16, literal(-15)))
          CFI (cfiCond58) VB load(1, XDATA, add(CFA_XSP16, literal(-14)))
          CFI (cfiCond58) V0 load(1, XDATA, add(CFA_XSP16, literal(-13)))
          CFI (cfiCond58) V1 load(1, XDATA, add(CFA_XSP16, literal(-12)))
          CFI (cfiCond58) V2 load(1, XDATA, add(CFA_XSP16, literal(-11)))
          CFI (cfiCond58) V3 load(1, XDATA, add(CFA_XSP16, literal(-10)))
          CFI (cfiCond58) V4 load(1, XDATA, add(CFA_XSP16, literal(-9)))
          CFI (cfiCond58) V5 load(1, XDATA, add(CFA_XSP16, literal(-8)))
          CFI (cfiCond58) V6 load(1, XDATA, add(CFA_XSP16, literal(-7)))
          CFI (cfiCond58) R7 load(1, XDATA, add(CFA_XSP16, literal(-6)))
          CFI (cfiCond58) ?RET_LOW load(1, XDATA, add(CFA_XSP16, literal(-5)))
          CFI (cfiCond58) ?RET_HIGH load(1, XDATA, add(CFA_XSP16, literal(-4)))
          CFI (cfiCond58) ?BRET_EXT load(1, XDATA, add(CFA_XSP16, literal(-3)))
          CFI (cfiCond58) DPL0 load(1, XDATA, add(CFA_XSP16, literal(-2)))
          CFI (cfiCond58) DPH0 load(1, XDATA, add(CFA_XSP16, literal(-1)))
          CFI (cfiCond58) CFA_SP SP+-2
          CFI (cfiCond58) CFA_XSP16 add(XSP16, 45)
          CFI Block cfiCond59 Using cfiCommon0
          CFI (cfiCond59) Function AF_DataRequest
          CFI (cfiCond59) Conditional ??CrossCallReturnLabel_54
          CFI (cfiCond59) R6 load(1, XDATA, add(CFA_XSP16, literal(-15)))
          CFI (cfiCond59) VB load(1, XDATA, add(CFA_XSP16, literal(-14)))
          CFI (cfiCond59) V0 load(1, XDATA, add(CFA_XSP16, literal(-13)))
          CFI (cfiCond59) V1 load(1, XDATA, add(CFA_XSP16, literal(-12)))
          CFI (cfiCond59) V2 load(1, XDATA, add(CFA_XSP16, literal(-11)))
          CFI (cfiCond59) V3 load(1, XDATA, add(CFA_XSP16, literal(-10)))
          CFI (cfiCond59) V4 load(1, XDATA, add(CFA_XSP16, literal(-9)))
          CFI (cfiCond59) V5 load(1, XDATA, add(CFA_XSP16, literal(-8)))
          CFI (cfiCond59) V6 load(1, XDATA, add(CFA_XSP16, literal(-7)))
          CFI (cfiCond59) R7 load(1, XDATA, add(CFA_XSP16, literal(-6)))
          CFI (cfiCond59) ?RET_LOW load(1, XDATA, add(CFA_XSP16, literal(-5)))
          CFI (cfiCond59) ?RET_HIGH load(1, XDATA, add(CFA_XSP16, literal(-4)))
          CFI (cfiCond59) ?BRET_EXT load(1, XDATA, add(CFA_XSP16, literal(-3)))
          CFI (cfiCond59) DPL0 load(1, XDATA, add(CFA_XSP16, literal(-2)))
          CFI (cfiCond59) DPH0 load(1, XDATA, add(CFA_XSP16, literal(-1)))
          CFI (cfiCond59) CFA_SP SP+-2
          CFI (cfiCond59) CFA_XSP16 add(XSP16, 45)
          CFI Block cfiCond60 Using cfiCommon0
          CFI (cfiCond60) Function AF_DataRequest
          CFI (cfiCond60) Conditional ??CrossCallReturnLabel_55
          CFI (cfiCond60) R6 load(1, XDATA, add(CFA_XSP16, literal(-15)))
          CFI (cfiCond60) VB load(1, XDATA, add(CFA_XSP16, literal(-14)))
          CFI (cfiCond60) V0 load(1, XDATA, add(CFA_XSP16, literal(-13)))
          CFI (cfiCond60) V1 load(1, XDATA, add(CFA_XSP16, literal(-12)))
          CFI (cfiCond60) V2 load(1, XDATA, add(CFA_XSP16, literal(-11)))
          CFI (cfiCond60) V3 load(1, XDATA, add(CFA_XSP16, literal(-10)))
          CFI (cfiCond60) V4 load(1, XDATA, add(CFA_XSP16, literal(-9)))
          CFI (cfiCond60) V5 load(1, XDATA, add(CFA_XSP16, literal(-8)))
          CFI (cfiCond60) V6 load(1, XDATA, add(CFA_XSP16, literal(-7)))
          CFI (cfiCond60) R7 load(1, XDATA, add(CFA_XSP16, literal(-6)))
          CFI (cfiCond60) ?RET_LOW load(1, XDATA, add(CFA_XSP16, literal(-5)))
          CFI (cfiCond60) ?RET_HIGH load(1, XDATA, add(CFA_XSP16, literal(-4)))
          CFI (cfiCond60) ?BRET_EXT load(1, XDATA, add(CFA_XSP16, literal(-3)))
          CFI (cfiCond60) DPL0 load(1, XDATA, add(CFA_XSP16, literal(-2)))
          CFI (cfiCond60) DPH0 load(1, XDATA, add(CFA_XSP16, literal(-1)))
          CFI (cfiCond60) CFA_SP SP+-2
          CFI (cfiCond60) CFA_XSP16 add(XSP16, 45)
          CFI Block cfiCond61 Using cfiCommon0
          CFI (cfiCond61) Function AF_DataRequest
          CFI (cfiCond61) Conditional ??CrossCallReturnLabel_56
          CFI (cfiCond61) R6 load(1, XDATA, add(CFA_XSP16, literal(-15)))
          CFI (cfiCond61) VB load(1, XDATA, add(CFA_XSP16, literal(-14)))
          CFI (cfiCond61) V0 load(1, XDATA, add(CFA_XSP16, literal(-13)))
          CFI (cfiCond61) V1 load(1, XDATA, add(CFA_XSP16, literal(-12)))
          CFI (cfiCond61) V2 load(1, XDATA, add(CFA_XSP16, literal(-11)))
          CFI (cfiCond61) V3 load(1, XDATA, add(CFA_XSP16, literal(-10)))
          CFI (cfiCond61) V4 load(1, XDATA, add(CFA_XSP16, literal(-9)))
          CFI (cfiCond61) V5 load(1, XDATA, add(CFA_XSP16, literal(-8)))
          CFI (cfiCond61) V6 load(1, XDATA, add(CFA_XSP16, literal(-7)))
          CFI (cfiCond61) R7 load(1, XDATA, add(CFA_XSP16, literal(-6)))
          CFI (cfiCond61) ?RET_LOW load(1, XDATA, add(CFA_XSP16, literal(-5)))
          CFI (cfiCond61) ?RET_HIGH load(1, XDATA, add(CFA_XSP16, literal(-4)))
          CFI (cfiCond61) ?BRET_EXT load(1, XDATA, add(CFA_XSP16, literal(-3)))
          CFI (cfiCond61) DPL0 load(1, XDATA, add(CFA_XSP16, literal(-2)))
          CFI (cfiCond61) DPH0 load(1, XDATA, add(CFA_XSP16, literal(-1)))
          CFI (cfiCond61) CFA_SP SP+-2
          CFI (cfiCond61) CFA_XSP16 add(XSP16, 45)
          CFI Block cfiCond62 Using cfiCommon0
          CFI (cfiCond62) Function afCopyAddress
          CFI (cfiCond62) Conditional ??CrossCallReturnLabel_57
          CFI (cfiCond62) R6 load(1, XDATA, add(CFA_XSP16, literal(-9)))
          CFI (cfiCond62) VB load(1, XDATA, add(CFA_XSP16, literal(-8)))
          CFI (cfiCond62) V0 load(1, XDATA, add(CFA_XSP16, literal(-7)))
          CFI (cfiCond62) R7 load(1, XDATA, add(CFA_XSP16, literal(-6)))
          CFI (cfiCond62) ?RET_LOW load(1, XDATA, add(CFA_XSP16, literal(-5)))
          CFI (cfiCond62) ?RET_HIGH load(1, XDATA, add(CFA_XSP16, literal(-4)))
          CFI (cfiCond62) ?BRET_EXT load(1, XDATA, add(CFA_XSP16, literal(-3)))
          CFI (cfiCond62) DPL0 load(1, XDATA, add(CFA_XSP16, literal(-2)))
          CFI (cfiCond62) DPH0 load(1, XDATA, add(CFA_XSP16, literal(-1)))
          CFI (cfiCond62) CFA_SP SP+-2
          CFI (cfiCond62) CFA_XSP16 add(XSP16, 9)
          CFI Block cfiCond63 Using cfiCommon0
          CFI (cfiCond63) Function afBuildMSGIncoming
          CFI (cfiCond63) Conditional ??CrossCallReturnLabel_58
          CFI (cfiCond63) R6 load(1, XDATA, add(CFA_XSP16, literal(-16)))
          CFI (cfiCond63) VB load(1, XDATA, add(CFA_XSP16, literal(-15)))
          CFI (cfiCond63) V0 load(1, XDATA, add(CFA_XSP16, literal(-14)))
          CFI (cfiCond63) V1 load(1, XDATA, add(CFA_XSP16, literal(-13)))
          CFI (cfiCond63) V2 load(1, XDATA, add(CFA_XSP16, literal(-12)))
          CFI (cfiCond63) V3 load(1, XDATA, add(CFA_XSP16, literal(-11)))
          CFI (cfiCond63) V4 load(1, XDATA, add(CFA_XSP16, literal(-10)))
          CFI (cfiCond63) V5 load(1, XDATA, add(CFA_XSP16, literal(-9)))
          CFI (cfiCond63) V6 load(1, XDATA, add(CFA_XSP16, literal(-8)))
          CFI (cfiCond63) V7 load(1, XDATA, add(CFA_XSP16, literal(-7)))
          CFI (cfiCond63) R7 load(1, XDATA, add(CFA_XSP16, literal(-6)))
          CFI (cfiCond63) ?RET_LOW load(1, XDATA, add(CFA_XSP16, literal(-5)))
          CFI (cfiCond63) ?RET_HIGH load(1, XDATA, add(CFA_XSP16, literal(-4)))
          CFI (cfiCond63) ?BRET_EXT load(1, XDATA, add(CFA_XSP16, literal(-3)))
          CFI (cfiCond63) DPL0 load(1, XDATA, add(CFA_XSP16, literal(-2)))
          CFI (cfiCond63) DPH0 load(1, XDATA, add(CFA_XSP16, literal(-1)))
          CFI (cfiCond63) CFA_SP SP+-2
          CFI (cfiCond63) CFA_XSP16 add(XSP16, 19)
          CFI Block cfiCond64 Using cfiCommon0
          CFI (cfiCond64) Function AF_DataRequest
          CFI (cfiCond64) Conditional ??CrossCallReturnLabel_59
          CFI (cfiCond64) R6 load(1, XDATA, add(CFA_XSP16, literal(-15)))
          CFI (cfiCond64) VB load(1, XDATA, add(CFA_XSP16, literal(-14)))
          CFI (cfiCond64) V0 load(1, XDATA, add(CFA_XSP16, literal(-13)))
          CFI (cfiCond64) V1 load(1, XDATA, add(CFA_XSP16, literal(-12)))
          CFI (cfiCond64) V2 load(1, XDATA, add(CFA_XSP16, literal(-11)))
          CFI (cfiCond64) V3 load(1, XDATA, add(CFA_XSP16, literal(-10)))
          CFI (cfiCond64) V4 load(1, XDATA, add(CFA_XSP16, literal(-9)))
          CFI (cfiCond64) V5 load(1, XDATA, add(CFA_XSP16, literal(-8)))
          CFI (cfiCond64) V6 load(1, XDATA, add(CFA_XSP16, literal(-7)))
          CFI (cfiCond64) R7 load(1, XDATA, add(CFA_XSP16, literal(-6)))
          CFI (cfiCond64) ?RET_LOW load(1, XDATA, add(CFA_XSP16, literal(-5)))
          CFI (cfiCond64) ?RET_HIGH load(1, XDATA, add(CFA_XSP16, literal(-4)))
          CFI (cfiCond64) ?BRET_EXT load(1, XDATA, add(CFA_XSP16, literal(-3)))
          CFI (cfiCond64) DPL0 load(1, XDATA, add(CFA_XSP16, literal(-2)))
          CFI (cfiCond64) DPH0 load(1, XDATA, add(CFA_XSP16, literal(-1)))
          CFI (cfiCond64) CFA_SP SP+-2
          CFI (cfiCond64) CFA_XSP16 add(XSP16, 45)
          CFI Block cfiPicker65 Using cfiCommon1
          CFI (cfiPicker65) NoFunction
          CFI (cfiPicker65) Picker
        LCALL   ?Subroutine25 & 0xFFFF
??CrossCallReturnLabel_65:
        RET
          CFI (cfiCond55) CFA_SP SP+0
          CFI (cfiCond56) CFA_SP SP+0
          CFI (cfiCond57) CFA_SP SP+0
          CFI (cfiCond58) CFA_SP SP+0
          CFI (cfiCond59) CFA_SP SP+0
          CFI (cfiCond60) CFA_SP SP+0
          CFI (cfiCond61) CFA_SP SP+0
          CFI (cfiCond62) CFA_SP SP+0
          CFI (cfiCond63) CFA_SP SP+0
          CFI (cfiCond64) CFA_SP SP+0
          CFI (cfiPicker65) CFA_SP SP+0
          CFI EndBlock cfiCond55
          CFI EndBlock cfiCond56
          CFI EndBlock cfiCond57
          CFI EndBlock cfiCond58
          CFI EndBlock cfiCond59
          CFI EndBlock cfiCond60
          CFI EndBlock cfiCond61
          CFI EndBlock cfiCond62
          CFI EndBlock cfiCond63
          CFI EndBlock cfiCond64
          CFI EndBlock cfiPicker65

        RSEG BANKED_CODE:CODE:NOROOT(0)
?Subroutine10:
          CFI Block cfiCond66 Using cfiCommon0
          CFI Function afIncomingData
          CFI Conditional ??CrossCallReturnLabel_8
          CFI R6 load(1, XDATA, add(CFA_XSP16, literal(-16)))
          CFI VB load(1, XDATA, add(CFA_XSP16, literal(-15)))
          CFI V0 load(1, XDATA, add(CFA_XSP16, literal(-14)))
          CFI V1 load(1, XDATA, add(CFA_XSP16, literal(-13)))
          CFI V2 load(1, XDATA, add(CFA_XSP16, literal(-12)))
          CFI V3 load(1, XDATA, add(CFA_XSP16, literal(-11)))
          CFI V4 load(1, XDATA, add(CFA_XSP16, literal(-10)))
          CFI V5 load(1, XDATA, add(CFA_XSP16, literal(-9)))
          CFI V6 load(1, XDATA, add(CFA_XSP16, literal(-8)))
          CFI V7 load(1, XDATA, add(CFA_XSP16, literal(-7)))
          CFI R7 load(1, XDATA, add(CFA_XSP16, literal(-6)))
          CFI ?RET_LOW load(1, XDATA, add(CFA_XSP16, literal(-5)))
          CFI ?RET_HIGH load(1, XDATA, add(CFA_XSP16, literal(-4)))
          CFI ?BRET_EXT load(1, XDATA, add(CFA_XSP16, literal(-3)))
          CFI DPL0 load(1, XDATA, add(CFA_XSP16, literal(-2)))
          CFI DPH0 load(1, XDATA, add(CFA_XSP16, literal(-1)))
          CFI CFA_SP SP+-2
          CFI CFA_XSP16 add(XSP16, 28)
          CFI Block cfiCond67 Using cfiCommon0
          CFI (cfiCond67) Function AF_DataRequest
          CFI (cfiCond67) Conditional ??CrossCallReturnLabel_9
          CFI (cfiCond67) R6 load(1, XDATA, add(CFA_XSP16, literal(-15)))
          CFI (cfiCond67) VB load(1, XDATA, add(CFA_XSP16, literal(-14)))
          CFI (cfiCond67) V0 load(1, XDATA, add(CFA_XSP16, literal(-13)))
          CFI (cfiCond67) V1 load(1, XDATA, add(CFA_XSP16, literal(-12)))
          CFI (cfiCond67) V2 load(1, XDATA, add(CFA_XSP16, literal(-11)))
          CFI (cfiCond67) V3 load(1, XDATA, add(CFA_XSP16, literal(-10)))
          CFI (cfiCond67) V4 load(1, XDATA, add(CFA_XSP16, literal(-9)))
          CFI (cfiCond67) V5 load(1, XDATA, add(CFA_XSP16, literal(-8)))
          CFI (cfiCond67) V6 load(1, XDATA, add(CFA_XSP16, literal(-7)))
          CFI (cfiCond67) R7 load(1, XDATA, add(CFA_XSP16, literal(-6)))
          CFI (cfiCond67) ?RET_LOW load(1, XDATA, add(CFA_XSP16, literal(-5)))
          CFI (cfiCond67) ?RET_HIGH load(1, XDATA, add(CFA_XSP16, literal(-4)))
          CFI (cfiCond67) ?BRET_EXT load(1, XDATA, add(CFA_XSP16, literal(-3)))
          CFI (cfiCond67) DPL0 load(1, XDATA, add(CFA_XSP16, literal(-2)))
          CFI (cfiCond67) DPH0 load(1, XDATA, add(CFA_XSP16, literal(-1)))
          CFI (cfiCond67) CFA_SP SP+-2
          CFI (cfiCond67) CFA_XSP16 add(XSP16, 45)
          CFI Block cfiCond68 Using cfiCommon0
          CFI (cfiCond68) Function afFindSimpleDesc
          CFI (cfiCond68) Conditional ??CrossCallReturnLabel_10
          CFI (cfiCond68) R6 load(1, XDATA, add(CFA_XSP16, literal(-12)))
          CFI (cfiCond68) VB load(1, XDATA, add(CFA_XSP16, literal(-11)))
          CFI (cfiCond68) V0 load(1, XDATA, add(CFA_XSP16, literal(-10)))
          CFI (cfiCond68) V1 load(1, XDATA, add(CFA_XSP16, literal(-9)))
          CFI (cfiCond68) V2 load(1, XDATA, add(CFA_XSP16, literal(-8)))
          CFI (cfiCond68) V3 load(1, XDATA, add(CFA_XSP16, literal(-7)))
          CFI (cfiCond68) R7 load(1, XDATA, add(CFA_XSP16, literal(-6)))
          CFI (cfiCond68) ?RET_LOW load(1, XDATA, add(CFA_XSP16, literal(-5)))
          CFI (cfiCond68) ?RET_HIGH load(1, XDATA, add(CFA_XSP16, literal(-4)))
          CFI (cfiCond68) ?BRET_EXT load(1, XDATA, add(CFA_XSP16, literal(-3)))
          CFI (cfiCond68) DPL0 load(1, XDATA, add(CFA_XSP16, literal(-2)))
          CFI (cfiCond68) DPH0 load(1, XDATA, add(CFA_XSP16, literal(-1)))
          CFI (cfiCond68) CFA_SP SP+-2
          CFI (cfiCond68) CFA_XSP16 add(XSP16, 12)
          CFI Block cfiPicker69 Using cfiCommon1
          CFI (cfiPicker69) NoFunction
          CFI (cfiPicker69) Picker
        INC     DPTR
        INC     DPTR
        INC     DPTR
        LCALL   ?Subroutine24 & 0xFFFF
??CrossCallReturnLabel_31:
        MOV     A,DPL
        ORL     A,DPH
        RET
          CFI (cfiCond66) CFA_SP SP+0
          CFI (cfiCond67) CFA_SP SP+0
          CFI (cfiCond68) CFA_SP SP+0
          CFI (cfiPicker69) CFA_SP SP+0
          CFI EndBlock cfiCond66
          CFI EndBlock cfiCond67
          CFI EndBlock cfiCond68
          CFI EndBlock cfiPicker69

        RSEG BANKED_CODE:CODE:NOROOT(0)
?Subroutine9:
          CFI Block cfiCond70 Using cfiCommon0
          CFI Function afRegisterExtended
          CFI Conditional ??CrossCallReturnLabel_4
          CFI R6 load(1, XDATA, add(CFA_XSP16, literal(-12)))
          CFI VB load(1, XDATA, add(CFA_XSP16, literal(-11)))
          CFI V0 load(1, XDATA, add(CFA_XSP16, literal(-10)))
          CFI V1 load(1, XDATA, add(CFA_XSP16, literal(-9)))
          CFI V2 load(1, XDATA, add(CFA_XSP16, literal(-8)))
          CFI V3 load(1, XDATA, add(CFA_XSP16, literal(-7)))
          CFI R7 load(1, XDATA, add(CFA_XSP16, literal(-6)))
          CFI ?RET_LOW load(1, XDATA, add(CFA_XSP16, literal(-5)))
          CFI ?RET_HIGH load(1, XDATA, add(CFA_XSP16, literal(-4)))
          CFI ?BRET_EXT load(1, XDATA, add(CFA_XSP16, literal(-3)))
          CFI DPL0 load(1, XDATA, add(CFA_XSP16, literal(-2)))
          CFI DPH0 load(1, XDATA, add(CFA_XSP16, literal(-1)))
          CFI CFA_SP SP+-2
          CFI CFA_XSP16 add(XSP16, 12)
          CFI Block cfiCond71 Using cfiCommon0
          CFI (cfiCond71) Function afRegisterExtended
          CFI (cfiCond71) Conditional ??CrossCallReturnLabel_5
          CFI (cfiCond71) R6 load(1, XDATA, add(CFA_XSP16, literal(-12)))
          CFI (cfiCond71) VB load(1, XDATA, add(CFA_XSP16, literal(-11)))
          CFI (cfiCond71) V0 load(1, XDATA, add(CFA_XSP16, literal(-10)))
          CFI (cfiCond71) V1 load(1, XDATA, add(CFA_XSP16, literal(-9)))
          CFI (cfiCond71) V2 load(1, XDATA, add(CFA_XSP16, literal(-8)))
          CFI (cfiCond71) V3 load(1, XDATA, add(CFA_XSP16, literal(-7)))
          CFI (cfiCond71) R7 load(1, XDATA, add(CFA_XSP16, literal(-6)))
          CFI (cfiCond71) ?RET_LOW load(1, XDATA, add(CFA_XSP16, literal(-5)))
          CFI (cfiCond71) ?RET_HIGH load(1, XDATA, add(CFA_XSP16, literal(-4)))
          CFI (cfiCond71) ?BRET_EXT load(1, XDATA, add(CFA_XSP16, literal(-3)))
          CFI (cfiCond71) DPL0 load(1, XDATA, add(CFA_XSP16, literal(-2)))
          CFI (cfiCond71) DPH0 load(1, XDATA, add(CFA_XSP16, literal(-1)))
          CFI (cfiCond71) CFA_SP SP+-2
          CFI (cfiCond71) CFA_XSP16 add(XSP16, 12)
          CFI Block cfiCond72 Using cfiCommon0
          CFI (cfiCond72) Function afIncomingData
          CFI (cfiCond72) Conditional ??CrossCallReturnLabel_6
          CFI (cfiCond72) R6 load(1, XDATA, add(CFA_XSP16, literal(-16)))
          CFI (cfiCond72) VB load(1, XDATA, add(CFA_XSP16, literal(-15)))
          CFI (cfiCond72) V0 load(1, XDATA, add(CFA_XSP16, literal(-14)))
          CFI (cfiCond72) V1 load(1, XDATA, add(CFA_XSP16, literal(-13)))
          CFI (cfiCond72) V2 load(1, XDATA, add(CFA_XSP16, literal(-12)))
          CFI (cfiCond72) V3 load(1, XDATA, add(CFA_XSP16, literal(-11)))
          CFI (cfiCond72) V4 load(1, XDATA, add(CFA_XSP16, literal(-10)))
          CFI (cfiCond72) V5 load(1, XDATA, add(CFA_XSP16, literal(-9)))
          CFI (cfiCond72) V6 load(1, XDATA, add(CFA_XSP16, literal(-8)))
          CFI (cfiCond72) V7 load(1, XDATA, add(CFA_XSP16, literal(-7)))
          CFI (cfiCond72) R7 load(1, XDATA, add(CFA_XSP16, literal(-6)))
          CFI (cfiCond72) ?RET_LOW load(1, XDATA, add(CFA_XSP16, literal(-5)))
          CFI (cfiCond72) ?RET_HIGH load(1, XDATA, add(CFA_XSP16, literal(-4)))
          CFI (cfiCond72) ?BRET_EXT load(1, XDATA, add(CFA_XSP16, literal(-3)))
          CFI (cfiCond72) DPL0 load(1, XDATA, add(CFA_XSP16, literal(-2)))
          CFI (cfiCond72) DPH0 load(1, XDATA, add(CFA_XSP16, literal(-1)))
          CFI (cfiCond72) CFA_SP SP+-2
          CFI (cfiCond72) CFA_XSP16 add(XSP16, 28)
          CFI Block cfiCond73 Using cfiCommon0
          CFI (cfiCond73) Function AF_DataRequest
          CFI (cfiCond73) Conditional ??CrossCallReturnLabel_2
          CFI (cfiCond73) R6 load(1, XDATA, add(CFA_XSP16, literal(-15)))
          CFI (cfiCond73) VB load(1, XDATA, add(CFA_XSP16, literal(-14)))
          CFI (cfiCond73) V0 load(1, XDATA, add(CFA_XSP16, literal(-13)))
          CFI (cfiCond73) V1 load(1, XDATA, add(CFA_XSP16, literal(-12)))
          CFI (cfiCond73) V2 load(1, XDATA, add(CFA_XSP16, literal(-11)))
          CFI (cfiCond73) V3 load(1, XDATA, add(CFA_XSP16, literal(-10)))
          CFI (cfiCond73) V4 load(1, XDATA, add(CFA_XSP16, literal(-9)))
          CFI (cfiCond73) V5 load(1, XDATA, add(CFA_XSP16, literal(-8)))
          CFI (cfiCond73) V6 load(1, XDATA, add(CFA_XSP16, literal(-7)))
          CFI (cfiCond73) R7 load(1, XDATA, add(CFA_XSP16, literal(-6)))
          CFI (cfiCond73) ?RET_LOW load(1, XDATA, add(CFA_XSP16, literal(-5)))
          CFI (cfiCond73) ?RET_HIGH load(1, XDATA, add(CFA_XSP16, literal(-4)))
          CFI (cfiCond73) ?BRET_EXT load(1, XDATA, add(CFA_XSP16, literal(-3)))
          CFI (cfiCond73) DPL0 load(1, XDATA, add(CFA_XSP16, literal(-2)))
          CFI (cfiCond73) DPH0 load(1, XDATA, add(CFA_XSP16, literal(-1)))
          CFI (cfiCond73) CFA_SP SP+-2
          CFI (cfiCond73) CFA_XSP16 add(XSP16, 45)
          CFI Block cfiCond74 Using cfiCommon0
          CFI (cfiCond74) Function AF_DataRequest
          CFI (cfiCond74) Conditional ??CrossCallReturnLabel_7
          CFI (cfiCond74) R6 load(1, XDATA, add(CFA_XSP16, literal(-15)))
          CFI (cfiCond74) VB load(1, XDATA, add(CFA_XSP16, literal(-14)))
          CFI (cfiCond74) V0 load(1, XDATA, add(CFA_XSP16, literal(-13)))
          CFI (cfiCond74) V1 load(1, XDATA, add(CFA_XSP16, literal(-12)))
          CFI (cfiCond74) V2 load(1, XDATA, add(CFA_XSP16, literal(-11)))
          CFI (cfiCond74) V3 load(1, XDATA, add(CFA_XSP16, literal(-10)))
          CFI (cfiCond74) V4 load(1, XDATA, add(CFA_XSP16, literal(-9)))
          CFI (cfiCond74) V5 load(1, XDATA, add(CFA_XSP16, literal(-8)))
          CFI (cfiCond74) V6 load(1, XDATA, add(CFA_XSP16, literal(-7)))
          CFI (cfiCond74) R7 load(1, XDATA, add(CFA_XSP16, literal(-6)))
          CFI (cfiCond74) ?RET_LOW load(1, XDATA, add(CFA_XSP16, literal(-5)))
          CFI (cfiCond74) ?RET_HIGH load(1, XDATA, add(CFA_XSP16, literal(-4)))
          CFI (cfiCond74) ?BRET_EXT load(1, XDATA, add(CFA_XSP16, literal(-3)))
          CFI (cfiCond74) DPL0 load(1, XDATA, add(CFA_XSP16, literal(-2)))
          CFI (cfiCond74) DPH0 load(1, XDATA, add(CFA_XSP16, literal(-1)))
          CFI (cfiCond74) CFA_SP SP+-2
          CFI (cfiCond74) CFA_XSP16 add(XSP16, 45)
          CFI Block cfiCond75 Using cfiCommon0
          CFI (cfiCond75) Function afEndPoints
          CFI (cfiCond75) Conditional ??CrossCallReturnLabel_3
          CFI (cfiCond75) DPL0 Frame(CFA_SP, 4)
          CFI (cfiCond75) DPH0 Frame(CFA_SP, 5)
          CFI (cfiCond75) CFA_SP SP+-7
          CFI Block cfiPicker76 Using cfiCommon1
          CFI (cfiPicker76) NoFunction
          CFI (cfiPicker76) Picker
        LCALL   ?Subroutine25 & 0xFFFF
??CrossCallReturnLabel_61:
        MOV     A,R0
        ORL     A,R1
        RET
          CFI (cfiCond70) CFA_SP SP+0
          CFI (cfiCond71) CFA_SP SP+0
          CFI (cfiCond72) CFA_SP SP+0
          CFI (cfiCond73) CFA_SP SP+0
          CFI (cfiCond74) CFA_SP SP+0
          CFI (cfiCond75) CFA_SP SP+-5
          CFI (cfiPicker76) CFA_SP SP+0
          CFI EndBlock cfiCond70
          CFI EndBlock cfiCond71
          CFI EndBlock cfiCond72
          CFI EndBlock cfiCond73
          CFI EndBlock cfiCond74
          CFI EndBlock cfiCond75
          CFI EndBlock cfiPicker76

        RSEG BANKED_CODE:CODE:NOROOT(0)
?Subroutine5:
          CFI Block cfiCond77 Using cfiCommon0
          CFI Function afIncomingData
          CFI Conditional ??CrossCallReturnLabel_81
          CFI R6 load(1, XDATA, add(CFA_XSP16, literal(-16)))
          CFI VB load(1, XDATA, add(CFA_XSP16, literal(-15)))
          CFI V0 load(1, XDATA, add(CFA_XSP16, literal(-14)))
          CFI V1 load(1, XDATA, add(CFA_XSP16, literal(-13)))
          CFI V2 load(1, XDATA, add(CFA_XSP16, literal(-12)))
          CFI V3 load(1, XDATA, add(CFA_XSP16, literal(-11)))
          CFI V4 load(1, XDATA, add(CFA_XSP16, literal(-10)))
          CFI V5 load(1, XDATA, add(CFA_XSP16, literal(-9)))
          CFI V6 load(1, XDATA, add(CFA_XSP16, literal(-8)))
          CFI V7 load(1, XDATA, add(CFA_XSP16, literal(-7)))
          CFI R7 load(1, XDATA, add(CFA_XSP16, literal(-6)))
          CFI ?RET_LOW load(1, XDATA, add(CFA_XSP16, literal(-5)))
          CFI ?RET_HIGH load(1, XDATA, add(CFA_XSP16, literal(-4)))
          CFI ?BRET_EXT load(1, XDATA, add(CFA_XSP16, literal(-3)))
          CFI DPL0 load(1, XDATA, add(CFA_XSP16, literal(-2)))
          CFI DPH0 load(1, XDATA, add(CFA_XSP16, literal(-1)))
          CFI CFA_SP SP+-2
          CFI CFA_XSP16 add(XSP16, 28)
          CFI Block cfiCond78 Using cfiCommon0
          CFI (cfiCond78) Function afIncomingData
          CFI (cfiCond78) Conditional ??CrossCallReturnLabel_82
          CFI (cfiCond78) R6 load(1, XDATA, add(CFA_XSP16, literal(-16)))
          CFI (cfiCond78) VB load(1, XDATA, add(CFA_XSP16, literal(-15)))
          CFI (cfiCond78) V0 load(1, XDATA, add(CFA_XSP16, literal(-14)))
          CFI (cfiCond78) V1 load(1, XDATA, add(CFA_XSP16, literal(-13)))
          CFI (cfiCond78) V2 load(1, XDATA, add(CFA_XSP16, literal(-12)))
          CFI (cfiCond78) V3 load(1, XDATA, add(CFA_XSP16, literal(-11)))
          CFI (cfiCond78) V4 load(1, XDATA, add(CFA_XSP16, literal(-10)))
          CFI (cfiCond78) V5 load(1, XDATA, add(CFA_XSP16, literal(-9)))
          CFI (cfiCond78) V6 load(1, XDATA, add(CFA_XSP16, literal(-8)))
          CFI (cfiCond78) V7 load(1, XDATA, add(CFA_XSP16, literal(-7)))
          CFI (cfiCond78) R7 load(1, XDATA, add(CFA_XSP16, literal(-6)))
          CFI (cfiCond78) ?RET_LOW load(1, XDATA, add(CFA_XSP16, literal(-5)))
          CFI (cfiCond78) ?RET_HIGH load(1, XDATA, add(CFA_XSP16, literal(-4)))
          CFI (cfiCond78) ?BRET_EXT load(1, XDATA, add(CFA_XSP16, literal(-3)))
          CFI (cfiCond78) DPL0 load(1, XDATA, add(CFA_XSP16, literal(-2)))
          CFI (cfiCond78) DPH0 load(1, XDATA, add(CFA_XSP16, literal(-1)))
          CFI (cfiCond78) CFA_SP SP+-2
          CFI (cfiCond78) CFA_XSP16 add(XSP16, 28)
          CFI Block cfiPicker79 Using cfiCommon1
          CFI (cfiPicker79) NoFunction
          CFI (cfiPicker79) Picker
        LCALL   ?Subroutine25 & 0xFFFF
??CrossCallReturnLabel_60:
        MOV     DPL,?XSP + 0
        MOV     DPH,?XSP + 1
          CFI EndBlock cfiCond77
          CFI EndBlock cfiCond78
          CFI EndBlock cfiPicker79
        REQUIRE ??Subroutine31_0
        ; // Fall through to label ??Subroutine31_0

        RSEG BANKED_CODE:CODE:NOROOT(0)
??Subroutine31_0:
          CFI Block cfiCond80 Using cfiCommon0
          CFI Function afIncomingData
          CFI Conditional ??CrossCallReturnLabel_66
          CFI R6 load(1, XDATA, add(CFA_XSP16, literal(-16)))
          CFI VB load(1, XDATA, add(CFA_XSP16, literal(-15)))
          CFI V0 load(1, XDATA, add(CFA_XSP16, literal(-14)))
          CFI V1 load(1, XDATA, add(CFA_XSP16, literal(-13)))
          CFI V2 load(1, XDATA, add(CFA_XSP16, literal(-12)))
          CFI V3 load(1, XDATA, add(CFA_XSP16, literal(-11)))
          CFI V4 load(1, XDATA, add(CFA_XSP16, literal(-10)))
          CFI V5 load(1, XDATA, add(CFA_XSP16, literal(-9)))
          CFI V6 load(1, XDATA, add(CFA_XSP16, literal(-8)))
          CFI V7 load(1, XDATA, add(CFA_XSP16, literal(-7)))
          CFI R7 load(1, XDATA, add(CFA_XSP16, literal(-6)))
          CFI ?RET_LOW load(1, XDATA, add(CFA_XSP16, literal(-5)))
          CFI ?RET_HIGH load(1, XDATA, add(CFA_XSP16, literal(-4)))
          CFI ?BRET_EXT load(1, XDATA, add(CFA_XSP16, literal(-3)))
          CFI DPL0 load(1, XDATA, add(CFA_XSP16, literal(-2)))
          CFI DPH0 load(1, XDATA, add(CFA_XSP16, literal(-1)))
          CFI CFA_SP SP+-2
          CFI CFA_XSP16 add(XSP16, 28)
          CFI Block cfiCond81 Using cfiCommon0
          CFI (cfiCond81) Function afIncomingData
          CFI (cfiCond81) Conditional ??CrossCallReturnLabel_67
          CFI (cfiCond81) R6 load(1, XDATA, add(CFA_XSP16, literal(-16)))
          CFI (cfiCond81) VB load(1, XDATA, add(CFA_XSP16, literal(-15)))
          CFI (cfiCond81) V0 load(1, XDATA, add(CFA_XSP16, literal(-14)))
          CFI (cfiCond81) V1 load(1, XDATA, add(CFA_XSP16, literal(-13)))
          CFI (cfiCond81) V2 load(1, XDATA, add(CFA_XSP16, literal(-12)))
          CFI (cfiCond81) V3 load(1, XDATA, add(CFA_XSP16, literal(-11)))
          CFI (cfiCond81) V4 load(1, XDATA, add(CFA_XSP16, literal(-10)))
          CFI (cfiCond81) V5 load(1, XDATA, add(CFA_XSP16, literal(-9)))
          CFI (cfiCond81) V6 load(1, XDATA, add(CFA_XSP16, literal(-8)))
          CFI (cfiCond81) V7 load(1, XDATA, add(CFA_XSP16, literal(-7)))
          CFI (cfiCond81) R7 load(1, XDATA, add(CFA_XSP16, literal(-6)))
          CFI (cfiCond81) ?RET_LOW load(1, XDATA, add(CFA_XSP16, literal(-5)))
          CFI (cfiCond81) ?RET_HIGH load(1, XDATA, add(CFA_XSP16, literal(-4)))
          CFI (cfiCond81) ?BRET_EXT load(1, XDATA, add(CFA_XSP16, literal(-3)))
          CFI (cfiCond81) DPL0 load(1, XDATA, add(CFA_XSP16, literal(-2)))
          CFI (cfiCond81) DPH0 load(1, XDATA, add(CFA_XSP16, literal(-1)))
          CFI (cfiCond81) CFA_SP SP+-2
          CFI (cfiCond81) CFA_XSP16 add(XSP16, 28)
          CFI Block cfiCond82 Using cfiCommon0
          CFI (cfiCond82) Function afIncomingData
          CFI (cfiCond82) Conditional ??CrossCallReturnLabel_68
          CFI (cfiCond82) R6 load(1, XDATA, add(CFA_XSP16, literal(-16)))
          CFI (cfiCond82) VB load(1, XDATA, add(CFA_XSP16, literal(-15)))
          CFI (cfiCond82) V0 load(1, XDATA, add(CFA_XSP16, literal(-14)))
          CFI (cfiCond82) V1 load(1, XDATA, add(CFA_XSP16, literal(-13)))
          CFI (cfiCond82) V2 load(1, XDATA, add(CFA_XSP16, literal(-12)))
          CFI (cfiCond82) V3 load(1, XDATA, add(CFA_XSP16, literal(-11)))
          CFI (cfiCond82) V4 load(1, XDATA, add(CFA_XSP16, literal(-10)))
          CFI (cfiCond82) V5 load(1, XDATA, add(CFA_XSP16, literal(-9)))
          CFI (cfiCond82) V6 load(1, XDATA, add(CFA_XSP16, literal(-8)))
          CFI (cfiCond82) V7 load(1, XDATA, add(CFA_XSP16, literal(-7)))
          CFI (cfiCond82) R7 load(1, XDATA, add(CFA_XSP16, literal(-6)))
          CFI (cfiCond82) ?RET_LOW load(1, XDATA, add(CFA_XSP16, literal(-5)))
          CFI (cfiCond82) ?RET_HIGH load(1, XDATA, add(CFA_XSP16, literal(-4)))
          CFI (cfiCond82) ?BRET_EXT load(1, XDATA, add(CFA_XSP16, literal(-3)))
          CFI (cfiCond82) DPL0 load(1, XDATA, add(CFA_XSP16, literal(-2)))
          CFI (cfiCond82) DPH0 load(1, XDATA, add(CFA_XSP16, literal(-1)))
          CFI (cfiCond82) CFA_SP SP+-2
          CFI (cfiCond82) CFA_XSP16 add(XSP16, 28)
          CFI Block cfiCond83 Using cfiCommon0
          CFI (cfiCond83) Function afIncomingData
          CFI (cfiCond83) Conditional ??CrossCallReturnLabel_69
          CFI (cfiCond83) R6 load(1, XDATA, add(CFA_XSP16, literal(-16)))
          CFI (cfiCond83) VB load(1, XDATA, add(CFA_XSP16, literal(-15)))
          CFI (cfiCond83) V0 load(1, XDATA, add(CFA_XSP16, literal(-14)))
          CFI (cfiCond83) V1 load(1, XDATA, add(CFA_XSP16, literal(-13)))
          CFI (cfiCond83) V2 load(1, XDATA, add(CFA_XSP16, literal(-12)))
          CFI (cfiCond83) V3 load(1, XDATA, add(CFA_XSP16, literal(-11)))
          CFI (cfiCond83) V4 load(1, XDATA, add(CFA_XSP16, literal(-10)))
          CFI (cfiCond83) V5 load(1, XDATA, add(CFA_XSP16, literal(-9)))
          CFI (cfiCond83) V6 load(1, XDATA, add(CFA_XSP16, literal(-8)))
          CFI (cfiCond83) V7 load(1, XDATA, add(CFA_XSP16, literal(-7)))
          CFI (cfiCond83) R7 load(1, XDATA, add(CFA_XSP16, literal(-6)))
          CFI (cfiCond83) ?RET_LOW load(1, XDATA, add(CFA_XSP16, literal(-5)))
          CFI (cfiCond83) ?RET_HIGH load(1, XDATA, add(CFA_XSP16, literal(-4)))
          CFI (cfiCond83) ?BRET_EXT load(1, XDATA, add(CFA_XSP16, literal(-3)))
          CFI (cfiCond83) DPL0 load(1, XDATA, add(CFA_XSP16, literal(-2)))
          CFI (cfiCond83) DPH0 load(1, XDATA, add(CFA_XSP16, literal(-1)))
          CFI (cfiCond83) CFA_SP SP+-2
          CFI (cfiCond83) CFA_XSP16 add(XSP16, 28)
          CFI Block cfiCond84 Using cfiCommon0
          CFI (cfiCond84) Function afBuildMSGIncoming
          CFI (cfiCond84) Conditional ??CrossCallReturnLabel_70
          CFI (cfiCond84) R6 load(1, XDATA, add(CFA_XSP16, literal(-16)))
          CFI (cfiCond84) VB load(1, XDATA, add(CFA_XSP16, literal(-15)))
          CFI (cfiCond84) V0 load(1, XDATA, add(CFA_XSP16, literal(-14)))
          CFI (cfiCond84) V1 load(1, XDATA, add(CFA_XSP16, literal(-13)))
          CFI (cfiCond84) V2 load(1, XDATA, add(CFA_XSP16, literal(-12)))
          CFI (cfiCond84) V3 load(1, XDATA, add(CFA_XSP16, literal(-11)))
          CFI (cfiCond84) V4 load(1, XDATA, add(CFA_XSP16, literal(-10)))
          CFI (cfiCond84) V5 load(1, XDATA, add(CFA_XSP16, literal(-9)))
          CFI (cfiCond84) V6 load(1, XDATA, add(CFA_XSP16, literal(-8)))
          CFI (cfiCond84) V7 load(1, XDATA, add(CFA_XSP16, literal(-7)))
          CFI (cfiCond84) R7 load(1, XDATA, add(CFA_XSP16, literal(-6)))
          CFI (cfiCond84) ?RET_LOW load(1, XDATA, add(CFA_XSP16, literal(-5)))
          CFI (cfiCond84) ?RET_HIGH load(1, XDATA, add(CFA_XSP16, literal(-4)))
          CFI (cfiCond84) ?BRET_EXT load(1, XDATA, add(CFA_XSP16, literal(-3)))
          CFI (cfiCond84) DPL0 load(1, XDATA, add(CFA_XSP16, literal(-2)))
          CFI (cfiCond84) DPH0 load(1, XDATA, add(CFA_XSP16, literal(-1)))
          CFI (cfiCond84) CFA_SP SP+-2
          CFI (cfiCond84) CFA_XSP16 add(XSP16, 19)
          CFI Block cfiCond85 Using cfiCommon0
          CFI (cfiCond85) Function afBuildMSGIncoming
          CFI (cfiCond85) Conditional ??CrossCallReturnLabel_71
          CFI (cfiCond85) R6 load(1, XDATA, add(CFA_XSP16, literal(-16)))
          CFI (cfiCond85) VB load(1, XDATA, add(CFA_XSP16, literal(-15)))
          CFI (cfiCond85) V0 load(1, XDATA, add(CFA_XSP16, literal(-14)))
          CFI (cfiCond85) V1 load(1, XDATA, add(CFA_XSP16, literal(-13)))
          CFI (cfiCond85) V2 load(1, XDATA, add(CFA_XSP16, literal(-12)))
          CFI (cfiCond85) V3 load(1, XDATA, add(CFA_XSP16, literal(-11)))
          CFI (cfiCond85) V4 load(1, XDATA, add(CFA_XSP16, literal(-10)))
          CFI (cfiCond85) V5 load(1, XDATA, add(CFA_XSP16, literal(-9)))
          CFI (cfiCond85) V6 load(1, XDATA, add(CFA_XSP16, literal(-8)))
          CFI (cfiCond85) V7 load(1, XDATA, add(CFA_XSP16, literal(-7)))
          CFI (cfiCond85) R7 load(1, XDATA, add(CFA_XSP16, literal(-6)))
          CFI (cfiCond85) ?RET_LOW load(1, XDATA, add(CFA_XSP16, literal(-5)))
          CFI (cfiCond85) ?RET_HIGH load(1, XDATA, add(CFA_XSP16, literal(-4)))
          CFI (cfiCond85) ?BRET_EXT load(1, XDATA, add(CFA_XSP16, literal(-3)))
          CFI (cfiCond85) DPL0 load(1, XDATA, add(CFA_XSP16, literal(-2)))
          CFI (cfiCond85) DPH0 load(1, XDATA, add(CFA_XSP16, literal(-1)))
          CFI (cfiCond85) CFA_SP SP+-2
          CFI (cfiCond85) CFA_XSP16 add(XSP16, 19)
          CFI Block cfiCond86 Using cfiCommon0
          CFI (cfiCond86) Function afBuildMSGIncoming
          CFI (cfiCond86) Conditional ??CrossCallReturnLabel_72
          CFI (cfiCond86) R6 load(1, XDATA, add(CFA_XSP16, literal(-16)))
          CFI (cfiCond86) VB load(1, XDATA, add(CFA_XSP16, literal(-15)))
          CFI (cfiCond86) V0 load(1, XDATA, add(CFA_XSP16, literal(-14)))
          CFI (cfiCond86) V1 load(1, XDATA, add(CFA_XSP16, literal(-13)))
          CFI (cfiCond86) V2 load(1, XDATA, add(CFA_XSP16, literal(-12)))
          CFI (cfiCond86) V3 load(1, XDATA, add(CFA_XSP16, literal(-11)))
          CFI (cfiCond86) V4 load(1, XDATA, add(CFA_XSP16, literal(-10)))
          CFI (cfiCond86) V5 load(1, XDATA, add(CFA_XSP16, literal(-9)))
          CFI (cfiCond86) V6 load(1, XDATA, add(CFA_XSP16, literal(-8)))
          CFI (cfiCond86) V7 load(1, XDATA, add(CFA_XSP16, literal(-7)))
          CFI (cfiCond86) R7 load(1, XDATA, add(CFA_XSP16, literal(-6)))
          CFI (cfiCond86) ?RET_LOW load(1, XDATA, add(CFA_XSP16, literal(-5)))
          CFI (cfiCond86) ?RET_HIGH load(1, XDATA, add(CFA_XSP16, literal(-4)))
          CFI (cfiCond86) ?BRET_EXT load(1, XDATA, add(CFA_XSP16, literal(-3)))
          CFI (cfiCond86) DPL0 load(1, XDATA, add(CFA_XSP16, literal(-2)))
          CFI (cfiCond86) DPH0 load(1, XDATA, add(CFA_XSP16, literal(-1)))
          CFI (cfiCond86) CFA_SP SP+-2
          CFI (cfiCond86) CFA_XSP16 add(XSP16, 19)
          CFI Block cfiCond87 Using cfiCommon0
          CFI (cfiCond87) Function afBuildMSGIncoming
          CFI (cfiCond87) Conditional ??CrossCallReturnLabel_73
          CFI (cfiCond87) R6 load(1, XDATA, add(CFA_XSP16, literal(-16)))
          CFI (cfiCond87) VB load(1, XDATA, add(CFA_XSP16, literal(-15)))
          CFI (cfiCond87) V0 load(1, XDATA, add(CFA_XSP16, literal(-14)))
          CFI (cfiCond87) V1 load(1, XDATA, add(CFA_XSP16, literal(-13)))
          CFI (cfiCond87) V2 load(1, XDATA, add(CFA_XSP16, literal(-12)))
          CFI (cfiCond87) V3 load(1, XDATA, add(CFA_XSP16, literal(-11)))
          CFI (cfiCond87) V4 load(1, XDATA, add(CFA_XSP16, literal(-10)))
          CFI (cfiCond87) V5 load(1, XDATA, add(CFA_XSP16, literal(-9)))
          CFI (cfiCond87) V6 load(1, XDATA, add(CFA_XSP16, literal(-8)))
          CFI (cfiCond87) V7 load(1, XDATA, add(CFA_XSP16, literal(-7)))
          CFI (cfiCond87) R7 load(1, XDATA, add(CFA_XSP16, literal(-6)))
          CFI (cfiCond87) ?RET_LOW load(1, XDATA, add(CFA_XSP16, literal(-5)))
          CFI (cfiCond87) ?RET_HIGH load(1, XDATA, add(CFA_XSP16, literal(-4)))
          CFI (cfiCond87) ?BRET_EXT load(1, XDATA, add(CFA_XSP16, literal(-3)))
          CFI (cfiCond87) DPL0 load(1, XDATA, add(CFA_XSP16, literal(-2)))
          CFI (cfiCond87) DPH0 load(1, XDATA, add(CFA_XSP16, literal(-1)))
          CFI (cfiCond87) CFA_SP SP+-2
          CFI (cfiCond87) CFA_XSP16 add(XSP16, 19)
          CFI Block cfiCond88 Using cfiCommon0
          CFI (cfiCond88) Function afBuildMSGIncoming
          CFI (cfiCond88) Conditional ??CrossCallReturnLabel_74
          CFI (cfiCond88) R6 load(1, XDATA, add(CFA_XSP16, literal(-16)))
          CFI (cfiCond88) VB load(1, XDATA, add(CFA_XSP16, literal(-15)))
          CFI (cfiCond88) V0 load(1, XDATA, add(CFA_XSP16, literal(-14)))
          CFI (cfiCond88) V1 load(1, XDATA, add(CFA_XSP16, literal(-13)))
          CFI (cfiCond88) V2 load(1, XDATA, add(CFA_XSP16, literal(-12)))
          CFI (cfiCond88) V3 load(1, XDATA, add(CFA_XSP16, literal(-11)))
          CFI (cfiCond88) V4 load(1, XDATA, add(CFA_XSP16, literal(-10)))
          CFI (cfiCond88) V5 load(1, XDATA, add(CFA_XSP16, literal(-9)))
          CFI (cfiCond88) V6 load(1, XDATA, add(CFA_XSP16, literal(-8)))
          CFI (cfiCond88) V7 load(1, XDATA, add(CFA_XSP16, literal(-7)))
          CFI (cfiCond88) R7 load(1, XDATA, add(CFA_XSP16, literal(-6)))
          CFI (cfiCond88) ?RET_LOW load(1, XDATA, add(CFA_XSP16, literal(-5)))
          CFI (cfiCond88) ?RET_HIGH load(1, XDATA, add(CFA_XSP16, literal(-4)))
          CFI (cfiCond88) ?BRET_EXT load(1, XDATA, add(CFA_XSP16, literal(-3)))
          CFI (cfiCond88) DPL0 load(1, XDATA, add(CFA_XSP16, literal(-2)))
          CFI (cfiCond88) DPH0 load(1, XDATA, add(CFA_XSP16, literal(-1)))
          CFI (cfiCond88) CFA_SP SP+-2
          CFI (cfiCond88) CFA_XSP16 add(XSP16, 19)
          CFI Block cfiCond89 Using cfiCommon0
          CFI (cfiCond89) Function AF_DataRequest
          CFI (cfiCond89) Conditional ??CrossCallReturnLabel_75
          CFI (cfiCond89) R6 load(1, XDATA, add(CFA_XSP16, literal(-15)))
          CFI (cfiCond89) VB load(1, XDATA, add(CFA_XSP16, literal(-14)))
          CFI (cfiCond89) V0 load(1, XDATA, add(CFA_XSP16, literal(-13)))
          CFI (cfiCond89) V1 load(1, XDATA, add(CFA_XSP16, literal(-12)))
          CFI (cfiCond89) V2 load(1, XDATA, add(CFA_XSP16, literal(-11)))
          CFI (cfiCond89) V3 load(1, XDATA, add(CFA_XSP16, literal(-10)))
          CFI (cfiCond89) V4 load(1, XDATA, add(CFA_XSP16, literal(-9)))
          CFI (cfiCond89) V5 load(1, XDATA, add(CFA_XSP16, literal(-8)))
          CFI (cfiCond89) V6 load(1, XDATA, add(CFA_XSP16, literal(-7)))
          CFI (cfiCond89) R7 load(1, XDATA, add(CFA_XSP16, literal(-6)))
          CFI (cfiCond89) ?RET_LOW load(1, XDATA, add(CFA_XSP16, literal(-5)))
          CFI (cfiCond89) ?RET_HIGH load(1, XDATA, add(CFA_XSP16, literal(-4)))
          CFI (cfiCond89) ?BRET_EXT load(1, XDATA, add(CFA_XSP16, literal(-3)))
          CFI (cfiCond89) DPL0 load(1, XDATA, add(CFA_XSP16, literal(-2)))
          CFI (cfiCond89) DPH0 load(1, XDATA, add(CFA_XSP16, literal(-1)))
          CFI (cfiCond89) CFA_SP SP+-2
          CFI (cfiCond89) CFA_XSP16 add(XSP16, 45)
          CFI Block cfiCond90 Using cfiCommon0
          CFI (cfiCond90) Function AF_DataRequest
          CFI (cfiCond90) Conditional ??CrossCallReturnLabel_76
          CFI (cfiCond90) R6 load(1, XDATA, add(CFA_XSP16, literal(-15)))
          CFI (cfiCond90) VB load(1, XDATA, add(CFA_XSP16, literal(-14)))
          CFI (cfiCond90) V0 load(1, XDATA, add(CFA_XSP16, literal(-13)))
          CFI (cfiCond90) V1 load(1, XDATA, add(CFA_XSP16, literal(-12)))
          CFI (cfiCond90) V2 load(1, XDATA, add(CFA_XSP16, literal(-11)))
          CFI (cfiCond90) V3 load(1, XDATA, add(CFA_XSP16, literal(-10)))
          CFI (cfiCond90) V4 load(1, XDATA, add(CFA_XSP16, literal(-9)))
          CFI (cfiCond90) V5 load(1, XDATA, add(CFA_XSP16, literal(-8)))
          CFI (cfiCond90) V6 load(1, XDATA, add(CFA_XSP16, literal(-7)))
          CFI (cfiCond90) R7 load(1, XDATA, add(CFA_XSP16, literal(-6)))
          CFI (cfiCond90) ?RET_LOW load(1, XDATA, add(CFA_XSP16, literal(-5)))
          CFI (cfiCond90) ?RET_HIGH load(1, XDATA, add(CFA_XSP16, literal(-4)))
          CFI (cfiCond90) ?BRET_EXT load(1, XDATA, add(CFA_XSP16, literal(-3)))
          CFI (cfiCond90) DPL0 load(1, XDATA, add(CFA_XSP16, literal(-2)))
          CFI (cfiCond90) DPH0 load(1, XDATA, add(CFA_XSP16, literal(-1)))
          CFI (cfiCond90) CFA_SP SP+-2
          CFI (cfiCond90) CFA_XSP16 add(XSP16, 45)
          CFI Block cfiCond91 Using cfiCommon0
          CFI (cfiCond91) Function AF_DataRequest
          CFI (cfiCond91) Conditional ??CrossCallReturnLabel_77
          CFI (cfiCond91) R6 load(1, XDATA, add(CFA_XSP16, literal(-15)))
          CFI (cfiCond91) VB load(1, XDATA, add(CFA_XSP16, literal(-14)))
          CFI (cfiCond91) V0 load(1, XDATA, add(CFA_XSP16, literal(-13)))
          CFI (cfiCond91) V1 load(1, XDATA, add(CFA_XSP16, literal(-12)))
          CFI (cfiCond91) V2 load(1, XDATA, add(CFA_XSP16, literal(-11)))
          CFI (cfiCond91) V3 load(1, XDATA, add(CFA_XSP16, literal(-10)))
          CFI (cfiCond91) V4 load(1, XDATA, add(CFA_XSP16, literal(-9)))
          CFI (cfiCond91) V5 load(1, XDATA, add(CFA_XSP16, literal(-8)))
          CFI (cfiCond91) V6 load(1, XDATA, add(CFA_XSP16, literal(-7)))
          CFI (cfiCond91) R7 load(1, XDATA, add(CFA_XSP16, literal(-6)))
          CFI (cfiCond91) ?RET_LOW load(1, XDATA, add(CFA_XSP16, literal(-5)))
          CFI (cfiCond91) ?RET_HIGH load(1, XDATA, add(CFA_XSP16, literal(-4)))
          CFI (cfiCond91) ?BRET_EXT load(1, XDATA, add(CFA_XSP16, literal(-3)))
          CFI (cfiCond91) DPL0 load(1, XDATA, add(CFA_XSP16, literal(-2)))
          CFI (cfiCond91) DPH0 load(1, XDATA, add(CFA_XSP16, literal(-1)))
          CFI (cfiCond91) CFA_SP SP+-2
          CFI (cfiCond91) CFA_XSP16 add(XSP16, 45)
          CFI Block cfiCond92 Using cfiCommon0
          CFI (cfiCond92) Function AF_DataRequest
          CFI (cfiCond92) Conditional ??CrossCallReturnLabel_78
          CFI (cfiCond92) R6 load(1, XDATA, add(CFA_XSP16, literal(-15)))
          CFI (cfiCond92) VB load(1, XDATA, add(CFA_XSP16, literal(-14)))
          CFI (cfiCond92) V0 load(1, XDATA, add(CFA_XSP16, literal(-13)))
          CFI (cfiCond92) V1 load(1, XDATA, add(CFA_XSP16, literal(-12)))
          CFI (cfiCond92) V2 load(1, XDATA, add(CFA_XSP16, literal(-11)))
          CFI (cfiCond92) V3 load(1, XDATA, add(CFA_XSP16, literal(-10)))
          CFI (cfiCond92) V4 load(1, XDATA, add(CFA_XSP16, literal(-9)))
          CFI (cfiCond92) V5 load(1, XDATA, add(CFA_XSP16, literal(-8)))
          CFI (cfiCond92) V6 load(1, XDATA, add(CFA_XSP16, literal(-7)))
          CFI (cfiCond92) R7 load(1, XDATA, add(CFA_XSP16, literal(-6)))
          CFI (cfiCond92) ?RET_LOW load(1, XDATA, add(CFA_XSP16, literal(-5)))
          CFI (cfiCond92) ?RET_HIGH load(1, XDATA, add(CFA_XSP16, literal(-4)))
          CFI (cfiCond92) ?BRET_EXT load(1, XDATA, add(CFA_XSP16, literal(-3)))
          CFI (cfiCond92) DPL0 load(1, XDATA, add(CFA_XSP16, literal(-2)))
          CFI (cfiCond92) DPH0 load(1, XDATA, add(CFA_XSP16, literal(-1)))
          CFI (cfiCond92) CFA_SP SP+-2
          CFI (cfiCond92) CFA_XSP16 add(XSP16, 45)
          CFI Block cfiCond93 Using cfiCommon0
          CFI (cfiCond93) Function AF_DataRequest
          CFI (cfiCond93) Conditional ??CrossCallReturnLabel_79
          CFI (cfiCond93) R6 load(1, XDATA, add(CFA_XSP16, literal(-15)))
          CFI (cfiCond93) VB load(1, XDATA, add(CFA_XSP16, literal(-14)))
          CFI (cfiCond93) V0 load(1, XDATA, add(CFA_XSP16, literal(-13)))
          CFI (cfiCond93) V1 load(1, XDATA, add(CFA_XSP16, literal(-12)))
          CFI (cfiCond93) V2 load(1, XDATA, add(CFA_XSP16, literal(-11)))
          CFI (cfiCond93) V3 load(1, XDATA, add(CFA_XSP16, literal(-10)))
          CFI (cfiCond93) V4 load(1, XDATA, add(CFA_XSP16, literal(-9)))
          CFI (cfiCond93) V5 load(1, XDATA, add(CFA_XSP16, literal(-8)))
          CFI (cfiCond93) V6 load(1, XDATA, add(CFA_XSP16, literal(-7)))
          CFI (cfiCond93) R7 load(1, XDATA, add(CFA_XSP16, literal(-6)))
          CFI (cfiCond93) ?RET_LOW load(1, XDATA, add(CFA_XSP16, literal(-5)))
          CFI (cfiCond93) ?RET_HIGH load(1, XDATA, add(CFA_XSP16, literal(-4)))
          CFI (cfiCond93) ?BRET_EXT load(1, XDATA, add(CFA_XSP16, literal(-3)))
          CFI (cfiCond93) DPL0 load(1, XDATA, add(CFA_XSP16, literal(-2)))
          CFI (cfiCond93) DPH0 load(1, XDATA, add(CFA_XSP16, literal(-1)))
          CFI (cfiCond93) CFA_SP SP+-2
          CFI (cfiCond93) CFA_XSP16 add(XSP16, 45)
          CFI Block cfiCond94 Using cfiCommon0
          CFI (cfiCond94) Function afCopyAddress
          CFI (cfiCond94) Conditional ??CrossCallReturnLabel_80
          CFI (cfiCond94) R6 load(1, XDATA, add(CFA_XSP16, literal(-9)))
          CFI (cfiCond94) VB load(1, XDATA, add(CFA_XSP16, literal(-8)))
          CFI (cfiCond94) V0 load(1, XDATA, add(CFA_XSP16, literal(-7)))
          CFI (cfiCond94) R7 load(1, XDATA, add(CFA_XSP16, literal(-6)))
          CFI (cfiCond94) ?RET_LOW load(1, XDATA, add(CFA_XSP16, literal(-5)))
          CFI (cfiCond94) ?RET_HIGH load(1, XDATA, add(CFA_XSP16, literal(-4)))
          CFI (cfiCond94) ?BRET_EXT load(1, XDATA, add(CFA_XSP16, literal(-3)))
          CFI (cfiCond94) DPL0 load(1, XDATA, add(CFA_XSP16, literal(-2)))
          CFI (cfiCond94) DPH0 load(1, XDATA, add(CFA_XSP16, literal(-1)))
          CFI (cfiCond94) CFA_SP SP+-2
          CFI (cfiCond94) CFA_XSP16 add(XSP16, 9)
          CFI Block cfiCond95 Using cfiCommon0
          CFI (cfiCond95) Function afIncomingData
          CFI (cfiCond95) Conditional ??CrossCallReturnLabel_81
          CFI (cfiCond95) R6 load(1, XDATA, add(CFA_XSP16, literal(-16)))
          CFI (cfiCond95) VB load(1, XDATA, add(CFA_XSP16, literal(-15)))
          CFI (cfiCond95) V0 load(1, XDATA, add(CFA_XSP16, literal(-14)))
          CFI (cfiCond95) V1 load(1, XDATA, add(CFA_XSP16, literal(-13)))
          CFI (cfiCond95) V2 load(1, XDATA, add(CFA_XSP16, literal(-12)))
          CFI (cfiCond95) V3 load(1, XDATA, add(CFA_XSP16, literal(-11)))
          CFI (cfiCond95) V4 load(1, XDATA, add(CFA_XSP16, literal(-10)))
          CFI (cfiCond95) V5 load(1, XDATA, add(CFA_XSP16, literal(-9)))
          CFI (cfiCond95) V6 load(1, XDATA, add(CFA_XSP16, literal(-8)))
          CFI (cfiCond95) V7 load(1, XDATA, add(CFA_XSP16, literal(-7)))
          CFI (cfiCond95) R7 load(1, XDATA, add(CFA_XSP16, literal(-6)))
          CFI (cfiCond95) ?RET_LOW load(1, XDATA, add(CFA_XSP16, literal(-5)))
          CFI (cfiCond95) ?RET_HIGH load(1, XDATA, add(CFA_XSP16, literal(-4)))
          CFI (cfiCond95) ?BRET_EXT load(1, XDATA, add(CFA_XSP16, literal(-3)))
          CFI (cfiCond95) DPL0 load(1, XDATA, add(CFA_XSP16, literal(-2)))
          CFI (cfiCond95) DPH0 load(1, XDATA, add(CFA_XSP16, literal(-1)))
          CFI (cfiCond95) CFA_SP SP+-2
          CFI (cfiCond95) CFA_XSP16 add(XSP16, 28)
          CFI Block cfiCond96 Using cfiCommon0
          CFI (cfiCond96) Function afIncomingData
          CFI (cfiCond96) Conditional ??CrossCallReturnLabel_82
          CFI (cfiCond96) R6 load(1, XDATA, add(CFA_XSP16, literal(-16)))
          CFI (cfiCond96) VB load(1, XDATA, add(CFA_XSP16, literal(-15)))
          CFI (cfiCond96) V0 load(1, XDATA, add(CFA_XSP16, literal(-14)))
          CFI (cfiCond96) V1 load(1, XDATA, add(CFA_XSP16, literal(-13)))
          CFI (cfiCond96) V2 load(1, XDATA, add(CFA_XSP16, literal(-12)))
          CFI (cfiCond96) V3 load(1, XDATA, add(CFA_XSP16, literal(-11)))
          CFI (cfiCond96) V4 load(1, XDATA, add(CFA_XSP16, literal(-10)))
          CFI (cfiCond96) V5 load(1, XDATA, add(CFA_XSP16, literal(-9)))
          CFI (cfiCond96) V6 load(1, XDATA, add(CFA_XSP16, literal(-8)))
          CFI (cfiCond96) V7 load(1, XDATA, add(CFA_XSP16, literal(-7)))
          CFI (cfiCond96) R7 load(1, XDATA, add(CFA_XSP16, literal(-6)))
          CFI (cfiCond96) ?RET_LOW load(1, XDATA, add(CFA_XSP16, literal(-5)))
          CFI (cfiCond96) ?RET_HIGH load(1, XDATA, add(CFA_XSP16, literal(-4)))
          CFI (cfiCond96) ?BRET_EXT load(1, XDATA, add(CFA_XSP16, literal(-3)))
          CFI (cfiCond96) DPL0 load(1, XDATA, add(CFA_XSP16, literal(-2)))
          CFI (cfiCond96) DPH0 load(1, XDATA, add(CFA_XSP16, literal(-1)))
          CFI (cfiCond96) CFA_SP SP+-2
          CFI (cfiCond96) CFA_XSP16 add(XSP16, 28)
          CFI Block cfiPicker97 Using cfiCommon1
          CFI (cfiPicker97) NoFunction
          CFI (cfiPicker97) Picker
        MOV     A,R0
        MOVX    @DPTR,A
        INC     DPTR
        MOV     A,R1
        MOVX    @DPTR,A
        RET
          CFI (cfiCond80) CFA_SP SP+0
          CFI (cfiCond81) CFA_SP SP+0
          CFI (cfiCond82) CFA_SP SP+0
          CFI (cfiCond83) CFA_SP SP+0
          CFI (cfiCond84) CFA_SP SP+0
          CFI (cfiCond85) CFA_SP SP+0
          CFI (cfiCond86) CFA_SP SP+0
          CFI (cfiCond87) CFA_SP SP+0
          CFI (cfiCond88) CFA_SP SP+0
          CFI (cfiCond89) CFA_SP SP+0
          CFI (cfiCond90) CFA_SP SP+0
          CFI (cfiCond91) CFA_SP SP+0
          CFI (cfiCond92) CFA_SP SP+0
          CFI (cfiCond93) CFA_SP SP+0
          CFI (cfiCond94) CFA_SP SP+0
          CFI (cfiCond95) CFA_SP SP+0
          CFI (cfiCond96) CFA_SP SP+0
          CFI (cfiPicker97) CFA_SP SP+0
          CFI EndBlock cfiCond80
          CFI EndBlock cfiCond81
          CFI EndBlock cfiCond82
          CFI EndBlock cfiCond83
          CFI EndBlock cfiCond84
          CFI EndBlock cfiCond85
          CFI EndBlock cfiCond86
          CFI EndBlock cfiCond87
          CFI EndBlock cfiCond88
          CFI EndBlock cfiCond89
          CFI EndBlock cfiCond90
          CFI EndBlock cfiCond91
          CFI EndBlock cfiCond92
          CFI EndBlock cfiCond93
          CFI EndBlock cfiCond94
          CFI EndBlock cfiCond95
          CFI EndBlock cfiCond96
          CFI EndBlock cfiPicker97
//  635 
//  636 #if defined ( ZIGBEE_SOURCE_ROUTING )
//  637 /*********************************************************************
//  638  * @fn      AF_DataRequestSrcRtg
//  639  *
//  640  * @brief   Common functionality for invoking APSDE_DataReq() for both
//  641  *          SendMulti and MSG-Send.
//  642  *
//  643  * input parameters
//  644  *
//  645  * @param  *dstAddr - Full ZB destination address: Nwk Addr + End Point.
//  646  * @param  *srcEP - Origination (i.e. respond to or ack to) End Point Descr.
//  647  * @param   cID - A valid cluster ID as specified by the Profile.
//  648  * @param   len - Number of bytes of data pointed to by next param.
//  649  * @param  *buf - A pointer to the data bytes to send.
//  650  * @param  *transID - A pointer to a byte which can be modified and which will
//  651  *                    be used as the transaction sequence number of the msg.
//  652  * @param   options - Valid bit mask of Tx options.
//  653  * @param   radius - Normally set to AF_DEFAULT_RADIUS.
//  654  * @param   relayCnt - Number of devices in the relay list
//  655  * @param   pRelayList - Pointer to the relay list
//  656  *
//  657  * output parameters
//  658  *
//  659  * @param  *transID - Incremented by one if the return value is success.
//  660  *
//  661  * @return  afStatus_t - See previous definition of afStatus_... types.
//  662  */
//  663 
//  664 afStatus_t AF_DataRequestSrcRtg( afAddrType_t *dstAddr, endPointDesc_t *srcEP,
//  665                            uint16 cID, uint16 len, uint8 *buf, uint8 *transID,
//  666                            uint8 options, uint8 radius, uint8 relayCnt, uint16* pRelayList )
//  667 {
//  668   uint8 status;
//  669   
//  670   /* Add the source route to the source routing table */
//  671   status = RTG_AddSrcRtgEntry_Guaranteed( dstAddr->addr.shortAddr, relayCnt, 
//  672                                          pRelayList );
//  673 
//  674   if( status == RTG_SUCCESS)
//  675   {
//  676     /* Call AF_DataRequest to send the data */
//  677     status = AF_DataRequest( dstAddr, srcEP, cID, len, buf, transID, options, radius );
//  678   }
//  679   else if( status == RTG_INVALID_PATH )
//  680   {
//  681     /* The source route relay count is exceeding the network limit */
//  682     status = afStatus_INVALID_PARAMETER;
//  683   }
//  684   else
//  685   {
//  686     /* The guaranteed adding entry fails due to memory failure */
//  687     status = afStatus_MEM_FAIL;
//  688   }
//  689   return status;
//  690 }
//  691 
//  692 #endif
//  693 
//  694 /*********************************************************************
//  695  * @fn      afFindEndPointDescList
//  696  *
//  697  * @brief   Find the endpoint description entry from the endpoint
//  698  *          number.
//  699  *
//  700  * @param   EndPoint - Application Endpoint to look for
//  701  *
//  702  * @return  the address to the endpoint/interface description entry
//  703  */

        RSEG BANKED_CODE:CODE:NOROOT(0)
//  704 static epList_t *afFindEndPointDescList( byte EndPoint )
afFindEndPointDescList:
          CFI Block cfiBlock98 Using cfiCommon0
          CFI Function afFindEndPointDescList
        CODE
//  705 {
        PUSH    DPL
          CFI DPL0 Frame(CFA_SP, 4)
          CFI CFA_SP SP+-4
        PUSH    DPH
          CFI DPH0 Frame(CFA_SP, 5)
          CFI CFA_SP SP+-5
        ; Saved register size: 2
        ; Auto size: 0
//  706   epList_t *epSearch;
//  707 
//  708   // Start at the beginning
//  709   epSearch = epList;
        MOV     DPTR,#epList
        SJMP    ??afFindEndPointDescList_0
//  710 
//  711   // Look through the list until the end
//  712   while ( epSearch )
//  713   {
//  714     // Is there a match?
//  715     if ( epSearch->epDesc->endPoint == EndPoint )
//  716     {
//  717       return ( epSearch );
//  718     }
//  719     else
//  720       epSearch = epSearch->nextDesc;  // Next entry
??afFindEndPointDescList_1:
        MOV     DPL,R2
        MOV     DPH,R3
        INC     DPTR
        INC     DPTR
        INC     DPTR
        INC     DPTR
        INC     DPTR
??afFindEndPointDescList_0:
        LCALL   ??Subroutine32_0 & 0xFFFF
??CrossCallReturnLabel_86:
        MOV     A,R2
        ORL     A,R3
        JZ      ??afFindEndPointDescList_2
        MOV     DPL,R2
        MOV     DPH,R3
        LCALL   ?Subroutine18 & 0xFFFF
??CrossCallReturnLabel_23:
        XRL     A,R1
        JNZ     ??afFindEndPointDescList_1
        SJMP    ??afFindEndPointDescList_3
//  721   }
//  722 
//  723   return ( (epList_t *)NULL );
??afFindEndPointDescList_2:
        MOV     R2,#0x0
        MOV     R3,#0x0
??afFindEndPointDescList_3:
        LJMP    ?Subroutine0 & 0xFFFF
//  724 }
          CFI EndBlock cfiBlock98

        RSEG BANKED_CODE:CODE:NOROOT(0)
?Subroutine18:
          CFI Block cfiCond99 Using cfiCommon0
          CFI Function afIncomingData
          CFI Conditional ??CrossCallReturnLabel_22
          CFI R6 load(1, XDATA, add(CFA_XSP16, literal(-16)))
          CFI VB load(1, XDATA, add(CFA_XSP16, literal(-15)))
          CFI V0 load(1, XDATA, add(CFA_XSP16, literal(-14)))
          CFI V1 load(1, XDATA, add(CFA_XSP16, literal(-13)))
          CFI V2 load(1, XDATA, add(CFA_XSP16, literal(-12)))
          CFI V3 load(1, XDATA, add(CFA_XSP16, literal(-11)))
          CFI V4 load(1, XDATA, add(CFA_XSP16, literal(-10)))
          CFI V5 load(1, XDATA, add(CFA_XSP16, literal(-9)))
          CFI V6 load(1, XDATA, add(CFA_XSP16, literal(-8)))
          CFI V7 load(1, XDATA, add(CFA_XSP16, literal(-7)))
          CFI R7 load(1, XDATA, add(CFA_XSP16, literal(-6)))
          CFI ?RET_LOW load(1, XDATA, add(CFA_XSP16, literal(-5)))
          CFI ?RET_HIGH load(1, XDATA, add(CFA_XSP16, literal(-4)))
          CFI ?BRET_EXT load(1, XDATA, add(CFA_XSP16, literal(-3)))
          CFI DPL0 load(1, XDATA, add(CFA_XSP16, literal(-2)))
          CFI DPH0 load(1, XDATA, add(CFA_XSP16, literal(-1)))
          CFI CFA_SP SP+-2
          CFI CFA_XSP16 add(XSP16, 28)
          CFI Block cfiCond100 Using cfiCommon0
          CFI (cfiCond100) Function afFindEndPointDescList
          CFI (cfiCond100) Conditional ??CrossCallReturnLabel_23
          CFI (cfiCond100) DPL0 Frame(CFA_SP, 4)
          CFI (cfiCond100) DPH0 Frame(CFA_SP, 5)
          CFI (cfiCond100) CFA_SP SP+-7
          CFI Block cfiPicker101 Using cfiCommon1
          CFI (cfiPicker101) NoFunction
          CFI (cfiPicker101) Picker
        LCALL   ?Subroutine22 & 0xFFFF
??CrossCallReturnLabel_39:
        RET
          CFI (cfiCond99) CFA_SP SP+0
          CFI (cfiCond100) CFA_SP SP+-5
          CFI (cfiPicker101) CFA_SP SP+0
          CFI EndBlock cfiCond99
          CFI EndBlock cfiCond100
          CFI EndBlock cfiPicker101

        RSEG BANKED_CODE:CODE:NOROOT(0)
?Subroutine22:
          CFI Block cfiCond102 Using cfiCommon0
          CFI Function afDataConfirm
          CFI Conditional ??CrossCallReturnLabel_40, ??CrossCallReturnLabel_36
          CFI R6 load(1, XDATA, add(CFA_XSP16, literal(-14)))
          CFI VB load(1, XDATA, add(CFA_XSP16, literal(-13)))
          CFI V0 load(1, XDATA, add(CFA_XSP16, literal(-12)))
          CFI V1 load(1, XDATA, add(CFA_XSP16, literal(-11)))
          CFI V2 load(1, XDATA, add(CFA_XSP16, literal(-10)))
          CFI V3 load(1, XDATA, add(CFA_XSP16, literal(-9)))
          CFI V4 load(1, XDATA, add(CFA_XSP16, literal(-8)))
          CFI V5 load(1, XDATA, add(CFA_XSP16, literal(-7)))
          CFI R7 load(1, XDATA, add(CFA_XSP16, literal(-6)))
          CFI ?RET_LOW load(1, XDATA, add(CFA_XSP16, literal(-5)))
          CFI ?RET_HIGH load(1, XDATA, add(CFA_XSP16, literal(-4)))
          CFI ?BRET_EXT load(1, XDATA, add(CFA_XSP16, literal(-3)))
          CFI DPL0 load(1, XDATA, add(CFA_XSP16, literal(-2)))
          CFI DPH0 load(1, XDATA, add(CFA_XSP16, literal(-1)))
          CFI CFA_SP SP+-4
          CFI CFA_XSP16 add(XSP16, 14)
          CFI Block cfiCond103 Using cfiCommon0
          CFI (cfiCond103) Function afBuildMSGIncoming
          CFI (cfiCond103) Conditional ??CrossCallReturnLabel_40, ??CrossCallReturnLabel_37
          CFI (cfiCond103) R6 load(1, XDATA, add(CFA_XSP16, literal(-16)))
          CFI (cfiCond103) VB load(1, XDATA, add(CFA_XSP16, literal(-15)))
          CFI (cfiCond103) V0 load(1, XDATA, add(CFA_XSP16, literal(-14)))
          CFI (cfiCond103) V1 load(1, XDATA, add(CFA_XSP16, literal(-13)))
          CFI (cfiCond103) V2 load(1, XDATA, add(CFA_XSP16, literal(-12)))
          CFI (cfiCond103) V3 load(1, XDATA, add(CFA_XSP16, literal(-11)))
          CFI (cfiCond103) V4 load(1, XDATA, add(CFA_XSP16, literal(-10)))
          CFI (cfiCond103) V5 load(1, XDATA, add(CFA_XSP16, literal(-9)))
          CFI (cfiCond103) V6 load(1, XDATA, add(CFA_XSP16, literal(-8)))
          CFI (cfiCond103) V7 load(1, XDATA, add(CFA_XSP16, literal(-7)))
          CFI (cfiCond103) R7 load(1, XDATA, add(CFA_XSP16, literal(-6)))
          CFI (cfiCond103) ?RET_LOW load(1, XDATA, add(CFA_XSP16, literal(-5)))
          CFI (cfiCond103) ?RET_HIGH load(1, XDATA, add(CFA_XSP16, literal(-4)))
          CFI (cfiCond103) ?BRET_EXT load(1, XDATA, add(CFA_XSP16, literal(-3)))
          CFI (cfiCond103) DPL0 load(1, XDATA, add(CFA_XSP16, literal(-2)))
          CFI (cfiCond103) DPH0 load(1, XDATA, add(CFA_XSP16, literal(-1)))
          CFI (cfiCond103) CFA_SP SP+-4
          CFI (cfiCond103) CFA_XSP16 add(XSP16, 19)
          CFI Block cfiCond104 Using cfiCommon0
          CFI (cfiCond104) Function afIncomingData
          CFI (cfiCond104) Conditional ??CrossCallReturnLabel_40, ??CrossCallReturnLabel_35
          CFI (cfiCond104) R6 load(1, XDATA, add(CFA_XSP16, literal(-16)))
          CFI (cfiCond104) VB load(1, XDATA, add(CFA_XSP16, literal(-15)))
          CFI (cfiCond104) V0 load(1, XDATA, add(CFA_XSP16, literal(-14)))
          CFI (cfiCond104) V1 load(1, XDATA, add(CFA_XSP16, literal(-13)))
          CFI (cfiCond104) V2 load(1, XDATA, add(CFA_XSP16, literal(-12)))
          CFI (cfiCond104) V3 load(1, XDATA, add(CFA_XSP16, literal(-11)))
          CFI (cfiCond104) V4 load(1, XDATA, add(CFA_XSP16, literal(-10)))
          CFI (cfiCond104) V5 load(1, XDATA, add(CFA_XSP16, literal(-9)))
          CFI (cfiCond104) V6 load(1, XDATA, add(CFA_XSP16, literal(-8)))
          CFI (cfiCond104) V7 load(1, XDATA, add(CFA_XSP16, literal(-7)))
          CFI (cfiCond104) R7 load(1, XDATA, add(CFA_XSP16, literal(-6)))
          CFI (cfiCond104) ?RET_LOW load(1, XDATA, add(CFA_XSP16, literal(-5)))
          CFI (cfiCond104) ?RET_HIGH load(1, XDATA, add(CFA_XSP16, literal(-4)))
          CFI (cfiCond104) ?BRET_EXT load(1, XDATA, add(CFA_XSP16, literal(-3)))
          CFI (cfiCond104) DPL0 load(1, XDATA, add(CFA_XSP16, literal(-2)))
          CFI (cfiCond104) DPH0 load(1, XDATA, add(CFA_XSP16, literal(-1)))
          CFI (cfiCond104) CFA_SP SP+-4
          CFI (cfiCond104) CFA_XSP16 add(XSP16, 28)
          CFI Block cfiCond105 Using cfiCommon0
          CFI (cfiCond105) Function afIncomingData
          CFI (cfiCond105) Conditional ??CrossCallReturnLabel_38, ??CrossCallReturnLabel_13
          CFI (cfiCond105) R6 load(1, XDATA, add(CFA_XSP16, literal(-16)))
          CFI (cfiCond105) VB load(1, XDATA, add(CFA_XSP16, literal(-15)))
          CFI (cfiCond105) V0 load(1, XDATA, add(CFA_XSP16, literal(-14)))
          CFI (cfiCond105) V1 load(1, XDATA, add(CFA_XSP16, literal(-13)))
          CFI (cfiCond105) V2 load(1, XDATA, add(CFA_XSP16, literal(-12)))
          CFI (cfiCond105) V3 load(1, XDATA, add(CFA_XSP16, literal(-11)))
          CFI (cfiCond105) V4 load(1, XDATA, add(CFA_XSP16, literal(-10)))
          CFI (cfiCond105) V5 load(1, XDATA, add(CFA_XSP16, literal(-9)))
          CFI (cfiCond105) V6 load(1, XDATA, add(CFA_XSP16, literal(-8)))
          CFI (cfiCond105) V7 load(1, XDATA, add(CFA_XSP16, literal(-7)))
          CFI (cfiCond105) R7 load(1, XDATA, add(CFA_XSP16, literal(-6)))
          CFI (cfiCond105) ?RET_LOW load(1, XDATA, add(CFA_XSP16, literal(-5)))
          CFI (cfiCond105) ?RET_HIGH load(1, XDATA, add(CFA_XSP16, literal(-4)))
          CFI (cfiCond105) ?BRET_EXT load(1, XDATA, add(CFA_XSP16, literal(-3)))
          CFI (cfiCond105) DPL0 load(1, XDATA, add(CFA_XSP16, literal(-2)))
          CFI (cfiCond105) DPH0 load(1, XDATA, add(CFA_XSP16, literal(-1)))
          CFI (cfiCond105) CFA_SP SP+-4
          CFI (cfiCond105) CFA_XSP16 add(XSP16, 28)
          CFI Block cfiCond106 Using cfiCommon0
          CFI (cfiCond106) Function afIncomingData
          CFI (cfiCond106) Conditional ??CrossCallReturnLabel_38, ??CrossCallReturnLabel_14
          CFI (cfiCond106) R6 load(1, XDATA, add(CFA_XSP16, literal(-16)))
          CFI (cfiCond106) VB load(1, XDATA, add(CFA_XSP16, literal(-15)))
          CFI (cfiCond106) V0 load(1, XDATA, add(CFA_XSP16, literal(-14)))
          CFI (cfiCond106) V1 load(1, XDATA, add(CFA_XSP16, literal(-13)))
          CFI (cfiCond106) V2 load(1, XDATA, add(CFA_XSP16, literal(-12)))
          CFI (cfiCond106) V3 load(1, XDATA, add(CFA_XSP16, literal(-11)))
          CFI (cfiCond106) V4 load(1, XDATA, add(CFA_XSP16, literal(-10)))
          CFI (cfiCond106) V5 load(1, XDATA, add(CFA_XSP16, literal(-9)))
          CFI (cfiCond106) V6 load(1, XDATA, add(CFA_XSP16, literal(-8)))
          CFI (cfiCond106) V7 load(1, XDATA, add(CFA_XSP16, literal(-7)))
          CFI (cfiCond106) R7 load(1, XDATA, add(CFA_XSP16, literal(-6)))
          CFI (cfiCond106) ?RET_LOW load(1, XDATA, add(CFA_XSP16, literal(-5)))
          CFI (cfiCond106) ?RET_HIGH load(1, XDATA, add(CFA_XSP16, literal(-4)))
          CFI (cfiCond106) ?BRET_EXT load(1, XDATA, add(CFA_XSP16, literal(-3)))
          CFI (cfiCond106) DPL0 load(1, XDATA, add(CFA_XSP16, literal(-2)))
          CFI (cfiCond106) DPH0 load(1, XDATA, add(CFA_XSP16, literal(-1)))
          CFI (cfiCond106) CFA_SP SP+-4
          CFI (cfiCond106) CFA_XSP16 add(XSP16, 28)
          CFI Block cfiCond107 Using cfiCommon0
          CFI (cfiCond107) Function afIncomingData
          CFI (cfiCond107) Conditional ??CrossCallReturnLabel_39, ??CrossCallReturnLabel_22
          CFI (cfiCond107) R6 load(1, XDATA, add(CFA_XSP16, literal(-16)))
          CFI (cfiCond107) VB load(1, XDATA, add(CFA_XSP16, literal(-15)))
          CFI (cfiCond107) V0 load(1, XDATA, add(CFA_XSP16, literal(-14)))
          CFI (cfiCond107) V1 load(1, XDATA, add(CFA_XSP16, literal(-13)))
          CFI (cfiCond107) V2 load(1, XDATA, add(CFA_XSP16, literal(-12)))
          CFI (cfiCond107) V3 load(1, XDATA, add(CFA_XSP16, literal(-11)))
          CFI (cfiCond107) V4 load(1, XDATA, add(CFA_XSP16, literal(-10)))
          CFI (cfiCond107) V5 load(1, XDATA, add(CFA_XSP16, literal(-9)))
          CFI (cfiCond107) V6 load(1, XDATA, add(CFA_XSP16, literal(-8)))
          CFI (cfiCond107) V7 load(1, XDATA, add(CFA_XSP16, literal(-7)))
          CFI (cfiCond107) R7 load(1, XDATA, add(CFA_XSP16, literal(-6)))
          CFI (cfiCond107) ?RET_LOW load(1, XDATA, add(CFA_XSP16, literal(-5)))
          CFI (cfiCond107) ?RET_HIGH load(1, XDATA, add(CFA_XSP16, literal(-4)))
          CFI (cfiCond107) ?BRET_EXT load(1, XDATA, add(CFA_XSP16, literal(-3)))
          CFI (cfiCond107) DPL0 load(1, XDATA, add(CFA_XSP16, literal(-2)))
          CFI (cfiCond107) DPH0 load(1, XDATA, add(CFA_XSP16, literal(-1)))
          CFI (cfiCond107) CFA_SP SP+-4
          CFI (cfiCond107) CFA_XSP16 add(XSP16, 28)
          CFI Block cfiCond108 Using cfiCommon0
          CFI (cfiCond108) Function afFindEndPointDescList
          CFI (cfiCond108) Conditional ??CrossCallReturnLabel_39, ??CrossCallReturnLabel_23
          CFI (cfiCond108) DPL0 Frame(CFA_SP, 4)
          CFI (cfiCond108) DPH0 Frame(CFA_SP, 5)
          CFI (cfiCond108) CFA_SP SP+-9
          CFI Block cfiPicker109 Using cfiCommon1
          CFI (cfiPicker109) NoFunction
          CFI (cfiPicker109) Picker
        LCALL   ?Subroutine26 & 0xFFFF
??CrossCallReturnLabel_43:
        MOVX    A,@DPTR
        RET
          CFI (cfiCond102) CFA_SP SP+-2
          CFI (cfiCond103) CFA_SP SP+-2
          CFI (cfiCond104) CFA_SP SP+-2
          CFI (cfiCond105) CFA_SP SP+-2
          CFI (cfiCond106) CFA_SP SP+-2
          CFI (cfiCond107) CFA_SP SP+-2
          CFI (cfiCond108) CFA_SP SP+-7
          CFI (cfiPicker109) CFA_SP SP+0
          CFI EndBlock cfiCond102
          CFI EndBlock cfiCond103
          CFI EndBlock cfiCond104
          CFI EndBlock cfiCond105
          CFI EndBlock cfiCond106
          CFI EndBlock cfiCond107
          CFI EndBlock cfiCond108
          CFI EndBlock cfiPicker109

        RSEG BANKED_CODE:CODE:NOROOT(0)
?Subroutine12:
          CFI Block cfiCond110 Using cfiCommon0
          CFI Function afIncomingData
          CFI Conditional ??CrossCallReturnLabel_89
          CFI R6 load(1, XDATA, add(CFA_XSP16, literal(-16)))
          CFI VB load(1, XDATA, add(CFA_XSP16, literal(-15)))
          CFI V0 load(1, XDATA, add(CFA_XSP16, literal(-14)))
          CFI V1 load(1, XDATA, add(CFA_XSP16, literal(-13)))
          CFI V2 load(1, XDATA, add(CFA_XSP16, literal(-12)))
          CFI V3 load(1, XDATA, add(CFA_XSP16, literal(-11)))
          CFI V4 load(1, XDATA, add(CFA_XSP16, literal(-10)))
          CFI V5 load(1, XDATA, add(CFA_XSP16, literal(-9)))
          CFI V6 load(1, XDATA, add(CFA_XSP16, literal(-8)))
          CFI V7 load(1, XDATA, add(CFA_XSP16, literal(-7)))
          CFI R7 load(1, XDATA, add(CFA_XSP16, literal(-6)))
          CFI ?RET_LOW load(1, XDATA, add(CFA_XSP16, literal(-5)))
          CFI ?RET_HIGH load(1, XDATA, add(CFA_XSP16, literal(-4)))
          CFI ?BRET_EXT load(1, XDATA, add(CFA_XSP16, literal(-3)))
          CFI DPL0 load(1, XDATA, add(CFA_XSP16, literal(-2)))
          CFI DPH0 load(1, XDATA, add(CFA_XSP16, literal(-1)))
          CFI CFA_SP SP+-2
          CFI CFA_XSP16 add(XSP16, 28)
          CFI Block cfiCond111 Using cfiCommon0
          CFI (cfiCond111) Function afIncomingData
          CFI (cfiCond111) Conditional ??CrossCallReturnLabel_90
          CFI (cfiCond111) R6 load(1, XDATA, add(CFA_XSP16, literal(-16)))
          CFI (cfiCond111) VB load(1, XDATA, add(CFA_XSP16, literal(-15)))
          CFI (cfiCond111) V0 load(1, XDATA, add(CFA_XSP16, literal(-14)))
          CFI (cfiCond111) V1 load(1, XDATA, add(CFA_XSP16, literal(-13)))
          CFI (cfiCond111) V2 load(1, XDATA, add(CFA_XSP16, literal(-12)))
          CFI (cfiCond111) V3 load(1, XDATA, add(CFA_XSP16, literal(-11)))
          CFI (cfiCond111) V4 load(1, XDATA, add(CFA_XSP16, literal(-10)))
          CFI (cfiCond111) V5 load(1, XDATA, add(CFA_XSP16, literal(-9)))
          CFI (cfiCond111) V6 load(1, XDATA, add(CFA_XSP16, literal(-8)))
          CFI (cfiCond111) V7 load(1, XDATA, add(CFA_XSP16, literal(-7)))
          CFI (cfiCond111) R7 load(1, XDATA, add(CFA_XSP16, literal(-6)))
          CFI (cfiCond111) ?RET_LOW load(1, XDATA, add(CFA_XSP16, literal(-5)))
          CFI (cfiCond111) ?RET_HIGH load(1, XDATA, add(CFA_XSP16, literal(-4)))
          CFI (cfiCond111) ?BRET_EXT load(1, XDATA, add(CFA_XSP16, literal(-3)))
          CFI (cfiCond111) DPL0 load(1, XDATA, add(CFA_XSP16, literal(-2)))
          CFI (cfiCond111) DPH0 load(1, XDATA, add(CFA_XSP16, literal(-1)))
          CFI (cfiCond111) CFA_SP SP+-2
          CFI (cfiCond111) CFA_XSP16 add(XSP16, 28)
          CFI Block cfiPicker112 Using cfiCommon1
          CFI (cfiPicker112) NoFunction
          CFI (cfiPicker112) Picker
        LCALL   ?Subroutine26 & 0xFFFF
??CrossCallReturnLabel_41:
          CFI EndBlock cfiCond110
          CFI EndBlock cfiCond111
          CFI EndBlock cfiPicker112
        REQUIRE ??Subroutine32_0
        ; // Fall through to label ??Subroutine32_0

        RSEG BANKED_CODE:CODE:NOROOT(0)
??Subroutine32_0:
          CFI Block cfiCond113 Using cfiCommon0
          CFI Function afIncomingData
          CFI Conditional ??CrossCallReturnLabel_83
          CFI R6 load(1, XDATA, add(CFA_XSP16, literal(-16)))
          CFI VB load(1, XDATA, add(CFA_XSP16, literal(-15)))
          CFI V0 load(1, XDATA, add(CFA_XSP16, literal(-14)))
          CFI V1 load(1, XDATA, add(CFA_XSP16, literal(-13)))
          CFI V2 load(1, XDATA, add(CFA_XSP16, literal(-12)))
          CFI V3 load(1, XDATA, add(CFA_XSP16, literal(-11)))
          CFI V4 load(1, XDATA, add(CFA_XSP16, literal(-10)))
          CFI V5 load(1, XDATA, add(CFA_XSP16, literal(-9)))
          CFI V6 load(1, XDATA, add(CFA_XSP16, literal(-8)))
          CFI V7 load(1, XDATA, add(CFA_XSP16, literal(-7)))
          CFI R7 load(1, XDATA, add(CFA_XSP16, literal(-6)))
          CFI ?RET_LOW load(1, XDATA, add(CFA_XSP16, literal(-5)))
          CFI ?RET_HIGH load(1, XDATA, add(CFA_XSP16, literal(-4)))
          CFI ?BRET_EXT load(1, XDATA, add(CFA_XSP16, literal(-3)))
          CFI DPL0 load(1, XDATA, add(CFA_XSP16, literal(-2)))
          CFI DPH0 load(1, XDATA, add(CFA_XSP16, literal(-1)))
          CFI CFA_SP SP+-2
          CFI CFA_XSP16 add(XSP16, 38)
          CFI Block cfiCond114 Using cfiCommon0
          CFI (cfiCond114) Function AF_DataRequest
          CFI (cfiCond114) Conditional ??CrossCallReturnLabel_84
          CFI (cfiCond114) R6 load(1, XDATA, add(CFA_XSP16, literal(-15)))
          CFI (cfiCond114) VB load(1, XDATA, add(CFA_XSP16, literal(-14)))
          CFI (cfiCond114) V0 load(1, XDATA, add(CFA_XSP16, literal(-13)))
          CFI (cfiCond114) V1 load(1, XDATA, add(CFA_XSP16, literal(-12)))
          CFI (cfiCond114) V2 load(1, XDATA, add(CFA_XSP16, literal(-11)))
          CFI (cfiCond114) V3 load(1, XDATA, add(CFA_XSP16, literal(-10)))
          CFI (cfiCond114) V4 load(1, XDATA, add(CFA_XSP16, literal(-9)))
          CFI (cfiCond114) V5 load(1, XDATA, add(CFA_XSP16, literal(-8)))
          CFI (cfiCond114) V6 load(1, XDATA, add(CFA_XSP16, literal(-7)))
          CFI (cfiCond114) R7 load(1, XDATA, add(CFA_XSP16, literal(-6)))
          CFI (cfiCond114) ?RET_LOW load(1, XDATA, add(CFA_XSP16, literal(-5)))
          CFI (cfiCond114) ?RET_HIGH load(1, XDATA, add(CFA_XSP16, literal(-4)))
          CFI (cfiCond114) ?BRET_EXT load(1, XDATA, add(CFA_XSP16, literal(-3)))
          CFI (cfiCond114) DPL0 load(1, XDATA, add(CFA_XSP16, literal(-2)))
          CFI (cfiCond114) DPH0 load(1, XDATA, add(CFA_XSP16, literal(-1)))
          CFI (cfiCond114) CFA_SP SP+-2
          CFI (cfiCond114) CFA_XSP16 add(XSP16, 45)
          CFI Block cfiCond115 Using cfiCommon0
          CFI (cfiCond115) Function AF_DataRequest
          CFI (cfiCond115) Conditional ??CrossCallReturnLabel_85
          CFI (cfiCond115) R6 load(1, XDATA, add(CFA_XSP16, literal(-15)))
          CFI (cfiCond115) VB load(1, XDATA, add(CFA_XSP16, literal(-14)))
          CFI (cfiCond115) V0 load(1, XDATA, add(CFA_XSP16, literal(-13)))
          CFI (cfiCond115) V1 load(1, XDATA, add(CFA_XSP16, literal(-12)))
          CFI (cfiCond115) V2 load(1, XDATA, add(CFA_XSP16, literal(-11)))
          CFI (cfiCond115) V3 load(1, XDATA, add(CFA_XSP16, literal(-10)))
          CFI (cfiCond115) V4 load(1, XDATA, add(CFA_XSP16, literal(-9)))
          CFI (cfiCond115) V5 load(1, XDATA, add(CFA_XSP16, literal(-8)))
          CFI (cfiCond115) V6 load(1, XDATA, add(CFA_XSP16, literal(-7)))
          CFI (cfiCond115) R7 load(1, XDATA, add(CFA_XSP16, literal(-6)))
          CFI (cfiCond115) ?RET_LOW load(1, XDATA, add(CFA_XSP16, literal(-5)))
          CFI (cfiCond115) ?RET_HIGH load(1, XDATA, add(CFA_XSP16, literal(-4)))
          CFI (cfiCond115) ?BRET_EXT load(1, XDATA, add(CFA_XSP16, literal(-3)))
          CFI (cfiCond115) DPL0 load(1, XDATA, add(CFA_XSP16, literal(-2)))
          CFI (cfiCond115) DPH0 load(1, XDATA, add(CFA_XSP16, literal(-1)))
          CFI (cfiCond115) CFA_SP SP+-2
          CFI (cfiCond115) CFA_XSP16 add(XSP16, 45)
          CFI Block cfiCond116 Using cfiCommon0
          CFI (cfiCond116) Function afFindEndPointDescList
          CFI (cfiCond116) Conditional ??CrossCallReturnLabel_86
          CFI (cfiCond116) DPL0 Frame(CFA_SP, 4)
          CFI (cfiCond116) DPH0 Frame(CFA_SP, 5)
          CFI (cfiCond116) CFA_SP SP+-7
          CFI Block cfiCond117 Using cfiCommon0
          CFI (cfiCond117) Function afFindEndPointDesc
          CFI (cfiCond117) Conditional ??CrossCallReturnLabel_87
          CFI (cfiCond117) R6 load(1, XDATA, add(CFA_XSP16, literal(-10)))
          CFI (cfiCond117) VB load(1, XDATA, add(CFA_XSP16, literal(-9)))
          CFI (cfiCond117) V0 load(1, XDATA, add(CFA_XSP16, literal(-8)))
          CFI (cfiCond117) V1 load(1, XDATA, add(CFA_XSP16, literal(-7)))
          CFI (cfiCond117) R7 load(1, XDATA, add(CFA_XSP16, literal(-6)))
          CFI (cfiCond117) ?RET_LOW load(1, XDATA, add(CFA_XSP16, literal(-5)))
          CFI (cfiCond117) ?RET_HIGH load(1, XDATA, add(CFA_XSP16, literal(-4)))
          CFI (cfiCond117) ?BRET_EXT load(1, XDATA, add(CFA_XSP16, literal(-3)))
          CFI (cfiCond117) DPL0 load(1, XDATA, add(CFA_XSP16, literal(-2)))
          CFI (cfiCond117) DPH0 load(1, XDATA, add(CFA_XSP16, literal(-1)))
          CFI (cfiCond117) CFA_SP SP+-2
          CFI (cfiCond117) CFA_XSP16 add(XSP16, 10)
          CFI Block cfiCond118 Using cfiCommon0
          CFI (cfiCond118) Function afNumEndPoints
          CFI (cfiCond118) Conditional ??CrossCallReturnLabel_88
          CFI (cfiCond118) DPL0 Frame(CFA_SP, 4)
          CFI (cfiCond118) DPH0 Frame(CFA_SP, 5)
          CFI (cfiCond118) CFA_SP SP+-7
          CFI Block cfiCond119 Using cfiCommon0
          CFI (cfiCond119) Function afIncomingData
          CFI (cfiCond119) Conditional ??CrossCallReturnLabel_89
          CFI (cfiCond119) R6 load(1, XDATA, add(CFA_XSP16, literal(-16)))
          CFI (cfiCond119) VB load(1, XDATA, add(CFA_XSP16, literal(-15)))
          CFI (cfiCond119) V0 load(1, XDATA, add(CFA_XSP16, literal(-14)))
          CFI (cfiCond119) V1 load(1, XDATA, add(CFA_XSP16, literal(-13)))
          CFI (cfiCond119) V2 load(1, XDATA, add(CFA_XSP16, literal(-12)))
          CFI (cfiCond119) V3 load(1, XDATA, add(CFA_XSP16, literal(-11)))
          CFI (cfiCond119) V4 load(1, XDATA, add(CFA_XSP16, literal(-10)))
          CFI (cfiCond119) V5 load(1, XDATA, add(CFA_XSP16, literal(-9)))
          CFI (cfiCond119) V6 load(1, XDATA, add(CFA_XSP16, literal(-8)))
          CFI (cfiCond119) V7 load(1, XDATA, add(CFA_XSP16, literal(-7)))
          CFI (cfiCond119) R7 load(1, XDATA, add(CFA_XSP16, literal(-6)))
          CFI (cfiCond119) ?RET_LOW load(1, XDATA, add(CFA_XSP16, literal(-5)))
          CFI (cfiCond119) ?RET_HIGH load(1, XDATA, add(CFA_XSP16, literal(-4)))
          CFI (cfiCond119) ?BRET_EXT load(1, XDATA, add(CFA_XSP16, literal(-3)))
          CFI (cfiCond119) DPL0 load(1, XDATA, add(CFA_XSP16, literal(-2)))
          CFI (cfiCond119) DPH0 load(1, XDATA, add(CFA_XSP16, literal(-1)))
          CFI (cfiCond119) CFA_SP SP+-2
          CFI (cfiCond119) CFA_XSP16 add(XSP16, 28)
          CFI Block cfiCond120 Using cfiCommon0
          CFI (cfiCond120) Function afIncomingData
          CFI (cfiCond120) Conditional ??CrossCallReturnLabel_90
          CFI (cfiCond120) R6 load(1, XDATA, add(CFA_XSP16, literal(-16)))
          CFI (cfiCond120) VB load(1, XDATA, add(CFA_XSP16, literal(-15)))
          CFI (cfiCond120) V0 load(1, XDATA, add(CFA_XSP16, literal(-14)))
          CFI (cfiCond120) V1 load(1, XDATA, add(CFA_XSP16, literal(-13)))
          CFI (cfiCond120) V2 load(1, XDATA, add(CFA_XSP16, literal(-12)))
          CFI (cfiCond120) V3 load(1, XDATA, add(CFA_XSP16, literal(-11)))
          CFI (cfiCond120) V4 load(1, XDATA, add(CFA_XSP16, literal(-10)))
          CFI (cfiCond120) V5 load(1, XDATA, add(CFA_XSP16, literal(-9)))
          CFI (cfiCond120) V6 load(1, XDATA, add(CFA_XSP16, literal(-8)))
          CFI (cfiCond120) V7 load(1, XDATA, add(CFA_XSP16, literal(-7)))
          CFI (cfiCond120) R7 load(1, XDATA, add(CFA_XSP16, literal(-6)))
          CFI (cfiCond120) ?RET_LOW load(1, XDATA, add(CFA_XSP16, literal(-5)))
          CFI (cfiCond120) ?RET_HIGH load(1, XDATA, add(CFA_XSP16, literal(-4)))
          CFI (cfiCond120) ?BRET_EXT load(1, XDATA, add(CFA_XSP16, literal(-3)))
          CFI (cfiCond120) DPL0 load(1, XDATA, add(CFA_XSP16, literal(-2)))
          CFI (cfiCond120) DPH0 load(1, XDATA, add(CFA_XSP16, literal(-1)))
          CFI (cfiCond120) CFA_SP SP+-2
          CFI (cfiCond120) CFA_XSP16 add(XSP16, 28)
          CFI Block cfiPicker121 Using cfiCommon1
          CFI (cfiPicker121) NoFunction
          CFI (cfiPicker121) Picker
        MOVX    A,@DPTR
        MOV     R2,A
        INC     DPTR
        MOVX    A,@DPTR
        MOV     R3,A
        RET
          CFI (cfiCond113) CFA_SP SP+0
          CFI (cfiCond114) CFA_SP SP+0
          CFI (cfiCond115) CFA_SP SP+0
          CFI (cfiCond116) CFA_SP SP+-5
          CFI (cfiCond117) CFA_SP SP+0
          CFI (cfiCond118) CFA_SP SP+-5
          CFI (cfiCond119) CFA_SP SP+0
          CFI (cfiCond120) CFA_SP SP+0
          CFI (cfiPicker121) CFA_SP SP+0
          CFI EndBlock cfiCond113
          CFI EndBlock cfiCond114
          CFI EndBlock cfiCond115
          CFI EndBlock cfiCond116
          CFI EndBlock cfiCond117
          CFI EndBlock cfiCond118
          CFI EndBlock cfiCond119
          CFI EndBlock cfiCond120
          CFI EndBlock cfiPicker121

        RSEG BANKED_CODE:CODE:NOROOT(0)
?Subroutine26:
          CFI Block cfiCond122 Using cfiCommon0
          CFI Function afDataConfirm
          CFI Conditional ??CrossCallReturnLabel_43, ??CrossCallReturnLabel_40, ??CrossCallReturnLabel_36
          CFI R6 load(1, XDATA, add(CFA_XSP16, literal(-14)))
          CFI VB load(1, XDATA, add(CFA_XSP16, literal(-13)))
          CFI V0 load(1, XDATA, add(CFA_XSP16, literal(-12)))
          CFI V1 load(1, XDATA, add(CFA_XSP16, literal(-11)))
          CFI V2 load(1, XDATA, add(CFA_XSP16, literal(-10)))
          CFI V3 load(1, XDATA, add(CFA_XSP16, literal(-9)))
          CFI V4 load(1, XDATA, add(CFA_XSP16, literal(-8)))
          CFI V5 load(1, XDATA, add(CFA_XSP16, literal(-7)))
          CFI R7 load(1, XDATA, add(CFA_XSP16, literal(-6)))
          CFI ?RET_LOW load(1, XDATA, add(CFA_XSP16, literal(-5)))
          CFI ?RET_HIGH load(1, XDATA, add(CFA_XSP16, literal(-4)))
          CFI ?BRET_EXT load(1, XDATA, add(CFA_XSP16, literal(-3)))
          CFI DPL0 load(1, XDATA, add(CFA_XSP16, literal(-2)))
          CFI DPH0 load(1, XDATA, add(CFA_XSP16, literal(-1)))
          CFI CFA_SP SP+-6
          CFI CFA_XSP16 add(XSP16, 14)
          CFI Block cfiCond123 Using cfiCommon0
          CFI (cfiCond123) Function afBuildMSGIncoming
          CFI (cfiCond123) Conditional ??CrossCallReturnLabel_43, ??CrossCallReturnLabel_40, ??CrossCallReturnLabel_37
          CFI (cfiCond123) R6 load(1, XDATA, add(CFA_XSP16, literal(-16)))
          CFI (cfiCond123) VB load(1, XDATA, add(CFA_XSP16, literal(-15)))
          CFI (cfiCond123) V0 load(1, XDATA, add(CFA_XSP16, literal(-14)))
          CFI (cfiCond123) V1 load(1, XDATA, add(CFA_XSP16, literal(-13)))
          CFI (cfiCond123) V2 load(1, XDATA, add(CFA_XSP16, literal(-12)))
          CFI (cfiCond123) V3 load(1, XDATA, add(CFA_XSP16, literal(-11)))
          CFI (cfiCond123) V4 load(1, XDATA, add(CFA_XSP16, literal(-10)))
          CFI (cfiCond123) V5 load(1, XDATA, add(CFA_XSP16, literal(-9)))
          CFI (cfiCond123) V6 load(1, XDATA, add(CFA_XSP16, literal(-8)))
          CFI (cfiCond123) V7 load(1, XDATA, add(CFA_XSP16, literal(-7)))
          CFI (cfiCond123) R7 load(1, XDATA, add(CFA_XSP16, literal(-6)))
          CFI (cfiCond123) ?RET_LOW load(1, XDATA, add(CFA_XSP16, literal(-5)))
          CFI (cfiCond123) ?RET_HIGH load(1, XDATA, add(CFA_XSP16, literal(-4)))
          CFI (cfiCond123) ?BRET_EXT load(1, XDATA, add(CFA_XSP16, literal(-3)))
          CFI (cfiCond123) DPL0 load(1, XDATA, add(CFA_XSP16, literal(-2)))
          CFI (cfiCond123) DPH0 load(1, XDATA, add(CFA_XSP16, literal(-1)))
          CFI (cfiCond123) CFA_SP SP+-6
          CFI (cfiCond123) CFA_XSP16 add(XSP16, 19)
          CFI Block cfiCond124 Using cfiCommon0
          CFI (cfiCond124) Function afIncomingData
          CFI (cfiCond124) Conditional ??CrossCallReturnLabel_43, ??CrossCallReturnLabel_40, ??CrossCallReturnLabel_35
          CFI (cfiCond124) R6 load(1, XDATA, add(CFA_XSP16, literal(-16)))
          CFI (cfiCond124) VB load(1, XDATA, add(CFA_XSP16, literal(-15)))
          CFI (cfiCond124) V0 load(1, XDATA, add(CFA_XSP16, literal(-14)))
          CFI (cfiCond124) V1 load(1, XDATA, add(CFA_XSP16, literal(-13)))
          CFI (cfiCond124) V2 load(1, XDATA, add(CFA_XSP16, literal(-12)))
          CFI (cfiCond124) V3 load(1, XDATA, add(CFA_XSP16, literal(-11)))
          CFI (cfiCond124) V4 load(1, XDATA, add(CFA_XSP16, literal(-10)))
          CFI (cfiCond124) V5 load(1, XDATA, add(CFA_XSP16, literal(-9)))
          CFI (cfiCond124) V6 load(1, XDATA, add(CFA_XSP16, literal(-8)))
          CFI (cfiCond124) V7 load(1, XDATA, add(CFA_XSP16, literal(-7)))
          CFI (cfiCond124) R7 load(1, XDATA, add(CFA_XSP16, literal(-6)))
          CFI (cfiCond124) ?RET_LOW load(1, XDATA, add(CFA_XSP16, literal(-5)))
          CFI (cfiCond124) ?RET_HIGH load(1, XDATA, add(CFA_XSP16, literal(-4)))
          CFI (cfiCond124) ?BRET_EXT load(1, XDATA, add(CFA_XSP16, literal(-3)))
          CFI (cfiCond124) DPL0 load(1, XDATA, add(CFA_XSP16, literal(-2)))
          CFI (cfiCond124) DPH0 load(1, XDATA, add(CFA_XSP16, literal(-1)))
          CFI (cfiCond124) CFA_SP SP+-6
          CFI (cfiCond124) CFA_XSP16 add(XSP16, 28)
          CFI Block cfiCond125 Using cfiCommon0
          CFI (cfiCond125) Function afIncomingData
          CFI (cfiCond125) Conditional ??CrossCallReturnLabel_43, ??CrossCallReturnLabel_38, ??CrossCallReturnLabel_13
          CFI (cfiCond125) R6 load(1, XDATA, add(CFA_XSP16, literal(-16)))
          CFI (cfiCond125) VB load(1, XDATA, add(CFA_XSP16, literal(-15)))
          CFI (cfiCond125) V0 load(1, XDATA, add(CFA_XSP16, literal(-14)))
          CFI (cfiCond125) V1 load(1, XDATA, add(CFA_XSP16, literal(-13)))
          CFI (cfiCond125) V2 load(1, XDATA, add(CFA_XSP16, literal(-12)))
          CFI (cfiCond125) V3 load(1, XDATA, add(CFA_XSP16, literal(-11)))
          CFI (cfiCond125) V4 load(1, XDATA, add(CFA_XSP16, literal(-10)))
          CFI (cfiCond125) V5 load(1, XDATA, add(CFA_XSP16, literal(-9)))
          CFI (cfiCond125) V6 load(1, XDATA, add(CFA_XSP16, literal(-8)))
          CFI (cfiCond125) V7 load(1, XDATA, add(CFA_XSP16, literal(-7)))
          CFI (cfiCond125) R7 load(1, XDATA, add(CFA_XSP16, literal(-6)))
          CFI (cfiCond125) ?RET_LOW load(1, XDATA, add(CFA_XSP16, literal(-5)))
          CFI (cfiCond125) ?RET_HIGH load(1, XDATA, add(CFA_XSP16, literal(-4)))
          CFI (cfiCond125) ?BRET_EXT load(1, XDATA, add(CFA_XSP16, literal(-3)))
          CFI (cfiCond125) DPL0 load(1, XDATA, add(CFA_XSP16, literal(-2)))
          CFI (cfiCond125) DPH0 load(1, XDATA, add(CFA_XSP16, literal(-1)))
          CFI (cfiCond125) CFA_SP SP+-6
          CFI (cfiCond125) CFA_XSP16 add(XSP16, 28)
          CFI Block cfiCond126 Using cfiCommon0
          CFI (cfiCond126) Function afIncomingData
          CFI (cfiCond126) Conditional ??CrossCallReturnLabel_43, ??CrossCallReturnLabel_38, ??CrossCallReturnLabel_14
          CFI (cfiCond126) R6 load(1, XDATA, add(CFA_XSP16, literal(-16)))
          CFI (cfiCond126) VB load(1, XDATA, add(CFA_XSP16, literal(-15)))
          CFI (cfiCond126) V0 load(1, XDATA, add(CFA_XSP16, literal(-14)))
          CFI (cfiCond126) V1 load(1, XDATA, add(CFA_XSP16, literal(-13)))
          CFI (cfiCond126) V2 load(1, XDATA, add(CFA_XSP16, literal(-12)))
          CFI (cfiCond126) V3 load(1, XDATA, add(CFA_XSP16, literal(-11)))
          CFI (cfiCond126) V4 load(1, XDATA, add(CFA_XSP16, literal(-10)))
          CFI (cfiCond126) V5 load(1, XDATA, add(CFA_XSP16, literal(-9)))
          CFI (cfiCond126) V6 load(1, XDATA, add(CFA_XSP16, literal(-8)))
          CFI (cfiCond126) V7 load(1, XDATA, add(CFA_XSP16, literal(-7)))
          CFI (cfiCond126) R7 load(1, XDATA, add(CFA_XSP16, literal(-6)))
          CFI (cfiCond126) ?RET_LOW load(1, XDATA, add(CFA_XSP16, literal(-5)))
          CFI (cfiCond126) ?RET_HIGH load(1, XDATA, add(CFA_XSP16, literal(-4)))
          CFI (cfiCond126) ?BRET_EXT load(1, XDATA, add(CFA_XSP16, literal(-3)))
          CFI (cfiCond126) DPL0 load(1, XDATA, add(CFA_XSP16, literal(-2)))
          CFI (cfiCond126) DPH0 load(1, XDATA, add(CFA_XSP16, literal(-1)))
          CFI (cfiCond126) CFA_SP SP+-6
          CFI (cfiCond126) CFA_XSP16 add(XSP16, 28)
          CFI Block cfiCond127 Using cfiCommon0
          CFI (cfiCond127) Function afIncomingData
          CFI (cfiCond127) Conditional ??CrossCallReturnLabel_43, ??CrossCallReturnLabel_39, ??CrossCallReturnLabel_22
          CFI (cfiCond127) R6 load(1, XDATA, add(CFA_XSP16, literal(-16)))
          CFI (cfiCond127) VB load(1, XDATA, add(CFA_XSP16, literal(-15)))
          CFI (cfiCond127) V0 load(1, XDATA, add(CFA_XSP16, literal(-14)))
          CFI (cfiCond127) V1 load(1, XDATA, add(CFA_XSP16, literal(-13)))
          CFI (cfiCond127) V2 load(1, XDATA, add(CFA_XSP16, literal(-12)))
          CFI (cfiCond127) V3 load(1, XDATA, add(CFA_XSP16, literal(-11)))
          CFI (cfiCond127) V4 load(1, XDATA, add(CFA_XSP16, literal(-10)))
          CFI (cfiCond127) V5 load(1, XDATA, add(CFA_XSP16, literal(-9)))
          CFI (cfiCond127) V6 load(1, XDATA, add(CFA_XSP16, literal(-8)))
          CFI (cfiCond127) V7 load(1, XDATA, add(CFA_XSP16, literal(-7)))
          CFI (cfiCond127) R7 load(1, XDATA, add(CFA_XSP16, literal(-6)))
          CFI (cfiCond127) ?RET_LOW load(1, XDATA, add(CFA_XSP16, literal(-5)))
          CFI (cfiCond127) ?RET_HIGH load(1, XDATA, add(CFA_XSP16, literal(-4)))
          CFI (cfiCond127) ?BRET_EXT load(1, XDATA, add(CFA_XSP16, literal(-3)))
          CFI (cfiCond127) DPL0 load(1, XDATA, add(CFA_XSP16, literal(-2)))
          CFI (cfiCond127) DPH0 load(1, XDATA, add(CFA_XSP16, literal(-1)))
          CFI (cfiCond127) CFA_SP SP+-6
          CFI (cfiCond127) CFA_XSP16 add(XSP16, 28)
          CFI Block cfiCond128 Using cfiCommon0
          CFI (cfiCond128) Function afFindEndPointDescList
          CFI (cfiCond128) Conditional ??CrossCallReturnLabel_43, ??CrossCallReturnLabel_39, ??CrossCallReturnLabel_23
          CFI (cfiCond128) DPL0 Frame(CFA_SP, 4)
          CFI (cfiCond128) DPH0 Frame(CFA_SP, 5)
          CFI (cfiCond128) CFA_SP SP+-11
          CFI Block cfiCond129 Using cfiCommon0
          CFI (cfiCond129) Function afIncomingData
          CFI (cfiCond129) Conditional ??CrossCallReturnLabel_41, ??CrossCallReturnLabel_89
          CFI (cfiCond129) R6 load(1, XDATA, add(CFA_XSP16, literal(-16)))
          CFI (cfiCond129) VB load(1, XDATA, add(CFA_XSP16, literal(-15)))
          CFI (cfiCond129) V0 load(1, XDATA, add(CFA_XSP16, literal(-14)))
          CFI (cfiCond129) V1 load(1, XDATA, add(CFA_XSP16, literal(-13)))
          CFI (cfiCond129) V2 load(1, XDATA, add(CFA_XSP16, literal(-12)))
          CFI (cfiCond129) V3 load(1, XDATA, add(CFA_XSP16, literal(-11)))
          CFI (cfiCond129) V4 load(1, XDATA, add(CFA_XSP16, literal(-10)))
          CFI (cfiCond129) V5 load(1, XDATA, add(CFA_XSP16, literal(-9)))
          CFI (cfiCond129) V6 load(1, XDATA, add(CFA_XSP16, literal(-8)))
          CFI (cfiCond129) V7 load(1, XDATA, add(CFA_XSP16, literal(-7)))
          CFI (cfiCond129) R7 load(1, XDATA, add(CFA_XSP16, literal(-6)))
          CFI (cfiCond129) ?RET_LOW load(1, XDATA, add(CFA_XSP16, literal(-5)))
          CFI (cfiCond129) ?RET_HIGH load(1, XDATA, add(CFA_XSP16, literal(-4)))
          CFI (cfiCond129) ?BRET_EXT load(1, XDATA, add(CFA_XSP16, literal(-3)))
          CFI (cfiCond129) DPL0 load(1, XDATA, add(CFA_XSP16, literal(-2)))
          CFI (cfiCond129) DPH0 load(1, XDATA, add(CFA_XSP16, literal(-1)))
          CFI (cfiCond129) CFA_SP SP+-4
          CFI (cfiCond129) CFA_XSP16 add(XSP16, 28)
          CFI Block cfiCond130 Using cfiCommon0
          CFI (cfiCond130) Function afIncomingData
          CFI (cfiCond130) Conditional ??CrossCallReturnLabel_41, ??CrossCallReturnLabel_90
          CFI (cfiCond130) R6 load(1, XDATA, add(CFA_XSP16, literal(-16)))
          CFI (cfiCond130) VB load(1, XDATA, add(CFA_XSP16, literal(-15)))
          CFI (cfiCond130) V0 load(1, XDATA, add(CFA_XSP16, literal(-14)))
          CFI (cfiCond130) V1 load(1, XDATA, add(CFA_XSP16, literal(-13)))
          CFI (cfiCond130) V2 load(1, XDATA, add(CFA_XSP16, literal(-12)))
          CFI (cfiCond130) V3 load(1, XDATA, add(CFA_XSP16, literal(-11)))
          CFI (cfiCond130) V4 load(1, XDATA, add(CFA_XSP16, literal(-10)))
          CFI (cfiCond130) V5 load(1, XDATA, add(CFA_XSP16, literal(-9)))
          CFI (cfiCond130) V6 load(1, XDATA, add(CFA_XSP16, literal(-8)))
          CFI (cfiCond130) V7 load(1, XDATA, add(CFA_XSP16, literal(-7)))
          CFI (cfiCond130) R7 load(1, XDATA, add(CFA_XSP16, literal(-6)))
          CFI (cfiCond130) ?RET_LOW load(1, XDATA, add(CFA_XSP16, literal(-5)))
          CFI (cfiCond130) ?RET_HIGH load(1, XDATA, add(CFA_XSP16, literal(-4)))
          CFI (cfiCond130) ?BRET_EXT load(1, XDATA, add(CFA_XSP16, literal(-3)))
          CFI (cfiCond130) DPL0 load(1, XDATA, add(CFA_XSP16, literal(-2)))
          CFI (cfiCond130) DPH0 load(1, XDATA, add(CFA_XSP16, literal(-1)))
          CFI (cfiCond130) CFA_SP SP+-4
          CFI (cfiCond130) CFA_XSP16 add(XSP16, 28)
          CFI Block cfiCond131 Using cfiCommon0
          CFI (cfiCond131) Function afIncomingData
          CFI (cfiCond131) Conditional ??CrossCallReturnLabel_42, ??CrossCallReturnLabel_28
          CFI (cfiCond131) R6 load(1, XDATA, add(CFA_XSP16, literal(-16)))
          CFI (cfiCond131) VB load(1, XDATA, add(CFA_XSP16, literal(-15)))
          CFI (cfiCond131) V0 load(1, XDATA, add(CFA_XSP16, literal(-14)))
          CFI (cfiCond131) V1 load(1, XDATA, add(CFA_XSP16, literal(-13)))
          CFI (cfiCond131) V2 load(1, XDATA, add(CFA_XSP16, literal(-12)))
          CFI (cfiCond131) V3 load(1, XDATA, add(CFA_XSP16, literal(-11)))
          CFI (cfiCond131) V4 load(1, XDATA, add(CFA_XSP16, literal(-10)))
          CFI (cfiCond131) V5 load(1, XDATA, add(CFA_XSP16, literal(-9)))
          CFI (cfiCond131) V6 load(1, XDATA, add(CFA_XSP16, literal(-8)))
          CFI (cfiCond131) V7 load(1, XDATA, add(CFA_XSP16, literal(-7)))
          CFI (cfiCond131) R7 load(1, XDATA, add(CFA_XSP16, literal(-6)))
          CFI (cfiCond131) ?RET_LOW load(1, XDATA, add(CFA_XSP16, literal(-5)))
          CFI (cfiCond131) ?RET_HIGH load(1, XDATA, add(CFA_XSP16, literal(-4)))
          CFI (cfiCond131) ?BRET_EXT load(1, XDATA, add(CFA_XSP16, literal(-3)))
          CFI (cfiCond131) DPL0 load(1, XDATA, add(CFA_XSP16, literal(-2)))
          CFI (cfiCond131) DPH0 load(1, XDATA, add(CFA_XSP16, literal(-1)))
          CFI (cfiCond131) CFA_SP SP+-4
          CFI (cfiCond131) CFA_XSP16 add(XSP16, 28)
          CFI Block cfiCond132 Using cfiCommon0
          CFI (cfiCond132) Function afIncomingData
          CFI (cfiCond132) Conditional ??CrossCallReturnLabel_42, ??CrossCallReturnLabel_29, ??CrossCallReturnLabel_11
          CFI (cfiCond132) R6 load(1, XDATA, add(CFA_XSP16, literal(-16)))
          CFI (cfiCond132) VB load(1, XDATA, add(CFA_XSP16, literal(-15)))
          CFI (cfiCond132) V0 load(1, XDATA, add(CFA_XSP16, literal(-14)))
          CFI (cfiCond132) V1 load(1, XDATA, add(CFA_XSP16, literal(-13)))
          CFI (cfiCond132) V2 load(1, XDATA, add(CFA_XSP16, literal(-12)))
          CFI (cfiCond132) V3 load(1, XDATA, add(CFA_XSP16, literal(-11)))
          CFI (cfiCond132) V4 load(1, XDATA, add(CFA_XSP16, literal(-10)))
          CFI (cfiCond132) V5 load(1, XDATA, add(CFA_XSP16, literal(-9)))
          CFI (cfiCond132) V6 load(1, XDATA, add(CFA_XSP16, literal(-8)))
          CFI (cfiCond132) V7 load(1, XDATA, add(CFA_XSP16, literal(-7)))
          CFI (cfiCond132) R7 load(1, XDATA, add(CFA_XSP16, literal(-6)))
          CFI (cfiCond132) ?RET_LOW load(1, XDATA, add(CFA_XSP16, literal(-5)))
          CFI (cfiCond132) ?RET_HIGH load(1, XDATA, add(CFA_XSP16, literal(-4)))
          CFI (cfiCond132) ?BRET_EXT load(1, XDATA, add(CFA_XSP16, literal(-3)))
          CFI (cfiCond132) DPL0 load(1, XDATA, add(CFA_XSP16, literal(-2)))
          CFI (cfiCond132) DPH0 load(1, XDATA, add(CFA_XSP16, literal(-1)))
          CFI (cfiCond132) CFA_SP SP+-6
          CFI (cfiCond132) CFA_XSP16 add(XSP16, 28)
          CFI Block cfiCond133 Using cfiCommon0
          CFI (cfiCond133) Function afFindSimpleDesc
          CFI (cfiCond133) Conditional ??CrossCallReturnLabel_42, ??CrossCallReturnLabel_29, ??CrossCallReturnLabel_12
          CFI (cfiCond133) R6 load(1, XDATA, add(CFA_XSP16, literal(-12)))
          CFI (cfiCond133) VB load(1, XDATA, add(CFA_XSP16, literal(-11)))
          CFI (cfiCond133) V0 load(1, XDATA, add(CFA_XSP16, literal(-10)))
          CFI (cfiCond133) V1 load(1, XDATA, add(CFA_XSP16, literal(-9)))
          CFI (cfiCond133) V2 load(1, XDATA, add(CFA_XSP16, literal(-8)))
          CFI (cfiCond133) V3 load(1, XDATA, add(CFA_XSP16, literal(-7)))
          CFI (cfiCond133) R7 load(1, XDATA, add(CFA_XSP16, literal(-6)))
          CFI (cfiCond133) ?RET_LOW load(1, XDATA, add(CFA_XSP16, literal(-5)))
          CFI (cfiCond133) ?RET_HIGH load(1, XDATA, add(CFA_XSP16, literal(-4)))
          CFI (cfiCond133) ?BRET_EXT load(1, XDATA, add(CFA_XSP16, literal(-3)))
          CFI (cfiCond133) DPL0 load(1, XDATA, add(CFA_XSP16, literal(-2)))
          CFI (cfiCond133) DPH0 load(1, XDATA, add(CFA_XSP16, literal(-1)))
          CFI (cfiCond133) CFA_SP SP+-6
          CFI (cfiCond133) CFA_XSP16 add(XSP16, 12)
          CFI Block cfiPicker134 Using cfiCommon1
          CFI (cfiPicker134) NoFunction
          CFI (cfiPicker134) Picker
        MOVX    A,@DPTR
        MOV     R0,A
        INC     DPTR
        MOVX    A,@DPTR
        MOV     DPH,A
        MOV     DPL,R0
        RET
          CFI (cfiCond122) CFA_SP SP+-4
          CFI (cfiCond123) CFA_SP SP+-4
          CFI (cfiCond124) CFA_SP SP+-4
          CFI (cfiCond125) CFA_SP SP+-4
          CFI (cfiCond126) CFA_SP SP+-4
          CFI (cfiCond127) CFA_SP SP+-4
          CFI (cfiCond128) CFA_SP SP+-9
          CFI (cfiCond129) CFA_SP SP+-2
          CFI (cfiCond130) CFA_SP SP+-2
          CFI (cfiCond131) CFA_SP SP+-2
          CFI (cfiCond132) CFA_SP SP+-4
          CFI (cfiCond133) CFA_SP SP+-4
          CFI (cfiPicker134) CFA_SP SP+0
          CFI EndBlock cfiCond122
          CFI EndBlock cfiCond123
          CFI EndBlock cfiCond124
          CFI EndBlock cfiCond125
          CFI EndBlock cfiCond126
          CFI EndBlock cfiCond127
          CFI EndBlock cfiCond128
          CFI EndBlock cfiCond129
          CFI EndBlock cfiCond130
          CFI EndBlock cfiCond131
          CFI EndBlock cfiCond132
          CFI EndBlock cfiCond133
          CFI EndBlock cfiPicker134
//  725 
//  726 /*********************************************************************
//  727  * @fn      afFindEndPointDesc
//  728  *
//  729  * @brief   Find the endpoint description entry from the endpoint
//  730  *          number.
//  731  *
//  732  * @param   EndPoint - Application Endpoint to look for
//  733  *
//  734  * @return  the address to the endpoint/interface description entry
//  735  */

        RSEG BANKED_CODE:CODE:NOROOT(0)
//  736 endPointDesc_t *afFindEndPointDesc( byte EndPoint )
afFindEndPointDesc:
          CFI Block cfiBlock135 Using cfiCommon0
          CFI Function afFindEndPointDesc
        CODE
//  737 {
        FUNCALL afFindEndPointDesc, afFindEndPointDescList
        LOCFRAME ISTACK, 0, STACK
        LOCFRAME PSTACK, 0, STACK
        LOCFRAME XSTACK, 10, STACK
        LOCFRAME IOVERLAY, 0, STATIC
        LOCFRAME DOVERLAY, 0, STATIC
        ARGFRAME ISTACK, 0, STACK
        ARGFRAME PSTACK, 0, STACK
        ARGFRAME XSTACK, 10, STACK
        ARGFRAME IOVERLAY, 0, STATIC
        ARGFRAME DOVERLAY, 0, STATIC
        REQUIRE ?V0
        REQUIRE ?V1
        MOV     A,#-0xa
        LCALL   ?BANKED_ENTER_XDATA
          CFI DPH0 load(1, XDATA, add(CFA_XSP16, literal(-1)))
          CFI DPL0 load(1, XDATA, add(CFA_XSP16, literal(-2)))
          CFI ?BRET_EXT load(1, XDATA, add(CFA_XSP16, literal(-3)))
          CFI ?RET_HIGH load(1, XDATA, add(CFA_XSP16, literal(-4)))
          CFI ?RET_LOW load(1, XDATA, add(CFA_XSP16, literal(-5)))
          CFI R7 load(1, XDATA, add(CFA_XSP16, literal(-6)))
          CFI V1 load(1, XDATA, add(CFA_XSP16, literal(-7)))
          CFI V0 load(1, XDATA, add(CFA_XSP16, literal(-8)))
          CFI VB load(1, XDATA, add(CFA_XSP16, literal(-9)))
          CFI R6 load(1, XDATA, add(CFA_XSP16, literal(-10)))
          CFI CFA_SP SP+0
          CFI CFA_XSP16 add(XSP16, 10)
        ; Saved register size: 10
        ; Auto size: 0
//  738   epList_t *epSearch;
//  739 
//  740   // Look for the endpoint
//  741   epSearch = afFindEndPointDescList( EndPoint );
        ; Setup parameters for call to function afFindEndPointDescList
        LCALL   `??afFindEndPointDescList::?relay`; Banked call to: afFindEndPointDescList
        MOV     DPL,R2
        MOV     DPH,R3
//  742 
//  743   if ( epSearch )
        MOV     A,DPL
        ORL     A,DPH
        JZ      ??afFindEndPointDesc_0
//  744     return ( epSearch->epDesc );
        LCALL   ??Subroutine32_0 & 0xFFFF
??CrossCallReturnLabel_87:
        SJMP    ??afFindEndPointDesc_1
//  745   else
//  746     return ( (endPointDesc_t *)NULL );
??afFindEndPointDesc_0:
        MOV     R2,#0x0
        MOV     R3,#0x0
??afFindEndPointDesc_1:
        LJMP    ?Subroutine2 & 0xFFFF
//  747 }
          CFI EndBlock cfiBlock135
//  748 
//  749 /*********************************************************************
//  750  * @fn      afFindSimpleDesc
//  751  *
//  752  * @brief   Find the Simple Descriptor from the endpoint number.
//  753  *
//  754  * @param   EP - Application Endpoint to look for.
//  755  *
//  756  * @return  Non-zero to indicate that the descriptor memory must be freed.
//  757  */

        RSEG BANKED_CODE:CODE:NOROOT(0)
//  758 byte afFindSimpleDesc( SimpleDescriptionFormat_t **ppDesc, byte EP )
afFindSimpleDesc:
          CFI Block cfiBlock136 Using cfiCommon0
          CFI Function afFindSimpleDesc
        CODE
//  759 {
        FUNCALL afFindSimpleDesc, afFindEndPointDescList
        LOCFRAME ISTACK, 0, STACK
        LOCFRAME PSTACK, 0, STACK
        LOCFRAME XSTACK, 12, STACK
        LOCFRAME IOVERLAY, 0, STATIC
        LOCFRAME DOVERLAY, 0, STATIC
        ARGFRAME ISTACK, 0, STACK
        ARGFRAME PSTACK, 0, STACK
        ARGFRAME XSTACK, 12, STACK
        ARGFRAME IOVERLAY, 0, STATIC
        ARGFRAME DOVERLAY, 0, STATIC
        REQUIRE ?V0
        REQUIRE ?V2
        REQUIRE ?V3
        MOV     A,#-0xc
        LCALL   ?BANKED_ENTER_XDATA
          CFI DPH0 load(1, XDATA, add(CFA_XSP16, literal(-1)))
          CFI DPL0 load(1, XDATA, add(CFA_XSP16, literal(-2)))
          CFI ?BRET_EXT load(1, XDATA, add(CFA_XSP16, literal(-3)))
          CFI ?RET_HIGH load(1, XDATA, add(CFA_XSP16, literal(-4)))
          CFI ?RET_LOW load(1, XDATA, add(CFA_XSP16, literal(-5)))
          CFI R7 load(1, XDATA, add(CFA_XSP16, literal(-6)))
          CFI V3 load(1, XDATA, add(CFA_XSP16, literal(-7)))
          CFI V2 load(1, XDATA, add(CFA_XSP16, literal(-8)))
          CFI V1 load(1, XDATA, add(CFA_XSP16, literal(-9)))
          CFI V0 load(1, XDATA, add(CFA_XSP16, literal(-10)))
          CFI VB load(1, XDATA, add(CFA_XSP16, literal(-11)))
          CFI R6 load(1, XDATA, add(CFA_XSP16, literal(-12)))
          CFI CFA_SP SP+0
          CFI CFA_XSP16 add(XSP16, 12)
        ; Saved register size: 12
        ; Auto size: 0
        MOV     A,R2
        MOV     R6,A
        MOV     A,R3
        MOV     R7,A
        MOV     ?V0,R1
//  760   epList_t *epItem = afFindEndPointDescList( EP );
        ; Setup parameters for call to function afFindEndPointDescList
        LCALL   `??afFindEndPointDescList::?relay`; Banked call to: afFindEndPointDescList
        MOV     ?V2,R2
        MOV     ?V3,R3
        MOV     R4,?V2
        MOV     R5,?V3
//  761   byte rtrn = FALSE;
        MOV     R2,#0x0
//  762 
//  763   if ( epItem )
        MOV     A,R4
        ORL     A,R5
        JZ      ??afFindSimpleDesc_0
//  764   {
//  765     if ( epItem->pfnDescCB )
        MOV     DPL,R4
        MOV     DPH,R5
        LCALL   ?Subroutine10 & 0xFFFF
??CrossCallReturnLabel_10:
        JZ      ??afFindSimpleDesc_1
//  766     {
//  767       *ppDesc = epItem->pfnDescCB( AF_DESCRIPTOR_SIMPLE, EP );
        ; Setup parameters for indirect call
        MOV     R2,?V0
        MOV     R1,#0x1
        LCALL   ?CALL_IND
        MOV     DPL,R6
        MOV     DPH,R7
        LCALL   ??Subroutine29_0 & 0xFFFF
//  768       rtrn = TRUE;
??CrossCallReturnLabel_47:
        MOV     R2,#0x1
        SJMP    ??afFindSimpleDesc_2
//  769     }
//  770     else
//  771     {
//  772       *ppDesc = epItem->epDesc->simpleDesc;
??afFindSimpleDesc_1:
        MOV     DPL,R4
        MOV     DPH,R5
        LCALL   ?Subroutine13 & 0xFFFF
//  773     }
//  774   }
??CrossCallReturnLabel_12:
        MOV     DPL,R6
        MOV     DPH,R7
        MOV     A,R0
        MOVX    @DPTR,A
        INC     DPTR
        MOV     A,R1
        SJMP    ??afFindSimpleDesc_3
//  775   else
//  776   {
//  777     *ppDesc = NULL;
??afFindSimpleDesc_0:
        MOV     DPL,R6
        MOV     DPH,R7
        CLR     A
        MOVX    @DPTR,A
        INC     DPTR
??afFindSimpleDesc_3:
        MOVX    @DPTR,A
//  778   }
//  779 
//  780   return rtrn;
??afFindSimpleDesc_2:
        MOV     A,R2
        MOV     R1,A
        LJMP    ?Subroutine1 & 0xFFFF
//  781 }
          CFI EndBlock cfiBlock136

        RSEG BANKED_CODE:CODE:NOROOT(0)
?Subroutine13:
          CFI Block cfiCond137 Using cfiCommon0
          CFI Function afIncomingData
          CFI Conditional ??CrossCallReturnLabel_11
          CFI R6 load(1, XDATA, add(CFA_XSP16, literal(-16)))
          CFI VB load(1, XDATA, add(CFA_XSP16, literal(-15)))
          CFI V0 load(1, XDATA, add(CFA_XSP16, literal(-14)))
          CFI V1 load(1, XDATA, add(CFA_XSP16, literal(-13)))
          CFI V2 load(1, XDATA, add(CFA_XSP16, literal(-12)))
          CFI V3 load(1, XDATA, add(CFA_XSP16, literal(-11)))
          CFI V4 load(1, XDATA, add(CFA_XSP16, literal(-10)))
          CFI V5 load(1, XDATA, add(CFA_XSP16, literal(-9)))
          CFI V6 load(1, XDATA, add(CFA_XSP16, literal(-8)))
          CFI V7 load(1, XDATA, add(CFA_XSP16, literal(-7)))
          CFI R7 load(1, XDATA, add(CFA_XSP16, literal(-6)))
          CFI ?RET_LOW load(1, XDATA, add(CFA_XSP16, literal(-5)))
          CFI ?RET_HIGH load(1, XDATA, add(CFA_XSP16, literal(-4)))
          CFI ?BRET_EXT load(1, XDATA, add(CFA_XSP16, literal(-3)))
          CFI DPL0 load(1, XDATA, add(CFA_XSP16, literal(-2)))
          CFI DPH0 load(1, XDATA, add(CFA_XSP16, literal(-1)))
          CFI CFA_SP SP+-2
          CFI CFA_XSP16 add(XSP16, 28)
          CFI Block cfiCond138 Using cfiCommon0
          CFI (cfiCond138) Function afFindSimpleDesc
          CFI (cfiCond138) Conditional ??CrossCallReturnLabel_12
          CFI (cfiCond138) R6 load(1, XDATA, add(CFA_XSP16, literal(-12)))
          CFI (cfiCond138) VB load(1, XDATA, add(CFA_XSP16, literal(-11)))
          CFI (cfiCond138) V0 load(1, XDATA, add(CFA_XSP16, literal(-10)))
          CFI (cfiCond138) V1 load(1, XDATA, add(CFA_XSP16, literal(-9)))
          CFI (cfiCond138) V2 load(1, XDATA, add(CFA_XSP16, literal(-8)))
          CFI (cfiCond138) V3 load(1, XDATA, add(CFA_XSP16, literal(-7)))
          CFI (cfiCond138) R7 load(1, XDATA, add(CFA_XSP16, literal(-6)))
          CFI (cfiCond138) ?RET_LOW load(1, XDATA, add(CFA_XSP16, literal(-5)))
          CFI (cfiCond138) ?RET_HIGH load(1, XDATA, add(CFA_XSP16, literal(-4)))
          CFI (cfiCond138) ?BRET_EXT load(1, XDATA, add(CFA_XSP16, literal(-3)))
          CFI (cfiCond138) DPL0 load(1, XDATA, add(CFA_XSP16, literal(-2)))
          CFI (cfiCond138) DPH0 load(1, XDATA, add(CFA_XSP16, literal(-1)))
          CFI (cfiCond138) CFA_SP SP+-2
          CFI (cfiCond138) CFA_XSP16 add(XSP16, 12)
          CFI Block cfiPicker139 Using cfiCommon1
          CFI (cfiPicker139) NoFunction
          CFI (cfiPicker139) Picker
        LCALL   ?Subroutine23 & 0xFFFF
??CrossCallReturnLabel_29:
        LCALL   ?Subroutine25 & 0xFFFF
??CrossCallReturnLabel_62:
        RET
          CFI (cfiCond137) CFA_SP SP+0
          CFI (cfiCond138) CFA_SP SP+0
          CFI (cfiPicker139) CFA_SP SP+0
          CFI EndBlock cfiCond137
          CFI EndBlock cfiCond138
          CFI EndBlock cfiPicker139

        RSEG BANKED_CODE:CODE:NOROOT(0)
?Subroutine25:
          CFI Block cfiCond140 Using cfiCommon0
          CFI Function afIncomingData
          CFI Conditional ??CrossCallReturnLabel_63, ??CrossCallReturnLabel_15
          CFI R6 load(1, XDATA, add(CFA_XSP16, literal(-16)))
          CFI VB load(1, XDATA, add(CFA_XSP16, literal(-15)))
          CFI V0 load(1, XDATA, add(CFA_XSP16, literal(-14)))
          CFI V1 load(1, XDATA, add(CFA_XSP16, literal(-13)))
          CFI V2 load(1, XDATA, add(CFA_XSP16, literal(-12)))
          CFI V3 load(1, XDATA, add(CFA_XSP16, literal(-11)))
          CFI V4 load(1, XDATA, add(CFA_XSP16, literal(-10)))
          CFI V5 load(1, XDATA, add(CFA_XSP16, literal(-9)))
          CFI V6 load(1, XDATA, add(CFA_XSP16, literal(-8)))
          CFI V7 load(1, XDATA, add(CFA_XSP16, literal(-7)))
          CFI R7 load(1, XDATA, add(CFA_XSP16, literal(-6)))
          CFI ?RET_LOW load(1, XDATA, add(CFA_XSP16, literal(-5)))
          CFI ?RET_HIGH load(1, XDATA, add(CFA_XSP16, literal(-4)))
          CFI ?BRET_EXT load(1, XDATA, add(CFA_XSP16, literal(-3)))
          CFI DPL0 load(1, XDATA, add(CFA_XSP16, literal(-2)))
          CFI DPH0 load(1, XDATA, add(CFA_XSP16, literal(-1)))
          CFI CFA_SP SP+-4
          CFI CFA_XSP16 add(XSP16, 28)
          CFI Block cfiCond141 Using cfiCommon0
          CFI (cfiCond141) Function afIncomingData
          CFI (cfiCond141) Conditional ??CrossCallReturnLabel_63, ??CrossCallReturnLabel_16
          CFI (cfiCond141) R6 load(1, XDATA, add(CFA_XSP16, literal(-16)))
          CFI (cfiCond141) VB load(1, XDATA, add(CFA_XSP16, literal(-15)))
          CFI (cfiCond141) V0 load(1, XDATA, add(CFA_XSP16, literal(-14)))
          CFI (cfiCond141) V1 load(1, XDATA, add(CFA_XSP16, literal(-13)))
          CFI (cfiCond141) V2 load(1, XDATA, add(CFA_XSP16, literal(-12)))
          CFI (cfiCond141) V3 load(1, XDATA, add(CFA_XSP16, literal(-11)))
          CFI (cfiCond141) V4 load(1, XDATA, add(CFA_XSP16, literal(-10)))
          CFI (cfiCond141) V5 load(1, XDATA, add(CFA_XSP16, literal(-9)))
          CFI (cfiCond141) V6 load(1, XDATA, add(CFA_XSP16, literal(-8)))
          CFI (cfiCond141) V7 load(1, XDATA, add(CFA_XSP16, literal(-7)))
          CFI (cfiCond141) R7 load(1, XDATA, add(CFA_XSP16, literal(-6)))
          CFI (cfiCond141) ?RET_LOW load(1, XDATA, add(CFA_XSP16, literal(-5)))
          CFI (cfiCond141) ?RET_HIGH load(1, XDATA, add(CFA_XSP16, literal(-4)))
          CFI (cfiCond141) ?BRET_EXT load(1, XDATA, add(CFA_XSP16, literal(-3)))
          CFI (cfiCond141) DPL0 load(1, XDATA, add(CFA_XSP16, literal(-2)))
          CFI (cfiCond141) DPH0 load(1, XDATA, add(CFA_XSP16, literal(-1)))
          CFI (cfiCond141) CFA_SP SP+-4
          CFI (cfiCond141) CFA_XSP16 add(XSP16, 28)
          CFI Block cfiCond142 Using cfiCommon0
          CFI (cfiCond142) Function afIncomingData
          CFI (cfiCond142) Conditional ??CrossCallReturnLabel_63, ??CrossCallReturnLabel_17
          CFI (cfiCond142) R6 load(1, XDATA, add(CFA_XSP16, literal(-16)))
          CFI (cfiCond142) VB load(1, XDATA, add(CFA_XSP16, literal(-15)))
          CFI (cfiCond142) V0 load(1, XDATA, add(CFA_XSP16, literal(-14)))
          CFI (cfiCond142) V1 load(1, XDATA, add(CFA_XSP16, literal(-13)))
          CFI (cfiCond142) V2 load(1, XDATA, add(CFA_XSP16, literal(-12)))
          CFI (cfiCond142) V3 load(1, XDATA, add(CFA_XSP16, literal(-11)))
          CFI (cfiCond142) V4 load(1, XDATA, add(CFA_XSP16, literal(-10)))
          CFI (cfiCond142) V5 load(1, XDATA, add(CFA_XSP16, literal(-9)))
          CFI (cfiCond142) V6 load(1, XDATA, add(CFA_XSP16, literal(-8)))
          CFI (cfiCond142) V7 load(1, XDATA, add(CFA_XSP16, literal(-7)))
          CFI (cfiCond142) R7 load(1, XDATA, add(CFA_XSP16, literal(-6)))
          CFI (cfiCond142) ?RET_LOW load(1, XDATA, add(CFA_XSP16, literal(-5)))
          CFI (cfiCond142) ?RET_HIGH load(1, XDATA, add(CFA_XSP16, literal(-4)))
          CFI (cfiCond142) ?BRET_EXT load(1, XDATA, add(CFA_XSP16, literal(-3)))
          CFI (cfiCond142) DPL0 load(1, XDATA, add(CFA_XSP16, literal(-2)))
          CFI (cfiCond142) DPH0 load(1, XDATA, add(CFA_XSP16, literal(-1)))
          CFI (cfiCond142) CFA_SP SP+-4
          CFI (cfiCond142) CFA_XSP16 add(XSP16, 28)
          CFI Block cfiCond143 Using cfiCommon0
          CFI (cfiCond143) Function afBuildMSGIncoming
          CFI (cfiCond143) Conditional ??CrossCallReturnLabel_64, ??CrossCallReturnLabel_18
          CFI (cfiCond143) R6 load(1, XDATA, add(CFA_XSP16, literal(-16)))
          CFI (cfiCond143) VB load(1, XDATA, add(CFA_XSP16, literal(-15)))
          CFI (cfiCond143) V0 load(1, XDATA, add(CFA_XSP16, literal(-14)))
          CFI (cfiCond143) V1 load(1, XDATA, add(CFA_XSP16, literal(-13)))
          CFI (cfiCond143) V2 load(1, XDATA, add(CFA_XSP16, literal(-12)))
          CFI (cfiCond143) V3 load(1, XDATA, add(CFA_XSP16, literal(-11)))
          CFI (cfiCond143) V4 load(1, XDATA, add(CFA_XSP16, literal(-10)))
          CFI (cfiCond143) V5 load(1, XDATA, add(CFA_XSP16, literal(-9)))
          CFI (cfiCond143) V6 load(1, XDATA, add(CFA_XSP16, literal(-8)))
          CFI (cfiCond143) V7 load(1, XDATA, add(CFA_XSP16, literal(-7)))
          CFI (cfiCond143) R7 load(1, XDATA, add(CFA_XSP16, literal(-6)))
          CFI (cfiCond143) ?RET_LOW load(1, XDATA, add(CFA_XSP16, literal(-5)))
          CFI (cfiCond143) ?RET_HIGH load(1, XDATA, add(CFA_XSP16, literal(-4)))
          CFI (cfiCond143) ?BRET_EXT load(1, XDATA, add(CFA_XSP16, literal(-3)))
          CFI (cfiCond143) DPL0 load(1, XDATA, add(CFA_XSP16, literal(-2)))
          CFI (cfiCond143) DPH0 load(1, XDATA, add(CFA_XSP16, literal(-1)))
          CFI (cfiCond143) CFA_SP SP+-4
          CFI (cfiCond143) CFA_XSP16 add(XSP16, 19)
          CFI Block cfiCond144 Using cfiCommon0
          CFI (cfiCond144) Function afBuildMSGIncoming
          CFI (cfiCond144) Conditional ??CrossCallReturnLabel_64, ??CrossCallReturnLabel_19
          CFI (cfiCond144) R6 load(1, XDATA, add(CFA_XSP16, literal(-16)))
          CFI (cfiCond144) VB load(1, XDATA, add(CFA_XSP16, literal(-15)))
          CFI (cfiCond144) V0 load(1, XDATA, add(CFA_XSP16, literal(-14)))
          CFI (cfiCond144) V1 load(1, XDATA, add(CFA_XSP16, literal(-13)))
          CFI (cfiCond144) V2 load(1, XDATA, add(CFA_XSP16, literal(-12)))
          CFI (cfiCond144) V3 load(1, XDATA, add(CFA_XSP16, literal(-11)))
          CFI (cfiCond144) V4 load(1, XDATA, add(CFA_XSP16, literal(-10)))
          CFI (cfiCond144) V5 load(1, XDATA, add(CFA_XSP16, literal(-9)))
          CFI (cfiCond144) V6 load(1, XDATA, add(CFA_XSP16, literal(-8)))
          CFI (cfiCond144) V7 load(1, XDATA, add(CFA_XSP16, literal(-7)))
          CFI (cfiCond144) R7 load(1, XDATA, add(CFA_XSP16, literal(-6)))
          CFI (cfiCond144) ?RET_LOW load(1, XDATA, add(CFA_XSP16, literal(-5)))
          CFI (cfiCond144) ?RET_HIGH load(1, XDATA, add(CFA_XSP16, literal(-4)))
          CFI (cfiCond144) ?BRET_EXT load(1, XDATA, add(CFA_XSP16, literal(-3)))
          CFI (cfiCond144) DPL0 load(1, XDATA, add(CFA_XSP16, literal(-2)))
          CFI (cfiCond144) DPH0 load(1, XDATA, add(CFA_XSP16, literal(-1)))
          CFI (cfiCond144) CFA_SP SP+-4
          CFI (cfiCond144) CFA_XSP16 add(XSP16, 19)
          CFI Block cfiCond145 Using cfiCommon0
          CFI (cfiCond145) Function afBuildMSGIncoming
          CFI (cfiCond145) Conditional ??CrossCallReturnLabel_65, ??CrossCallReturnLabel_58
          CFI (cfiCond145) R6 load(1, XDATA, add(CFA_XSP16, literal(-16)))
          CFI (cfiCond145) VB load(1, XDATA, add(CFA_XSP16, literal(-15)))
          CFI (cfiCond145) V0 load(1, XDATA, add(CFA_XSP16, literal(-14)))
          CFI (cfiCond145) V1 load(1, XDATA, add(CFA_XSP16, literal(-13)))
          CFI (cfiCond145) V2 load(1, XDATA, add(CFA_XSP16, literal(-12)))
          CFI (cfiCond145) V3 load(1, XDATA, add(CFA_XSP16, literal(-11)))
          CFI (cfiCond145) V4 load(1, XDATA, add(CFA_XSP16, literal(-10)))
          CFI (cfiCond145) V5 load(1, XDATA, add(CFA_XSP16, literal(-9)))
          CFI (cfiCond145) V6 load(1, XDATA, add(CFA_XSP16, literal(-8)))
          CFI (cfiCond145) V7 load(1, XDATA, add(CFA_XSP16, literal(-7)))
          CFI (cfiCond145) R7 load(1, XDATA, add(CFA_XSP16, literal(-6)))
          CFI (cfiCond145) ?RET_LOW load(1, XDATA, add(CFA_XSP16, literal(-5)))
          CFI (cfiCond145) ?RET_HIGH load(1, XDATA, add(CFA_XSP16, literal(-4)))
          CFI (cfiCond145) ?BRET_EXT load(1, XDATA, add(CFA_XSP16, literal(-3)))
          CFI (cfiCond145) DPL0 load(1, XDATA, add(CFA_XSP16, literal(-2)))
          CFI (cfiCond145) DPH0 load(1, XDATA, add(CFA_XSP16, literal(-1)))
          CFI (cfiCond145) CFA_SP SP+-4
          CFI (cfiCond145) CFA_XSP16 add(XSP16, 19)
          CFI Block cfiCond146 Using cfiCommon0
          CFI (cfiCond146) Function AF_DataRequest
          CFI (cfiCond146) Conditional ??CrossCallReturnLabel_65, ??CrossCallReturnLabel_59
          CFI (cfiCond146) R6 load(1, XDATA, add(CFA_XSP16, literal(-15)))
          CFI (cfiCond146) VB load(1, XDATA, add(CFA_XSP16, literal(-14)))
          CFI (cfiCond146) V0 load(1, XDATA, add(CFA_XSP16, literal(-13)))
          CFI (cfiCond146) V1 load(1, XDATA, add(CFA_XSP16, literal(-12)))
          CFI (cfiCond146) V2 load(1, XDATA, add(CFA_XSP16, literal(-11)))
          CFI (cfiCond146) V3 load(1, XDATA, add(CFA_XSP16, literal(-10)))
          CFI (cfiCond146) V4 load(1, XDATA, add(CFA_XSP16, literal(-9)))
          CFI (cfiCond146) V5 load(1, XDATA, add(CFA_XSP16, literal(-8)))
          CFI (cfiCond146) V6 load(1, XDATA, add(CFA_XSP16, literal(-7)))
          CFI (cfiCond146) R7 load(1, XDATA, add(CFA_XSP16, literal(-6)))
          CFI (cfiCond146) ?RET_LOW load(1, XDATA, add(CFA_XSP16, literal(-5)))
          CFI (cfiCond146) ?RET_HIGH load(1, XDATA, add(CFA_XSP16, literal(-4)))
          CFI (cfiCond146) ?BRET_EXT load(1, XDATA, add(CFA_XSP16, literal(-3)))
          CFI (cfiCond146) DPL0 load(1, XDATA, add(CFA_XSP16, literal(-2)))
          CFI (cfiCond146) DPH0 load(1, XDATA, add(CFA_XSP16, literal(-1)))
          CFI (cfiCond146) CFA_SP SP+-4
          CFI (cfiCond146) CFA_XSP16 add(XSP16, 45)
          CFI Block cfiCond147 Using cfiCommon0
          CFI (cfiCond147) Function afBuildMSGIncoming
          CFI (cfiCond147) Conditional ??CrossCallReturnLabel_65, ??CrossCallReturnLabel_50
          CFI (cfiCond147) R6 load(1, XDATA, add(CFA_XSP16, literal(-16)))
          CFI (cfiCond147) VB load(1, XDATA, add(CFA_XSP16, literal(-15)))
          CFI (cfiCond147) V0 load(1, XDATA, add(CFA_XSP16, literal(-14)))
          CFI (cfiCond147) V1 load(1, XDATA, add(CFA_XSP16, literal(-13)))
          CFI (cfiCond147) V2 load(1, XDATA, add(CFA_XSP16, literal(-12)))
          CFI (cfiCond147) V3 load(1, XDATA, add(CFA_XSP16, literal(-11)))
          CFI (cfiCond147) V4 load(1, XDATA, add(CFA_XSP16, literal(-10)))
          CFI (cfiCond147) V5 load(1, XDATA, add(CFA_XSP16, literal(-9)))
          CFI (cfiCond147) V6 load(1, XDATA, add(CFA_XSP16, literal(-8)))
          CFI (cfiCond147) V7 load(1, XDATA, add(CFA_XSP16, literal(-7)))
          CFI (cfiCond147) R7 load(1, XDATA, add(CFA_XSP16, literal(-6)))
          CFI (cfiCond147) ?RET_LOW load(1, XDATA, add(CFA_XSP16, literal(-5)))
          CFI (cfiCond147) ?RET_HIGH load(1, XDATA, add(CFA_XSP16, literal(-4)))
          CFI (cfiCond147) ?BRET_EXT load(1, XDATA, add(CFA_XSP16, literal(-3)))
          CFI (cfiCond147) DPL0 load(1, XDATA, add(CFA_XSP16, literal(-2)))
          CFI (cfiCond147) DPH0 load(1, XDATA, add(CFA_XSP16, literal(-1)))
          CFI (cfiCond147) CFA_SP SP+-4
          CFI (cfiCond147) CFA_XSP16 add(XSP16, 19)
          CFI Block cfiCond148 Using cfiCommon0
          CFI (cfiCond148) Function afBuildMSGIncoming
          CFI (cfiCond148) Conditional ??CrossCallReturnLabel_65, ??CrossCallReturnLabel_51
          CFI (cfiCond148) R6 load(1, XDATA, add(CFA_XSP16, literal(-16)))
          CFI (cfiCond148) VB load(1, XDATA, add(CFA_XSP16, literal(-15)))
          CFI (cfiCond148) V0 load(1, XDATA, add(CFA_XSP16, literal(-14)))
          CFI (cfiCond148) V1 load(1, XDATA, add(CFA_XSP16, literal(-13)))
          CFI (cfiCond148) V2 load(1, XDATA, add(CFA_XSP16, literal(-12)))
          CFI (cfiCond148) V3 load(1, XDATA, add(CFA_XSP16, literal(-11)))
          CFI (cfiCond148) V4 load(1, XDATA, add(CFA_XSP16, literal(-10)))
          CFI (cfiCond148) V5 load(1, XDATA, add(CFA_XSP16, literal(-9)))
          CFI (cfiCond148) V6 load(1, XDATA, add(CFA_XSP16, literal(-8)))
          CFI (cfiCond148) V7 load(1, XDATA, add(CFA_XSP16, literal(-7)))
          CFI (cfiCond148) R7 load(1, XDATA, add(CFA_XSP16, literal(-6)))
          CFI (cfiCond148) ?RET_LOW load(1, XDATA, add(CFA_XSP16, literal(-5)))
          CFI (cfiCond148) ?RET_HIGH load(1, XDATA, add(CFA_XSP16, literal(-4)))
          CFI (cfiCond148) ?BRET_EXT load(1, XDATA, add(CFA_XSP16, literal(-3)))
          CFI (cfiCond148) DPL0 load(1, XDATA, add(CFA_XSP16, literal(-2)))
          CFI (cfiCond148) DPH0 load(1, XDATA, add(CFA_XSP16, literal(-1)))
          CFI (cfiCond148) CFA_SP SP+-4
          CFI (cfiCond148) CFA_XSP16 add(XSP16, 19)
          CFI Block cfiCond149 Using cfiCommon0
          CFI (cfiCond149) Function AF_DataRequest
          CFI (cfiCond149) Conditional ??CrossCallReturnLabel_65, ??CrossCallReturnLabel_52
          CFI (cfiCond149) R6 load(1, XDATA, add(CFA_XSP16, literal(-15)))
          CFI (cfiCond149) VB load(1, XDATA, add(CFA_XSP16, literal(-14)))
          CFI (cfiCond149) V0 load(1, XDATA, add(CFA_XSP16, literal(-13)))
          CFI (cfiCond149) V1 load(1, XDATA, add(CFA_XSP16, literal(-12)))
          CFI (cfiCond149) V2 load(1, XDATA, add(CFA_XSP16, literal(-11)))
          CFI (cfiCond149) V3 load(1, XDATA, add(CFA_XSP16, literal(-10)))
          CFI (cfiCond149) V4 load(1, XDATA, add(CFA_XSP16, literal(-9)))
          CFI (cfiCond149) V5 load(1, XDATA, add(CFA_XSP16, literal(-8)))
          CFI (cfiCond149) V6 load(1, XDATA, add(CFA_XSP16, literal(-7)))
          CFI (cfiCond149) R7 load(1, XDATA, add(CFA_XSP16, literal(-6)))
          CFI (cfiCond149) ?RET_LOW load(1, XDATA, add(CFA_XSP16, literal(-5)))
          CFI (cfiCond149) ?RET_HIGH load(1, XDATA, add(CFA_XSP16, literal(-4)))
          CFI (cfiCond149) ?BRET_EXT load(1, XDATA, add(CFA_XSP16, literal(-3)))
          CFI (cfiCond149) DPL0 load(1, XDATA, add(CFA_XSP16, literal(-2)))
          CFI (cfiCond149) DPH0 load(1, XDATA, add(CFA_XSP16, literal(-1)))
          CFI (cfiCond149) CFA_SP SP+-4
          CFI (cfiCond149) CFA_XSP16 add(XSP16, 45)
          CFI Block cfiCond150 Using cfiCommon0
          CFI (cfiCond150) Function AF_DataRequest
          CFI (cfiCond150) Conditional ??CrossCallReturnLabel_65, ??CrossCallReturnLabel_53
          CFI (cfiCond150) R6 load(1, XDATA, add(CFA_XSP16, literal(-15)))
          CFI (cfiCond150) VB load(1, XDATA, add(CFA_XSP16, literal(-14)))
          CFI (cfiCond150) V0 load(1, XDATA, add(CFA_XSP16, literal(-13)))
          CFI (cfiCond150) V1 load(1, XDATA, add(CFA_XSP16, literal(-12)))
          CFI (cfiCond150) V2 load(1, XDATA, add(CFA_XSP16, literal(-11)))
          CFI (cfiCond150) V3 load(1, XDATA, add(CFA_XSP16, literal(-10)))
          CFI (cfiCond150) V4 load(1, XDATA, add(CFA_XSP16, literal(-9)))
          CFI (cfiCond150) V5 load(1, XDATA, add(CFA_XSP16, literal(-8)))
          CFI (cfiCond150) V6 load(1, XDATA, add(CFA_XSP16, literal(-7)))
          CFI (cfiCond150) R7 load(1, XDATA, add(CFA_XSP16, literal(-6)))
          CFI (cfiCond150) ?RET_LOW load(1, XDATA, add(CFA_XSP16, literal(-5)))
          CFI (cfiCond150) ?RET_HIGH load(1, XDATA, add(CFA_XSP16, literal(-4)))
          CFI (cfiCond150) ?BRET_EXT load(1, XDATA, add(CFA_XSP16, literal(-3)))
          CFI (cfiCond150) DPL0 load(1, XDATA, add(CFA_XSP16, literal(-2)))
          CFI (cfiCond150) DPH0 load(1, XDATA, add(CFA_XSP16, literal(-1)))
          CFI (cfiCond150) CFA_SP SP+-4
          CFI (cfiCond150) CFA_XSP16 add(XSP16, 45)
          CFI Block cfiCond151 Using cfiCommon0
          CFI (cfiCond151) Function AF_DataRequest
          CFI (cfiCond151) Conditional ??CrossCallReturnLabel_65, ??CrossCallReturnLabel_54
          CFI (cfiCond151) R6 load(1, XDATA, add(CFA_XSP16, literal(-15)))
          CFI (cfiCond151) VB load(1, XDATA, add(CFA_XSP16, literal(-14)))
          CFI (cfiCond151) V0 load(1, XDATA, add(CFA_XSP16, literal(-13)))
          CFI (cfiCond151) V1 load(1, XDATA, add(CFA_XSP16, literal(-12)))
          CFI (cfiCond151) V2 load(1, XDATA, add(CFA_XSP16, literal(-11)))
          CFI (cfiCond151) V3 load(1, XDATA, add(CFA_XSP16, literal(-10)))
          CFI (cfiCond151) V4 load(1, XDATA, add(CFA_XSP16, literal(-9)))
          CFI (cfiCond151) V5 load(1, XDATA, add(CFA_XSP16, literal(-8)))
          CFI (cfiCond151) V6 load(1, XDATA, add(CFA_XSP16, literal(-7)))
          CFI (cfiCond151) R7 load(1, XDATA, add(CFA_XSP16, literal(-6)))
          CFI (cfiCond151) ?RET_LOW load(1, XDATA, add(CFA_XSP16, literal(-5)))
          CFI (cfiCond151) ?RET_HIGH load(1, XDATA, add(CFA_XSP16, literal(-4)))
          CFI (cfiCond151) ?BRET_EXT load(1, XDATA, add(CFA_XSP16, literal(-3)))
          CFI (cfiCond151) DPL0 load(1, XDATA, add(CFA_XSP16, literal(-2)))
          CFI (cfiCond151) DPH0 load(1, XDATA, add(CFA_XSP16, literal(-1)))
          CFI (cfiCond151) CFA_SP SP+-4
          CFI (cfiCond151) CFA_XSP16 add(XSP16, 45)
          CFI Block cfiCond152 Using cfiCommon0
          CFI (cfiCond152) Function AF_DataRequest
          CFI (cfiCond152) Conditional ??CrossCallReturnLabel_65, ??CrossCallReturnLabel_55
          CFI (cfiCond152) R6 load(1, XDATA, add(CFA_XSP16, literal(-15)))
          CFI (cfiCond152) VB load(1, XDATA, add(CFA_XSP16, literal(-14)))
          CFI (cfiCond152) V0 load(1, XDATA, add(CFA_XSP16, literal(-13)))
          CFI (cfiCond152) V1 load(1, XDATA, add(CFA_XSP16, literal(-12)))
          CFI (cfiCond152) V2 load(1, XDATA, add(CFA_XSP16, literal(-11)))
          CFI (cfiCond152) V3 load(1, XDATA, add(CFA_XSP16, literal(-10)))
          CFI (cfiCond152) V4 load(1, XDATA, add(CFA_XSP16, literal(-9)))
          CFI (cfiCond152) V5 load(1, XDATA, add(CFA_XSP16, literal(-8)))
          CFI (cfiCond152) V6 load(1, XDATA, add(CFA_XSP16, literal(-7)))
          CFI (cfiCond152) R7 load(1, XDATA, add(CFA_XSP16, literal(-6)))
          CFI (cfiCond152) ?RET_LOW load(1, XDATA, add(CFA_XSP16, literal(-5)))
          CFI (cfiCond152) ?RET_HIGH load(1, XDATA, add(CFA_XSP16, literal(-4)))
          CFI (cfiCond152) ?BRET_EXT load(1, XDATA, add(CFA_XSP16, literal(-3)))
          CFI (cfiCond152) DPL0 load(1, XDATA, add(CFA_XSP16, literal(-2)))
          CFI (cfiCond152) DPH0 load(1, XDATA, add(CFA_XSP16, literal(-1)))
          CFI (cfiCond152) CFA_SP SP+-4
          CFI (cfiCond152) CFA_XSP16 add(XSP16, 45)
          CFI Block cfiCond153 Using cfiCommon0
          CFI (cfiCond153) Function AF_DataRequest
          CFI (cfiCond153) Conditional ??CrossCallReturnLabel_65, ??CrossCallReturnLabel_56
          CFI (cfiCond153) R6 load(1, XDATA, add(CFA_XSP16, literal(-15)))
          CFI (cfiCond153) VB load(1, XDATA, add(CFA_XSP16, literal(-14)))
          CFI (cfiCond153) V0 load(1, XDATA, add(CFA_XSP16, literal(-13)))
          CFI (cfiCond153) V1 load(1, XDATA, add(CFA_XSP16, literal(-12)))
          CFI (cfiCond153) V2 load(1, XDATA, add(CFA_XSP16, literal(-11)))
          CFI (cfiCond153) V3 load(1, XDATA, add(CFA_XSP16, literal(-10)))
          CFI (cfiCond153) V4 load(1, XDATA, add(CFA_XSP16, literal(-9)))
          CFI (cfiCond153) V5 load(1, XDATA, add(CFA_XSP16, literal(-8)))
          CFI (cfiCond153) V6 load(1, XDATA, add(CFA_XSP16, literal(-7)))
          CFI (cfiCond153) R7 load(1, XDATA, add(CFA_XSP16, literal(-6)))
          CFI (cfiCond153) ?RET_LOW load(1, XDATA, add(CFA_XSP16, literal(-5)))
          CFI (cfiCond153) ?RET_HIGH load(1, XDATA, add(CFA_XSP16, literal(-4)))
          CFI (cfiCond153) ?BRET_EXT load(1, XDATA, add(CFA_XSP16, literal(-3)))
          CFI (cfiCond153) DPL0 load(1, XDATA, add(CFA_XSP16, literal(-2)))
          CFI (cfiCond153) DPH0 load(1, XDATA, add(CFA_XSP16, literal(-1)))
          CFI (cfiCond153) CFA_SP SP+-4
          CFI (cfiCond153) CFA_XSP16 add(XSP16, 45)
          CFI Block cfiCond154 Using cfiCommon0
          CFI (cfiCond154) Function afCopyAddress
          CFI (cfiCond154) Conditional ??CrossCallReturnLabel_65, ??CrossCallReturnLabel_57
          CFI (cfiCond154) R6 load(1, XDATA, add(CFA_XSP16, literal(-9)))
          CFI (cfiCond154) VB load(1, XDATA, add(CFA_XSP16, literal(-8)))
          CFI (cfiCond154) V0 load(1, XDATA, add(CFA_XSP16, literal(-7)))
          CFI (cfiCond154) R7 load(1, XDATA, add(CFA_XSP16, literal(-6)))
          CFI (cfiCond154) ?RET_LOW load(1, XDATA, add(CFA_XSP16, literal(-5)))
          CFI (cfiCond154) ?RET_HIGH load(1, XDATA, add(CFA_XSP16, literal(-4)))
          CFI (cfiCond154) ?BRET_EXT load(1, XDATA, add(CFA_XSP16, literal(-3)))
          CFI (cfiCond154) DPL0 load(1, XDATA, add(CFA_XSP16, literal(-2)))
          CFI (cfiCond154) DPH0 load(1, XDATA, add(CFA_XSP16, literal(-1)))
          CFI (cfiCond154) CFA_SP SP+-4
          CFI (cfiCond154) CFA_XSP16 add(XSP16, 9)
          CFI Block cfiCond155 Using cfiCommon0
          CFI (cfiCond155) Function afRegisterExtended
          CFI (cfiCond155) Conditional ??CrossCallReturnLabel_61, ??CrossCallReturnLabel_4
          CFI (cfiCond155) R6 load(1, XDATA, add(CFA_XSP16, literal(-12)))
          CFI (cfiCond155) VB load(1, XDATA, add(CFA_XSP16, literal(-11)))
          CFI (cfiCond155) V0 load(1, XDATA, add(CFA_XSP16, literal(-10)))
          CFI (cfiCond155) V1 load(1, XDATA, add(CFA_XSP16, literal(-9)))
          CFI (cfiCond155) V2 load(1, XDATA, add(CFA_XSP16, literal(-8)))
          CFI (cfiCond155) V3 load(1, XDATA, add(CFA_XSP16, literal(-7)))
          CFI (cfiCond155) R7 load(1, XDATA, add(CFA_XSP16, literal(-6)))
          CFI (cfiCond155) ?RET_LOW load(1, XDATA, add(CFA_XSP16, literal(-5)))
          CFI (cfiCond155) ?RET_HIGH load(1, XDATA, add(CFA_XSP16, literal(-4)))
          CFI (cfiCond155) ?BRET_EXT load(1, XDATA, add(CFA_XSP16, literal(-3)))
          CFI (cfiCond155) DPL0 load(1, XDATA, add(CFA_XSP16, literal(-2)))
          CFI (cfiCond155) DPH0 load(1, XDATA, add(CFA_XSP16, literal(-1)))
          CFI (cfiCond155) CFA_SP SP+-4
          CFI (cfiCond155) CFA_XSP16 add(XSP16, 12)
          CFI Block cfiCond156 Using cfiCommon0
          CFI (cfiCond156) Function afRegisterExtended
          CFI (cfiCond156) Conditional ??CrossCallReturnLabel_61, ??CrossCallReturnLabel_5
          CFI (cfiCond156) R6 load(1, XDATA, add(CFA_XSP16, literal(-12)))
          CFI (cfiCond156) VB load(1, XDATA, add(CFA_XSP16, literal(-11)))
          CFI (cfiCond156) V0 load(1, XDATA, add(CFA_XSP16, literal(-10)))
          CFI (cfiCond156) V1 load(1, XDATA, add(CFA_XSP16, literal(-9)))
          CFI (cfiCond156) V2 load(1, XDATA, add(CFA_XSP16, literal(-8)))
          CFI (cfiCond156) V3 load(1, XDATA, add(CFA_XSP16, literal(-7)))
          CFI (cfiCond156) R7 load(1, XDATA, add(CFA_XSP16, literal(-6)))
          CFI (cfiCond156) ?RET_LOW load(1, XDATA, add(CFA_XSP16, literal(-5)))
          CFI (cfiCond156) ?RET_HIGH load(1, XDATA, add(CFA_XSP16, literal(-4)))
          CFI (cfiCond156) ?BRET_EXT load(1, XDATA, add(CFA_XSP16, literal(-3)))
          CFI (cfiCond156) DPL0 load(1, XDATA, add(CFA_XSP16, literal(-2)))
          CFI (cfiCond156) DPH0 load(1, XDATA, add(CFA_XSP16, literal(-1)))
          CFI (cfiCond156) CFA_SP SP+-4
          CFI (cfiCond156) CFA_XSP16 add(XSP16, 12)
          CFI Block cfiCond157 Using cfiCommon0
          CFI (cfiCond157) Function afIncomingData
          CFI (cfiCond157) Conditional ??CrossCallReturnLabel_61, ??CrossCallReturnLabel_6
          CFI (cfiCond157) R6 load(1, XDATA, add(CFA_XSP16, literal(-16)))
          CFI (cfiCond157) VB load(1, XDATA, add(CFA_XSP16, literal(-15)))
          CFI (cfiCond157) V0 load(1, XDATA, add(CFA_XSP16, literal(-14)))
          CFI (cfiCond157) V1 load(1, XDATA, add(CFA_XSP16, literal(-13)))
          CFI (cfiCond157) V2 load(1, XDATA, add(CFA_XSP16, literal(-12)))
          CFI (cfiCond157) V3 load(1, XDATA, add(CFA_XSP16, literal(-11)))
          CFI (cfiCond157) V4 load(1, XDATA, add(CFA_XSP16, literal(-10)))
          CFI (cfiCond157) V5 load(1, XDATA, add(CFA_XSP16, literal(-9)))
          CFI (cfiCond157) V6 load(1, XDATA, add(CFA_XSP16, literal(-8)))
          CFI (cfiCond157) V7 load(1, XDATA, add(CFA_XSP16, literal(-7)))
          CFI (cfiCond157) R7 load(1, XDATA, add(CFA_XSP16, literal(-6)))
          CFI (cfiCond157) ?RET_LOW load(1, XDATA, add(CFA_XSP16, literal(-5)))
          CFI (cfiCond157) ?RET_HIGH load(1, XDATA, add(CFA_XSP16, literal(-4)))
          CFI (cfiCond157) ?BRET_EXT load(1, XDATA, add(CFA_XSP16, literal(-3)))
          CFI (cfiCond157) DPL0 load(1, XDATA, add(CFA_XSP16, literal(-2)))
          CFI (cfiCond157) DPH0 load(1, XDATA, add(CFA_XSP16, literal(-1)))
          CFI (cfiCond157) CFA_SP SP+-4
          CFI (cfiCond157) CFA_XSP16 add(XSP16, 28)
          CFI Block cfiCond158 Using cfiCommon0
          CFI (cfiCond158) Function AF_DataRequest
          CFI (cfiCond158) Conditional ??CrossCallReturnLabel_61, ??CrossCallReturnLabel_2
          CFI (cfiCond158) R6 load(1, XDATA, add(CFA_XSP16, literal(-15)))
          CFI (cfiCond158) VB load(1, XDATA, add(CFA_XSP16, literal(-14)))
          CFI (cfiCond158) V0 load(1, XDATA, add(CFA_XSP16, literal(-13)))
          CFI (cfiCond158) V1 load(1, XDATA, add(CFA_XSP16, literal(-12)))
          CFI (cfiCond158) V2 load(1, XDATA, add(CFA_XSP16, literal(-11)))
          CFI (cfiCond158) V3 load(1, XDATA, add(CFA_XSP16, literal(-10)))
          CFI (cfiCond158) V4 load(1, XDATA, add(CFA_XSP16, literal(-9)))
          CFI (cfiCond158) V5 load(1, XDATA, add(CFA_XSP16, literal(-8)))
          CFI (cfiCond158) V6 load(1, XDATA, add(CFA_XSP16, literal(-7)))
          CFI (cfiCond158) R7 load(1, XDATA, add(CFA_XSP16, literal(-6)))
          CFI (cfiCond158) ?RET_LOW load(1, XDATA, add(CFA_XSP16, literal(-5)))
          CFI (cfiCond158) ?RET_HIGH load(1, XDATA, add(CFA_XSP16, literal(-4)))
          CFI (cfiCond158) ?BRET_EXT load(1, XDATA, add(CFA_XSP16, literal(-3)))
          CFI (cfiCond158) DPL0 load(1, XDATA, add(CFA_XSP16, literal(-2)))
          CFI (cfiCond158) DPH0 load(1, XDATA, add(CFA_XSP16, literal(-1)))
          CFI (cfiCond158) CFA_SP SP+-4
          CFI (cfiCond158) CFA_XSP16 add(XSP16, 45)
          CFI Block cfiCond159 Using cfiCommon0
          CFI (cfiCond159) Function AF_DataRequest
          CFI (cfiCond159) Conditional ??CrossCallReturnLabel_61, ??CrossCallReturnLabel_7
          CFI (cfiCond159) R6 load(1, XDATA, add(CFA_XSP16, literal(-15)))
          CFI (cfiCond159) VB load(1, XDATA, add(CFA_XSP16, literal(-14)))
          CFI (cfiCond159) V0 load(1, XDATA, add(CFA_XSP16, literal(-13)))
          CFI (cfiCond159) V1 load(1, XDATA, add(CFA_XSP16, literal(-12)))
          CFI (cfiCond159) V2 load(1, XDATA, add(CFA_XSP16, literal(-11)))
          CFI (cfiCond159) V3 load(1, XDATA, add(CFA_XSP16, literal(-10)))
          CFI (cfiCond159) V4 load(1, XDATA, add(CFA_XSP16, literal(-9)))
          CFI (cfiCond159) V5 load(1, XDATA, add(CFA_XSP16, literal(-8)))
          CFI (cfiCond159) V6 load(1, XDATA, add(CFA_XSP16, literal(-7)))
          CFI (cfiCond159) R7 load(1, XDATA, add(CFA_XSP16, literal(-6)))
          CFI (cfiCond159) ?RET_LOW load(1, XDATA, add(CFA_XSP16, literal(-5)))
          CFI (cfiCond159) ?RET_HIGH load(1, XDATA, add(CFA_XSP16, literal(-4)))
          CFI (cfiCond159) ?BRET_EXT load(1, XDATA, add(CFA_XSP16, literal(-3)))
          CFI (cfiCond159) DPL0 load(1, XDATA, add(CFA_XSP16, literal(-2)))
          CFI (cfiCond159) DPH0 load(1, XDATA, add(CFA_XSP16, literal(-1)))
          CFI (cfiCond159) CFA_SP SP+-4
          CFI (cfiCond159) CFA_XSP16 add(XSP16, 45)
          CFI Block cfiCond160 Using cfiCommon0
          CFI (cfiCond160) Function afEndPoints
          CFI (cfiCond160) Conditional ??CrossCallReturnLabel_61, ??CrossCallReturnLabel_3
          CFI (cfiCond160) DPL0 Frame(CFA_SP, 4)
          CFI (cfiCond160) DPH0 Frame(CFA_SP, 5)
          CFI (cfiCond160) CFA_SP SP+-9
          CFI Block cfiCond161 Using cfiCommon0
          CFI (cfiCond161) Function afIncomingData
          CFI (cfiCond161) Conditional ??CrossCallReturnLabel_60, ??CrossCallReturnLabel_81
          CFI (cfiCond161) R6 load(1, XDATA, add(CFA_XSP16, literal(-16)))
          CFI (cfiCond161) VB load(1, XDATA, add(CFA_XSP16, literal(-15)))
          CFI (cfiCond161) V0 load(1, XDATA, add(CFA_XSP16, literal(-14)))
          CFI (cfiCond161) V1 load(1, XDATA, add(CFA_XSP16, literal(-13)))
          CFI (cfiCond161) V2 load(1, XDATA, add(CFA_XSP16, literal(-12)))
          CFI (cfiCond161) V3 load(1, XDATA, add(CFA_XSP16, literal(-11)))
          CFI (cfiCond161) V4 load(1, XDATA, add(CFA_XSP16, literal(-10)))
          CFI (cfiCond161) V5 load(1, XDATA, add(CFA_XSP16, literal(-9)))
          CFI (cfiCond161) V6 load(1, XDATA, add(CFA_XSP16, literal(-8)))
          CFI (cfiCond161) V7 load(1, XDATA, add(CFA_XSP16, literal(-7)))
          CFI (cfiCond161) R7 load(1, XDATA, add(CFA_XSP16, literal(-6)))
          CFI (cfiCond161) ?RET_LOW load(1, XDATA, add(CFA_XSP16, literal(-5)))
          CFI (cfiCond161) ?RET_HIGH load(1, XDATA, add(CFA_XSP16, literal(-4)))
          CFI (cfiCond161) ?BRET_EXT load(1, XDATA, add(CFA_XSP16, literal(-3)))
          CFI (cfiCond161) DPL0 load(1, XDATA, add(CFA_XSP16, literal(-2)))
          CFI (cfiCond161) DPH0 load(1, XDATA, add(CFA_XSP16, literal(-1)))
          CFI (cfiCond161) CFA_SP SP+-4
          CFI (cfiCond161) CFA_XSP16 add(XSP16, 28)
          CFI Block cfiCond162 Using cfiCommon0
          CFI (cfiCond162) Function afIncomingData
          CFI (cfiCond162) Conditional ??CrossCallReturnLabel_60, ??CrossCallReturnLabel_82
          CFI (cfiCond162) R6 load(1, XDATA, add(CFA_XSP16, literal(-16)))
          CFI (cfiCond162) VB load(1, XDATA, add(CFA_XSP16, literal(-15)))
          CFI (cfiCond162) V0 load(1, XDATA, add(CFA_XSP16, literal(-14)))
          CFI (cfiCond162) V1 load(1, XDATA, add(CFA_XSP16, literal(-13)))
          CFI (cfiCond162) V2 load(1, XDATA, add(CFA_XSP16, literal(-12)))
          CFI (cfiCond162) V3 load(1, XDATA, add(CFA_XSP16, literal(-11)))
          CFI (cfiCond162) V4 load(1, XDATA, add(CFA_XSP16, literal(-10)))
          CFI (cfiCond162) V5 load(1, XDATA, add(CFA_XSP16, literal(-9)))
          CFI (cfiCond162) V6 load(1, XDATA, add(CFA_XSP16, literal(-8)))
          CFI (cfiCond162) V7 load(1, XDATA, add(CFA_XSP16, literal(-7)))
          CFI (cfiCond162) R7 load(1, XDATA, add(CFA_XSP16, literal(-6)))
          CFI (cfiCond162) ?RET_LOW load(1, XDATA, add(CFA_XSP16, literal(-5)))
          CFI (cfiCond162) ?RET_HIGH load(1, XDATA, add(CFA_XSP16, literal(-4)))
          CFI (cfiCond162) ?BRET_EXT load(1, XDATA, add(CFA_XSP16, literal(-3)))
          CFI (cfiCond162) DPL0 load(1, XDATA, add(CFA_XSP16, literal(-2)))
          CFI (cfiCond162) DPH0 load(1, XDATA, add(CFA_XSP16, literal(-1)))
          CFI (cfiCond162) CFA_SP SP+-4
          CFI (cfiCond162) CFA_XSP16 add(XSP16, 28)
          CFI Block cfiCond163 Using cfiCommon0
          CFI (cfiCond163) Function afIncomingData
          CFI (cfiCond163) Conditional ??CrossCallReturnLabel_62, ??CrossCallReturnLabel_11
          CFI (cfiCond163) R6 load(1, XDATA, add(CFA_XSP16, literal(-16)))
          CFI (cfiCond163) VB load(1, XDATA, add(CFA_XSP16, literal(-15)))
          CFI (cfiCond163) V0 load(1, XDATA, add(CFA_XSP16, literal(-14)))
          CFI (cfiCond163) V1 load(1, XDATA, add(CFA_XSP16, literal(-13)))
          CFI (cfiCond163) V2 load(1, XDATA, add(CFA_XSP16, literal(-12)))
          CFI (cfiCond163) V3 load(1, XDATA, add(CFA_XSP16, literal(-11)))
          CFI (cfiCond163) V4 load(1, XDATA, add(CFA_XSP16, literal(-10)))
          CFI (cfiCond163) V5 load(1, XDATA, add(CFA_XSP16, literal(-9)))
          CFI (cfiCond163) V6 load(1, XDATA, add(CFA_XSP16, literal(-8)))
          CFI (cfiCond163) V7 load(1, XDATA, add(CFA_XSP16, literal(-7)))
          CFI (cfiCond163) R7 load(1, XDATA, add(CFA_XSP16, literal(-6)))
          CFI (cfiCond163) ?RET_LOW load(1, XDATA, add(CFA_XSP16, literal(-5)))
          CFI (cfiCond163) ?RET_HIGH load(1, XDATA, add(CFA_XSP16, literal(-4)))
          CFI (cfiCond163) ?BRET_EXT load(1, XDATA, add(CFA_XSP16, literal(-3)))
          CFI (cfiCond163) DPL0 load(1, XDATA, add(CFA_XSP16, literal(-2)))
          CFI (cfiCond163) DPH0 load(1, XDATA, add(CFA_XSP16, literal(-1)))
          CFI (cfiCond163) CFA_SP SP+-4
          CFI (cfiCond163) CFA_XSP16 add(XSP16, 28)
          CFI Block cfiCond164 Using cfiCommon0
          CFI (cfiCond164) Function afFindSimpleDesc
          CFI (cfiCond164) Conditional ??CrossCallReturnLabel_62, ??CrossCallReturnLabel_12
          CFI (cfiCond164) R6 load(1, XDATA, add(CFA_XSP16, literal(-12)))
          CFI (cfiCond164) VB load(1, XDATA, add(CFA_XSP16, literal(-11)))
          CFI (cfiCond164) V0 load(1, XDATA, add(CFA_XSP16, literal(-10)))
          CFI (cfiCond164) V1 load(1, XDATA, add(CFA_XSP16, literal(-9)))
          CFI (cfiCond164) V2 load(1, XDATA, add(CFA_XSP16, literal(-8)))
          CFI (cfiCond164) V3 load(1, XDATA, add(CFA_XSP16, literal(-7)))
          CFI (cfiCond164) R7 load(1, XDATA, add(CFA_XSP16, literal(-6)))
          CFI (cfiCond164) ?RET_LOW load(1, XDATA, add(CFA_XSP16, literal(-5)))
          CFI (cfiCond164) ?RET_HIGH load(1, XDATA, add(CFA_XSP16, literal(-4)))
          CFI (cfiCond164) ?BRET_EXT load(1, XDATA, add(CFA_XSP16, literal(-3)))
          CFI (cfiCond164) DPL0 load(1, XDATA, add(CFA_XSP16, literal(-2)))
          CFI (cfiCond164) DPH0 load(1, XDATA, add(CFA_XSP16, literal(-1)))
          CFI (cfiCond164) CFA_SP SP+-4
          CFI (cfiCond164) CFA_XSP16 add(XSP16, 12)
          CFI Block cfiPicker165 Using cfiCommon1
          CFI (cfiPicker165) NoFunction
          CFI (cfiPicker165) Picker
        MOVX    A,@DPTR
        MOV     R0,A
        INC     DPTR
        MOVX    A,@DPTR
        MOV     R1,A
        RET
          CFI (cfiCond140) CFA_SP SP+-2
          CFI (cfiCond141) CFA_SP SP+-2
          CFI (cfiCond142) CFA_SP SP+-2
          CFI (cfiCond143) CFA_SP SP+-2
          CFI (cfiCond144) CFA_SP SP+-2
          CFI (cfiCond145) CFA_SP SP+-2
          CFI (cfiCond146) CFA_SP SP+-2
          CFI (cfiCond147) CFA_SP SP+-2
          CFI (cfiCond148) CFA_SP SP+-2
          CFI (cfiCond149) CFA_SP SP+-2
          CFI (cfiCond150) CFA_SP SP+-2
          CFI (cfiCond151) CFA_SP SP+-2
          CFI (cfiCond152) CFA_SP SP+-2
          CFI (cfiCond153) CFA_SP SP+-2
          CFI (cfiCond154) CFA_SP SP+-2
          CFI (cfiCond155) CFA_SP SP+-2
          CFI (cfiCond156) CFA_SP SP+-2
          CFI (cfiCond157) CFA_SP SP+-2
          CFI (cfiCond158) CFA_SP SP+-2
          CFI (cfiCond159) CFA_SP SP+-2
          CFI (cfiCond160) CFA_SP SP+-7
          CFI (cfiCond161) CFA_SP SP+-2
          CFI (cfiCond162) CFA_SP SP+-2
          CFI (cfiCond163) CFA_SP SP+-2
          CFI (cfiCond164) CFA_SP SP+-2
          CFI (cfiPicker165) CFA_SP SP+0
          CFI EndBlock cfiCond140
          CFI EndBlock cfiCond141
          CFI EndBlock cfiCond142
          CFI EndBlock cfiCond143
          CFI EndBlock cfiCond144
          CFI EndBlock cfiCond145
          CFI EndBlock cfiCond146
          CFI EndBlock cfiCond147
          CFI EndBlock cfiCond148
          CFI EndBlock cfiCond149
          CFI EndBlock cfiCond150
          CFI EndBlock cfiCond151
          CFI EndBlock cfiCond152
          CFI EndBlock cfiCond153
          CFI EndBlock cfiCond154
          CFI EndBlock cfiCond155
          CFI EndBlock cfiCond156
          CFI EndBlock cfiCond157
          CFI EndBlock cfiCond158
          CFI EndBlock cfiCond159
          CFI EndBlock cfiCond160
          CFI EndBlock cfiCond161
          CFI EndBlock cfiCond162
          CFI EndBlock cfiCond163
          CFI EndBlock cfiCond164
          CFI EndBlock cfiPicker165

        RSEG BANKED_CODE:CODE:NOROOT(0)
?Subroutine23:
          CFI Block cfiCond166 Using cfiCommon0
          CFI Function afIncomingData
          CFI Conditional ??CrossCallReturnLabel_28
          CFI R6 load(1, XDATA, add(CFA_XSP16, literal(-16)))
          CFI VB load(1, XDATA, add(CFA_XSP16, literal(-15)))
          CFI V0 load(1, XDATA, add(CFA_XSP16, literal(-14)))
          CFI V1 load(1, XDATA, add(CFA_XSP16, literal(-13)))
          CFI V2 load(1, XDATA, add(CFA_XSP16, literal(-12)))
          CFI V3 load(1, XDATA, add(CFA_XSP16, literal(-11)))
          CFI V4 load(1, XDATA, add(CFA_XSP16, literal(-10)))
          CFI V5 load(1, XDATA, add(CFA_XSP16, literal(-9)))
          CFI V6 load(1, XDATA, add(CFA_XSP16, literal(-8)))
          CFI V7 load(1, XDATA, add(CFA_XSP16, literal(-7)))
          CFI R7 load(1, XDATA, add(CFA_XSP16, literal(-6)))
          CFI ?RET_LOW load(1, XDATA, add(CFA_XSP16, literal(-5)))
          CFI ?RET_HIGH load(1, XDATA, add(CFA_XSP16, literal(-4)))
          CFI ?BRET_EXT load(1, XDATA, add(CFA_XSP16, literal(-3)))
          CFI DPL0 load(1, XDATA, add(CFA_XSP16, literal(-2)))
          CFI DPH0 load(1, XDATA, add(CFA_XSP16, literal(-1)))
          CFI CFA_SP SP+-2
          CFI CFA_XSP16 add(XSP16, 28)
          CFI Block cfiCond167 Using cfiCommon0
          CFI (cfiCond167) Function afIncomingData
          CFI (cfiCond167) Conditional ??CrossCallReturnLabel_29, ??CrossCallReturnLabel_11
          CFI (cfiCond167) R6 load(1, XDATA, add(CFA_XSP16, literal(-16)))
          CFI (cfiCond167) VB load(1, XDATA, add(CFA_XSP16, literal(-15)))
          CFI (cfiCond167) V0 load(1, XDATA, add(CFA_XSP16, literal(-14)))
          CFI (cfiCond167) V1 load(1, XDATA, add(CFA_XSP16, literal(-13)))
          CFI (cfiCond167) V2 load(1, XDATA, add(CFA_XSP16, literal(-12)))
          CFI (cfiCond167) V3 load(1, XDATA, add(CFA_XSP16, literal(-11)))
          CFI (cfiCond167) V4 load(1, XDATA, add(CFA_XSP16, literal(-10)))
          CFI (cfiCond167) V5 load(1, XDATA, add(CFA_XSP16, literal(-9)))
          CFI (cfiCond167) V6 load(1, XDATA, add(CFA_XSP16, literal(-8)))
          CFI (cfiCond167) V7 load(1, XDATA, add(CFA_XSP16, literal(-7)))
          CFI (cfiCond167) R7 load(1, XDATA, add(CFA_XSP16, literal(-6)))
          CFI (cfiCond167) ?RET_LOW load(1, XDATA, add(CFA_XSP16, literal(-5)))
          CFI (cfiCond167) ?RET_HIGH load(1, XDATA, add(CFA_XSP16, literal(-4)))
          CFI (cfiCond167) ?BRET_EXT load(1, XDATA, add(CFA_XSP16, literal(-3)))
          CFI (cfiCond167) DPL0 load(1, XDATA, add(CFA_XSP16, literal(-2)))
          CFI (cfiCond167) DPH0 load(1, XDATA, add(CFA_XSP16, literal(-1)))
          CFI (cfiCond167) CFA_SP SP+-4
          CFI (cfiCond167) CFA_XSP16 add(XSP16, 28)
          CFI Block cfiCond168 Using cfiCommon0
          CFI (cfiCond168) Function afFindSimpleDesc
          CFI (cfiCond168) Conditional ??CrossCallReturnLabel_29, ??CrossCallReturnLabel_12
          CFI (cfiCond168) R6 load(1, XDATA, add(CFA_XSP16, literal(-12)))
          CFI (cfiCond168) VB load(1, XDATA, add(CFA_XSP16, literal(-11)))
          CFI (cfiCond168) V0 load(1, XDATA, add(CFA_XSP16, literal(-10)))
          CFI (cfiCond168) V1 load(1, XDATA, add(CFA_XSP16, literal(-9)))
          CFI (cfiCond168) V2 load(1, XDATA, add(CFA_XSP16, literal(-8)))
          CFI (cfiCond168) V3 load(1, XDATA, add(CFA_XSP16, literal(-7)))
          CFI (cfiCond168) R7 load(1, XDATA, add(CFA_XSP16, literal(-6)))
          CFI (cfiCond168) ?RET_LOW load(1, XDATA, add(CFA_XSP16, literal(-5)))
          CFI (cfiCond168) ?RET_HIGH load(1, XDATA, add(CFA_XSP16, literal(-4)))
          CFI (cfiCond168) ?BRET_EXT load(1, XDATA, add(CFA_XSP16, literal(-3)))
          CFI (cfiCond168) DPL0 load(1, XDATA, add(CFA_XSP16, literal(-2)))
          CFI (cfiCond168) DPH0 load(1, XDATA, add(CFA_XSP16, literal(-1)))
          CFI (cfiCond168) CFA_SP SP+-4
          CFI (cfiCond168) CFA_XSP16 add(XSP16, 12)
          CFI Block cfiPicker169 Using cfiCommon1
          CFI (cfiPicker169) NoFunction
          CFI (cfiPicker169) Picker
        LCALL   ?Subroutine26 & 0xFFFF
??CrossCallReturnLabel_42:
        INC     DPTR
        INC     DPTR
        INC     DPTR
        RET
          CFI (cfiCond166) CFA_SP SP+0
          CFI (cfiCond167) CFA_SP SP+-2
          CFI (cfiCond168) CFA_SP SP+-2
          CFI (cfiPicker169) CFA_SP SP+0
          CFI EndBlock cfiCond166
          CFI EndBlock cfiCond167
          CFI EndBlock cfiCond168
          CFI EndBlock cfiPicker169
//  782 
//  783 /*********************************************************************
//  784  * @fn      afGetDescCB
//  785  *
//  786  * @brief   Get the Descriptor callback function.
//  787  *
//  788  * @param   epDesc - pointer to the endpoint descriptor
//  789  *
//  790  * @return  function pointer or NULL
//  791  */
//  792 static pDescCB afGetDescCB( endPointDesc_t *epDesc )
//  793 {
//  794   epList_t *epSearch;
//  795 
//  796   // Start at the beginning
//  797   epSearch = epList;
//  798 
//  799   // Look through the list until the end
//  800   while ( epSearch )
//  801   {
//  802     // Is there a match?
//  803     if ( epSearch->epDesc == epDesc )
//  804     {
//  805       return ( epSearch->pfnDescCB );
//  806     }
//  807     else
//  808       epSearch = epSearch->nextDesc;  // Next entry
//  809   }
//  810 
//  811   return ( (pDescCB)NULL );
//  812 }
//  813 
//  814 /*********************************************************************
//  815  * @fn      afDataReqMTU
//  816  *
//  817  * @brief   Get the Data Request MTU(Max Transport Unit).
//  818  *
//  819  * @param   fields - afDataReqMTU_t
//  820  *
//  821  * @return  uint8(MTU)
//  822  */

        RSEG BANKED_CODE:CODE:NOROOT(0)
//  823 uint8 afDataReqMTU( afDataReqMTU_t* fields )
afDataReqMTU:
          CFI Block cfiBlock170 Using cfiCommon0
          CFI Function afDataReqMTU
        CODE
//  824 {
        FUNCALL afDataReqMTU, APSDE_DataReqMTU
        LOCFRAME ISTACK, 0, STACK
        LOCFRAME PSTACK, 0, STACK
        LOCFRAME XSTACK, 9, STACK
        LOCFRAME IOVERLAY, 0, STATIC
        LOCFRAME DOVERLAY, 0, STATIC
        ARGFRAME ISTACK, 0, STACK
        ARGFRAME PSTACK, 0, STACK
        ARGFRAME XSTACK, 9, STACK
        ARGFRAME IOVERLAY, 0, STATIC
        ARGFRAME DOVERLAY, 0, STATIC
        MOV     A,#-0x9
        LCALL   ?BANKED_ENTER_XDATA
          CFI DPH0 load(1, XDATA, add(CFA_XSP16, literal(-1)))
          CFI DPL0 load(1, XDATA, add(CFA_XSP16, literal(-2)))
          CFI ?BRET_EXT load(1, XDATA, add(CFA_XSP16, literal(-3)))
          CFI ?RET_HIGH load(1, XDATA, add(CFA_XSP16, literal(-4)))
          CFI ?RET_LOW load(1, XDATA, add(CFA_XSP16, literal(-5)))
          CFI R7 load(1, XDATA, add(CFA_XSP16, literal(-6)))
          CFI V0 load(1, XDATA, add(CFA_XSP16, literal(-7)))
          CFI VB load(1, XDATA, add(CFA_XSP16, literal(-8)))
          CFI R6 load(1, XDATA, add(CFA_XSP16, literal(-9)))
          CFI CFA_SP SP+0
          CFI CFA_XSP16 add(XSP16, 9)
        ; Saved register size: 9
        ; Auto size: 0
//  825   uint8 len;
//  826   uint8 hdr;
//  827 
//  828   if ( fields->kvp == TRUE )
        MOV     DPL,R2
        MOV     DPH,R3
        MOVX    A,@DPTR
        XRL     A,#0x1
        JNZ     ??afDataReqMTU_0
//  829   {
//  830     hdr = AF_HDR_KVP_MAX_LEN;
        MOV     R6,#0x8
        SJMP    ??afDataReqMTU_1
//  831   }
//  832   else
//  833   {
//  834     hdr = AF_HDR_V1_1_MAX_LEN;
??afDataReqMTU_0:
        MOV     R6,#0x0
//  835   }
//  836 
//  837   len = (uint8)(APSDE_DataReqMTU(&fields->aps) - hdr);
//  838 
//  839   return len;
??afDataReqMTU_1:
        ; Setup parameters for call to function APSDE_DataReqMTU
        INC     DPTR
        MOV     R2,DPL
        MOV     R3,DPH
        LCALL   `??APSDE_DataReqMTU::?relay`; Banked call to: APSDE_DataReqMTU
        MOV     A,R1
        CLR     C
        SUBB    A,R6
        MOV     R1,A
          CFI EndBlock cfiBlock170
        REQUIRE ?Subroutine4
        ; // Fall through to label ?Subroutine4
//  840 }

        RSEG BANKED_CODE:CODE:NOROOT(0)
?Subroutine4:
          CFI Block cfiBlock171 Using cfiCommon0
          CFI NoFunction
          CFI CFA_SP SP+0
          CFI CFA_XSP16 add(XSP16, 9)
          CFI VB load(1, XDATA, add(CFA_XSP16, literal(-8)))
          CFI DPL0 load(1, XDATA, add(CFA_XSP16, literal(-2)))
          CFI DPH0 load(1, XDATA, add(CFA_XSP16, literal(-1)))
          CFI R6 load(1, XDATA, add(CFA_XSP16, literal(-9)))
          CFI R7 load(1, XDATA, add(CFA_XSP16, literal(-6)))
          CFI V0 load(1, XDATA, add(CFA_XSP16, literal(-7)))
          CFI ?BRET_EXT load(1, XDATA, add(CFA_XSP16, literal(-3)))
          CFI ?RET_HIGH load(1, XDATA, add(CFA_XSP16, literal(-4)))
          CFI ?RET_LOW load(1, XDATA, add(CFA_XSP16, literal(-5)))
        MOV     R7,#0x1
        LJMP    ?BANKED_LEAVE_XDATA
          CFI CFA_SP SP+-3
          CFI CFA_XSP16 XSP16+0
          CFI VB SameValue
          CFI DPL0 SameValue
          CFI DPH0 SameValue
          CFI R6 SameValue
          CFI R7 SameValue
          CFI V0 SameValue
          CFI ?BRET_EXT Frame(CFA_SP, 3)
          CFI ?RET_HIGH Frame(CFA_SP, 2)
          CFI ?RET_LOW Frame(CFA_SP, 1)
          CFI EndBlock cfiBlock171
//  841 
//  842 /*********************************************************************
//  843  * @fn      afGetMatch
//  844  *
//  845  * @brief   Set the allow response flag.
//  846  *
//  847  * @param   ep - Application Endpoint to look for
//  848  * @param   action - true - allow response, false - no response
//  849  *
//  850  * @return  TRUE allow responses, FALSE no response
//  851  */

        RSEG BANKED_CODE:CODE:NOROOT(0)
//  852 uint8 afGetMatch( uint8 ep )
afGetMatch:
          CFI Block cfiBlock172 Using cfiCommon0
          CFI Function afGetMatch
        CODE
//  853 {
        FUNCALL afGetMatch, afFindEndPointDescList
        LOCFRAME ISTACK, 0, STACK
        LOCFRAME PSTACK, 0, STACK
        LOCFRAME XSTACK, 10, STACK
        LOCFRAME IOVERLAY, 0, STATIC
        LOCFRAME DOVERLAY, 0, STATIC
        ARGFRAME ISTACK, 0, STACK
        ARGFRAME PSTACK, 0, STACK
        ARGFRAME XSTACK, 10, STACK
        ARGFRAME IOVERLAY, 0, STATIC
        ARGFRAME DOVERLAY, 0, STATIC
        REQUIRE ?V0
        REQUIRE ?V1
        MOV     A,#-0xa
        LCALL   ?BANKED_ENTER_XDATA
          CFI DPH0 load(1, XDATA, add(CFA_XSP16, literal(-1)))
          CFI DPL0 load(1, XDATA, add(CFA_XSP16, literal(-2)))
          CFI ?BRET_EXT load(1, XDATA, add(CFA_XSP16, literal(-3)))
          CFI ?RET_HIGH load(1, XDATA, add(CFA_XSP16, literal(-4)))
          CFI ?RET_LOW load(1, XDATA, add(CFA_XSP16, literal(-5)))
          CFI R7 load(1, XDATA, add(CFA_XSP16, literal(-6)))
          CFI V1 load(1, XDATA, add(CFA_XSP16, literal(-7)))
          CFI V0 load(1, XDATA, add(CFA_XSP16, literal(-8)))
          CFI VB load(1, XDATA, add(CFA_XSP16, literal(-9)))
          CFI R6 load(1, XDATA, add(CFA_XSP16, literal(-10)))
          CFI CFA_SP SP+0
          CFI CFA_XSP16 add(XSP16, 10)
        ; Saved register size: 10
        ; Auto size: 0
//  854   epList_t *epSearch;
//  855 
//  856   // Look for the endpoint
//  857   epSearch = afFindEndPointDescList( ep );
        ; Setup parameters for call to function afFindEndPointDescList
        LCALL   `??afFindEndPointDescList::?relay`; Banked call to: afFindEndPointDescList
        MOV     DPL,R2
        MOV     DPH,R3
//  858 
//  859   if ( epSearch )
        MOV     A,DPL
        ORL     A,DPH
        JZ      ??afGetMatch_0
//  860   {
//  861     if ( epSearch->flags & eEP_AllowMatch )
        INC     DPTR
        INC     DPTR
        MOVX    A,@DPTR
        MOV     C,0xE0 /* A   */.0
        JNC     ??afGetMatch_0
//  862       return ( TRUE );
        MOV     R1,#0x1
        SJMP    ??afGetMatch_1
//  863     else
//  864       return ( FALSE );
//  865   }
//  866   else
//  867     return ( FALSE );
??afGetMatch_0:
        MOV     R1,#0x0
??afGetMatch_1:
          CFI EndBlock cfiBlock172
        REQUIRE ?Subroutine2
        ; // Fall through to label ?Subroutine2
//  868 }

        RSEG BANKED_CODE:CODE:NOROOT(0)
?Subroutine2:
          CFI Block cfiBlock173 Using cfiCommon0
          CFI NoFunction
          CFI CFA_SP SP+0
          CFI CFA_XSP16 add(XSP16, 10)
          CFI VB load(1, XDATA, add(CFA_XSP16, literal(-9)))
          CFI DPL0 load(1, XDATA, add(CFA_XSP16, literal(-2)))
          CFI DPH0 load(1, XDATA, add(CFA_XSP16, literal(-1)))
          CFI R6 load(1, XDATA, add(CFA_XSP16, literal(-10)))
          CFI R7 load(1, XDATA, add(CFA_XSP16, literal(-6)))
          CFI V0 load(1, XDATA, add(CFA_XSP16, literal(-8)))
          CFI V1 load(1, XDATA, add(CFA_XSP16, literal(-7)))
          CFI ?BRET_EXT load(1, XDATA, add(CFA_XSP16, literal(-3)))
          CFI ?RET_HIGH load(1, XDATA, add(CFA_XSP16, literal(-4)))
          CFI ?RET_LOW load(1, XDATA, add(CFA_XSP16, literal(-5)))
        MOV     R7,#0x2
        LJMP    ?BANKED_LEAVE_XDATA
          CFI CFA_SP SP+-3
          CFI CFA_XSP16 XSP16+0
          CFI VB SameValue
          CFI DPL0 SameValue
          CFI DPH0 SameValue
          CFI R6 SameValue
          CFI R7 SameValue
          CFI V0 SameValue
          CFI V1 SameValue
          CFI ?BRET_EXT Frame(CFA_SP, 3)
          CFI ?RET_HIGH Frame(CFA_SP, 2)
          CFI ?RET_LOW Frame(CFA_SP, 1)
          CFI EndBlock cfiBlock173
//  869 
//  870 /*********************************************************************
//  871  * @fn      afSetMatch
//  872  *
//  873  * @brief   Set the allow response flag.
//  874  *
//  875  * @param   ep - Application Endpoint to look for
//  876  * @param   action - true - allow response, false - no response
//  877  *
//  878  * @return  TRUE if success, FALSE if endpoint not found
//  879  */

        RSEG BANKED_CODE:CODE:NOROOT(0)
//  880 uint8 afSetMatch( uint8 ep, uint8 action )
afSetMatch:
          CFI Block cfiBlock174 Using cfiCommon0
          CFI Function afSetMatch
        CODE
//  881 {
        FUNCALL afSetMatch, afFindEndPointDescList
        LOCFRAME ISTACK, 0, STACK
        LOCFRAME PSTACK, 0, STACK
        LOCFRAME XSTACK, 10, STACK
        LOCFRAME IOVERLAY, 0, STATIC
        LOCFRAME DOVERLAY, 0, STATIC
        ARGFRAME ISTACK, 0, STACK
        ARGFRAME PSTACK, 0, STACK
        ARGFRAME XSTACK, 10, STACK
        ARGFRAME IOVERLAY, 0, STATIC
        ARGFRAME DOVERLAY, 0, STATIC
        REQUIRE ?V0
        REQUIRE ?V1
        MOV     A,#-0xa
        LCALL   ?BANKED_ENTER_XDATA
          CFI DPH0 load(1, XDATA, add(CFA_XSP16, literal(-1)))
          CFI DPL0 load(1, XDATA, add(CFA_XSP16, literal(-2)))
          CFI ?BRET_EXT load(1, XDATA, add(CFA_XSP16, literal(-3)))
          CFI ?RET_HIGH load(1, XDATA, add(CFA_XSP16, literal(-4)))
          CFI ?RET_LOW load(1, XDATA, add(CFA_XSP16, literal(-5)))
          CFI R7 load(1, XDATA, add(CFA_XSP16, literal(-6)))
          CFI V1 load(1, XDATA, add(CFA_XSP16, literal(-7)))
          CFI V0 load(1, XDATA, add(CFA_XSP16, literal(-8)))
          CFI VB load(1, XDATA, add(CFA_XSP16, literal(-9)))
          CFI R6 load(1, XDATA, add(CFA_XSP16, literal(-10)))
          CFI CFA_SP SP+0
          CFI CFA_XSP16 add(XSP16, 10)
        ; Saved register size: 10
        ; Auto size: 0
        MOV     A,R2
        MOV     R7,A
//  882   epList_t *epSearch;
//  883 
//  884   // Look for the endpoint
//  885   epSearch = afFindEndPointDescList( ep );
        ; Setup parameters for call to function afFindEndPointDescList
        LCALL   `??afFindEndPointDescList::?relay`; Banked call to: afFindEndPointDescList
        MOV     ?V0,R2
        MOV     ?V1,R3
        MOV     R0,?V0
        MOV     R1,?V1
//  886 
//  887   if ( epSearch )
        MOV     A,R0
        ORL     A,R1
        JZ      ??afSetMatch_0
//  888   {
//  889     if ( action )
        MOV     A,R0
        ADD     A,#0x2
        MOV     DPL,A
        CLR     A
        ADDC    A,R1
        MOV     DPH,A
        MOV     A,R7
        JZ      ??afSetMatch_1
//  890     {
//  891       epSearch->flags |= eEP_AllowMatch;
        MOVX    A,@DPTR
        SETB    0xE0 /* A   */.0
        SJMP    ??afSetMatch_2
//  892     }
//  893     else
//  894     {
//  895       epSearch->flags &= (eEP_AllowMatch ^ 0xFFFF);
??afSetMatch_1:
        MOVX    A,@DPTR
        CLR     0xE0 /* A   */.0
??afSetMatch_2:
        MOVX    @DPTR,A
//  896     }
//  897     return ( TRUE );
        MOV     R1,#0x1
        SJMP    ??afSetMatch_3
//  898   }
//  899   else
//  900     return ( FALSE );
??afSetMatch_0:
        MOV     R1,#0x0
??afSetMatch_3:
        SJMP    ?Subroutine2
//  901 }
          CFI EndBlock cfiBlock174
//  902 
//  903 /*********************************************************************
//  904  * @fn      afNumEndPoints
//  905  *
//  906  * @brief   Returns the number of endpoints defined (including 0)
//  907  *
//  908  * @param   none
//  909  *
//  910  * @return  number of endpoints
//  911  */

        RSEG BANKED_CODE:CODE:NOROOT(0)
//  912 byte afNumEndPoints( void )
afNumEndPoints:
          CFI Block cfiBlock175 Using cfiCommon0
          CFI Function afNumEndPoints
        CODE
//  913 {
        PUSH    DPL
          CFI DPL0 Frame(CFA_SP, 4)
          CFI CFA_SP SP+-4
        PUSH    DPH
          CFI DPH0 Frame(CFA_SP, 5)
          CFI CFA_SP SP+-5
        ; Saved register size: 2
        ; Auto size: 0
//  914   epList_t *epSearch;
//  915   byte endpoints;
//  916 
//  917   // Start at the beginning
//  918   epSearch = epList;
        MOV     DPTR,#epList
        LCALL   ?Subroutine19 & 0xFFFF
//  919   endpoints = 0;
??CrossCallReturnLabel_25:
        MOV     R1,#0x0
        SJMP    ??afNumEndPoints_0
//  920 
//  921   while ( epSearch )
//  922   {
//  923     endpoints++;
??afNumEndPoints_1:
        INC     R1
//  924     epSearch = epSearch->nextDesc;
        INC     DPTR
        INC     DPTR
        INC     DPTR
        INC     DPTR
        INC     DPTR
        LCALL   ??Subroutine32_0 & 0xFFFF
//  925   }
??CrossCallReturnLabel_88:
        MOV     DPL,R2
        MOV     DPH,R3
??afNumEndPoints_0:
        MOV     A,DPL
        ORL     A,DPH
        JNZ     ??afNumEndPoints_1
//  926 
//  927   return ( endpoints );
          CFI EndBlock cfiBlock175
        REQUIRE ?Subroutine0
        ; // Fall through to label ?Subroutine0
//  928 }

        RSEG BANKED_CODE:CODE:NOROOT(0)
?Subroutine0:
          CFI Block cfiBlock176 Using cfiCommon0
          CFI NoFunction
          CFI CFA_SP SP+-5
          CFI DPL0 Frame(CFA_SP, 4)
          CFI DPH0 Frame(CFA_SP, 5)
        POP     DPH
          CFI CFA_SP SP+-4
          CFI DPH0 SameValue
        POP     DPL
          CFI CFA_SP SP+-3
          CFI DPL0 SameValue
        LJMP    ?BRET
          CFI EndBlock cfiBlock176

        RSEG BANKED_CODE:CODE:NOROOT(0)
?Subroutine19:
          CFI Block cfiCond177 Using cfiCommon0
          CFI Function afBuildMSGIncoming
          CFI Conditional ??CrossCallReturnLabel_24
          CFI R6 load(1, XDATA, add(CFA_XSP16, literal(-16)))
          CFI VB load(1, XDATA, add(CFA_XSP16, literal(-15)))
          CFI V0 load(1, XDATA, add(CFA_XSP16, literal(-14)))
          CFI V1 load(1, XDATA, add(CFA_XSP16, literal(-13)))
          CFI V2 load(1, XDATA, add(CFA_XSP16, literal(-12)))
          CFI V3 load(1, XDATA, add(CFA_XSP16, literal(-11)))
          CFI V4 load(1, XDATA, add(CFA_XSP16, literal(-10)))
          CFI V5 load(1, XDATA, add(CFA_XSP16, literal(-9)))
          CFI V6 load(1, XDATA, add(CFA_XSP16, literal(-8)))
          CFI V7 load(1, XDATA, add(CFA_XSP16, literal(-7)))
          CFI R7 load(1, XDATA, add(CFA_XSP16, literal(-6)))
          CFI ?RET_LOW load(1, XDATA, add(CFA_XSP16, literal(-5)))
          CFI ?RET_HIGH load(1, XDATA, add(CFA_XSP16, literal(-4)))
          CFI ?BRET_EXT load(1, XDATA, add(CFA_XSP16, literal(-3)))
          CFI DPL0 load(1, XDATA, add(CFA_XSP16, literal(-2)))
          CFI DPH0 load(1, XDATA, add(CFA_XSP16, literal(-1)))
          CFI CFA_SP SP+-2
          CFI CFA_XSP16 add(XSP16, 19)
          CFI Block cfiCond178 Using cfiCommon0
          CFI (cfiCond178) Function afNumEndPoints
          CFI (cfiCond178) Conditional ??CrossCallReturnLabel_25
          CFI (cfiCond178) DPL0 Frame(CFA_SP, 4)
          CFI (cfiCond178) DPH0 Frame(CFA_SP, 5)
          CFI (cfiCond178) CFA_SP SP+-7
          CFI Block cfiPicker179 Using cfiCommon1
          CFI (cfiPicker179) NoFunction
          CFI (cfiPicker179) Picker
        LCALL   ?Subroutine24 & 0xFFFF
??CrossCallReturnLabel_30:
        RET
          CFI (cfiCond177) CFA_SP SP+0
          CFI (cfiCond178) CFA_SP SP+-5
          CFI (cfiPicker179) CFA_SP SP+0
          CFI EndBlock cfiCond177
          CFI EndBlock cfiCond178
          CFI EndBlock cfiPicker179

        RSEG BANKED_CODE:CODE:NOROOT(0)
?Subroutine24:
          CFI Block cfiCond180 Using cfiCommon0
          CFI Function afIncomingData
          CFI Conditional ??CrossCallReturnLabel_31, ??CrossCallReturnLabel_8
          CFI R6 load(1, XDATA, add(CFA_XSP16, literal(-16)))
          CFI VB load(1, XDATA, add(CFA_XSP16, literal(-15)))
          CFI V0 load(1, XDATA, add(CFA_XSP16, literal(-14)))
          CFI V1 load(1, XDATA, add(CFA_XSP16, literal(-13)))
          CFI V2 load(1, XDATA, add(CFA_XSP16, literal(-12)))
          CFI V3 load(1, XDATA, add(CFA_XSP16, literal(-11)))
          CFI V4 load(1, XDATA, add(CFA_XSP16, literal(-10)))
          CFI V5 load(1, XDATA, add(CFA_XSP16, literal(-9)))
          CFI V6 load(1, XDATA, add(CFA_XSP16, literal(-8)))
          CFI V7 load(1, XDATA, add(CFA_XSP16, literal(-7)))
          CFI R7 load(1, XDATA, add(CFA_XSP16, literal(-6)))
          CFI ?RET_LOW load(1, XDATA, add(CFA_XSP16, literal(-5)))
          CFI ?RET_HIGH load(1, XDATA, add(CFA_XSP16, literal(-4)))
          CFI ?BRET_EXT load(1, XDATA, add(CFA_XSP16, literal(-3)))
          CFI DPL0 load(1, XDATA, add(CFA_XSP16, literal(-2)))
          CFI DPH0 load(1, XDATA, add(CFA_XSP16, literal(-1)))
          CFI CFA_SP SP+-4
          CFI CFA_XSP16 add(XSP16, 28)
          CFI Block cfiCond181 Using cfiCommon0
          CFI (cfiCond181) Function AF_DataRequest
          CFI (cfiCond181) Conditional ??CrossCallReturnLabel_31, ??CrossCallReturnLabel_9
          CFI (cfiCond181) R6 load(1, XDATA, add(CFA_XSP16, literal(-15)))
          CFI (cfiCond181) VB load(1, XDATA, add(CFA_XSP16, literal(-14)))
          CFI (cfiCond181) V0 load(1, XDATA, add(CFA_XSP16, literal(-13)))
          CFI (cfiCond181) V1 load(1, XDATA, add(CFA_XSP16, literal(-12)))
          CFI (cfiCond181) V2 load(1, XDATA, add(CFA_XSP16, literal(-11)))
          CFI (cfiCond181) V3 load(1, XDATA, add(CFA_XSP16, literal(-10)))
          CFI (cfiCond181) V4 load(1, XDATA, add(CFA_XSP16, literal(-9)))
          CFI (cfiCond181) V5 load(1, XDATA, add(CFA_XSP16, literal(-8)))
          CFI (cfiCond181) V6 load(1, XDATA, add(CFA_XSP16, literal(-7)))
          CFI (cfiCond181) R7 load(1, XDATA, add(CFA_XSP16, literal(-6)))
          CFI (cfiCond181) ?RET_LOW load(1, XDATA, add(CFA_XSP16, literal(-5)))
          CFI (cfiCond181) ?RET_HIGH load(1, XDATA, add(CFA_XSP16, literal(-4)))
          CFI (cfiCond181) ?BRET_EXT load(1, XDATA, add(CFA_XSP16, literal(-3)))
          CFI (cfiCond181) DPL0 load(1, XDATA, add(CFA_XSP16, literal(-2)))
          CFI (cfiCond181) DPH0 load(1, XDATA, add(CFA_XSP16, literal(-1)))
          CFI (cfiCond181) CFA_SP SP+-4
          CFI (cfiCond181) CFA_XSP16 add(XSP16, 45)
          CFI Block cfiCond182 Using cfiCommon0
          CFI (cfiCond182) Function afFindSimpleDesc
          CFI (cfiCond182) Conditional ??CrossCallReturnLabel_31, ??CrossCallReturnLabel_10
          CFI (cfiCond182) R6 load(1, XDATA, add(CFA_XSP16, literal(-12)))
          CFI (cfiCond182) VB load(1, XDATA, add(CFA_XSP16, literal(-11)))
          CFI (cfiCond182) V0 load(1, XDATA, add(CFA_XSP16, literal(-10)))
          CFI (cfiCond182) V1 load(1, XDATA, add(CFA_XSP16, literal(-9)))
          CFI (cfiCond182) V2 load(1, XDATA, add(CFA_XSP16, literal(-8)))
          CFI (cfiCond182) V3 load(1, XDATA, add(CFA_XSP16, literal(-7)))
          CFI (cfiCond182) R7 load(1, XDATA, add(CFA_XSP16, literal(-6)))
          CFI (cfiCond182) ?RET_LOW load(1, XDATA, add(CFA_XSP16, literal(-5)))
          CFI (cfiCond182) ?RET_HIGH load(1, XDATA, add(CFA_XSP16, literal(-4)))
          CFI (cfiCond182) ?BRET_EXT load(1, XDATA, add(CFA_XSP16, literal(-3)))
          CFI (cfiCond182) DPL0 load(1, XDATA, add(CFA_XSP16, literal(-2)))
          CFI (cfiCond182) DPH0 load(1, XDATA, add(CFA_XSP16, literal(-1)))
          CFI (cfiCond182) CFA_SP SP+-4
          CFI (cfiCond182) CFA_XSP16 add(XSP16, 12)
          CFI Block cfiCond183 Using cfiCommon0
          CFI (cfiCond183) Function afBuildMSGIncoming
          CFI (cfiCond183) Conditional ??CrossCallReturnLabel_30, ??CrossCallReturnLabel_24
          CFI (cfiCond183) R6 load(1, XDATA, add(CFA_XSP16, literal(-16)))
          CFI (cfiCond183) VB load(1, XDATA, add(CFA_XSP16, literal(-15)))
          CFI (cfiCond183) V0 load(1, XDATA, add(CFA_XSP16, literal(-14)))
          CFI (cfiCond183) V1 load(1, XDATA, add(CFA_XSP16, literal(-13)))
          CFI (cfiCond183) V2 load(1, XDATA, add(CFA_XSP16, literal(-12)))
          CFI (cfiCond183) V3 load(1, XDATA, add(CFA_XSP16, literal(-11)))
          CFI (cfiCond183) V4 load(1, XDATA, add(CFA_XSP16, literal(-10)))
          CFI (cfiCond183) V5 load(1, XDATA, add(CFA_XSP16, literal(-9)))
          CFI (cfiCond183) V6 load(1, XDATA, add(CFA_XSP16, literal(-8)))
          CFI (cfiCond183) V7 load(1, XDATA, add(CFA_XSP16, literal(-7)))
          CFI (cfiCond183) R7 load(1, XDATA, add(CFA_XSP16, literal(-6)))
          CFI (cfiCond183) ?RET_LOW load(1, XDATA, add(CFA_XSP16, literal(-5)))
          CFI (cfiCond183) ?RET_HIGH load(1, XDATA, add(CFA_XSP16, literal(-4)))
          CFI (cfiCond183) ?BRET_EXT load(1, XDATA, add(CFA_XSP16, literal(-3)))
          CFI (cfiCond183) DPL0 load(1, XDATA, add(CFA_XSP16, literal(-2)))
          CFI (cfiCond183) DPH0 load(1, XDATA, add(CFA_XSP16, literal(-1)))
          CFI (cfiCond183) CFA_SP SP+-4
          CFI (cfiCond183) CFA_XSP16 add(XSP16, 19)
          CFI Block cfiCond184 Using cfiCommon0
          CFI (cfiCond184) Function afNumEndPoints
          CFI (cfiCond184) Conditional ??CrossCallReturnLabel_30, ??CrossCallReturnLabel_25
          CFI (cfiCond184) DPL0 Frame(CFA_SP, 4)
          CFI (cfiCond184) DPH0 Frame(CFA_SP, 5)
          CFI (cfiCond184) CFA_SP SP+-9
          CFI Block cfiPicker185 Using cfiCommon1
          CFI (cfiPicker185) NoFunction
          CFI (cfiPicker185) Picker
        MOVX    A,@DPTR
        MOV     R0,A
        INC     DPTR
        MOVX    A,@DPTR
        MOV     R1,A
        MOV     DPL,R0
        MOV     DPH,R1
        RET
          CFI (cfiCond180) CFA_SP SP+-2
          CFI (cfiCond181) CFA_SP SP+-2
          CFI (cfiCond182) CFA_SP SP+-2
          CFI (cfiCond183) CFA_SP SP+-2
          CFI (cfiCond184) CFA_SP SP+-7
          CFI (cfiPicker185) CFA_SP SP+0
          CFI EndBlock cfiCond180
          CFI EndBlock cfiCond181
          CFI EndBlock cfiCond182
          CFI EndBlock cfiCond183
          CFI EndBlock cfiCond184
          CFI EndBlock cfiPicker185
//  929 
//  930 /*********************************************************************
//  931  * @fn      afEndPoints
//  932  *
//  933  * @brief   Fills in the passed in buffer with the endpoint (numbers).
//  934  *          Use afNumEndPoints to find out how big a buffer to supply.
//  935  *
//  936  * @param   epBuf - pointer to mem used
//  937  *
//  938  * @return  void
//  939  */

        RSEG BANKED_CODE:CODE:NOROOT(0)
//  940 void afEndPoints( byte *epBuf, byte skipZDO )
afEndPoints:
          CFI Block cfiBlock186 Using cfiCommon0
          CFI Function afEndPoints
        CODE
//  941 {
        PUSH    DPL
          CFI DPL0 Frame(CFA_SP, 4)
          CFI CFA_SP SP+-4
        PUSH    DPH
          CFI DPH0 Frame(CFA_SP, 5)
          CFI CFA_SP SP+-5
        ; Saved register size: 2
        ; Auto size: 0
        MOV     A,R1
        MOV     R4,A
//  942   epList_t *epSearch;
//  943   byte endPoint;
//  944 
//  945   // Start at the beginning
//  946   epSearch = epList;
        MOV     DPTR,#epList
        SJMP    ??afEndPoints_0
//  947 
//  948   while ( epSearch )
//  949   {
//  950     endPoint = epSearch->epDesc->endPoint;
??afEndPoints_1:
        MOV     DPL,R0
        MOV     DPH,R1
        MOVX    A,@DPTR
        MOV     R5,A
        INC     DPTR
        MOVX    A,@DPTR
        MOV     DPH,A
        MOV     DPL,R5
        MOVX    A,@DPTR
        MOV     R5,A
//  951 
//  952     if ( !skipZDO || endPoint != 0 )
        MOV     A,R4
        JZ      ??afEndPoints_2
        MOV     A,R5
        JZ      ??afEndPoints_3
//  953       *epBuf++ = endPoint;
??afEndPoints_2:
        MOV     A,R5
        MOV     DPL,R2
        MOV     DPH,R3
        MOVX    @DPTR,A
        INC     DPTR
        MOV     R2,DPL
        MOV     R3,DPH
//  954 
//  955     epSearch = epSearch->nextDesc;
??afEndPoints_3:
        MOV     DPL,R0
        MOV     DPH,R1
        INC     DPTR
        INC     DPTR
        INC     DPTR
        INC     DPTR
        INC     DPTR
//  956   }
??afEndPoints_0:
        LCALL   ?Subroutine9 & 0xFFFF
??CrossCallReturnLabel_3:
        JNZ     ??afEndPoints_1
//  957 }
        SJMP    ?Subroutine0
          CFI EndBlock cfiBlock186
//  958 
//  959 

        RSEG BANKED_CODE:CODE:NOROOT(0)
//  960 void afCopyAddress ( afAddrType_t *afAddr, zAddrType_t *zAddr )
afCopyAddress:
          CFI Block cfiBlock187 Using cfiCommon0
          CFI Function afCopyAddress
        CODE
//  961 {
        FUNCALL afCopyAddress, sAddrExtCpy
        LOCFRAME ISTACK, 0, STACK
        LOCFRAME PSTACK, 0, STACK
        LOCFRAME XSTACK, 9, STACK
        LOCFRAME IOVERLAY, 0, STATIC
        LOCFRAME DOVERLAY, 0, STATIC
        ARGFRAME ISTACK, 0, STACK
        ARGFRAME PSTACK, 0, STACK
        ARGFRAME XSTACK, 9, STACK
        ARGFRAME IOVERLAY, 0, STATIC
        ARGFRAME DOVERLAY, 0, STATIC
        MOV     A,#-0x9
        LCALL   ?BANKED_ENTER_XDATA
          CFI DPH0 load(1, XDATA, add(CFA_XSP16, literal(-1)))
          CFI DPL0 load(1, XDATA, add(CFA_XSP16, literal(-2)))
          CFI ?BRET_EXT load(1, XDATA, add(CFA_XSP16, literal(-3)))
          CFI ?RET_HIGH load(1, XDATA, add(CFA_XSP16, literal(-4)))
          CFI ?RET_LOW load(1, XDATA, add(CFA_XSP16, literal(-5)))
          CFI R7 load(1, XDATA, add(CFA_XSP16, literal(-6)))
          CFI V0 load(1, XDATA, add(CFA_XSP16, literal(-7)))
          CFI VB load(1, XDATA, add(CFA_XSP16, literal(-8)))
          CFI R6 load(1, XDATA, add(CFA_XSP16, literal(-9)))
          CFI CFA_SP SP+0
          CFI CFA_XSP16 add(XSP16, 9)
        ; Saved register size: 9
        ; Auto size: 0
//  962   afAddr->addrMode = (afAddrMode_t)zAddr->addrMode;
        MOV     A,R4
        ADD     A,#0x8
        MOV     R0,A
        CLR     A
        ADDC    A,R5
        MOV     R1,A
        MOV     DPL,R0
        MOV     DPH,R1
        MOVX    A,@DPTR
        MOV     DPL,R2
        MOV     DPH,R3
        INC     DPTR
        INC     DPTR
        INC     DPTR
        INC     DPTR
        INC     DPTR
        INC     DPTR
        INC     DPTR
        INC     DPTR
        MOVX    @DPTR,A
//  963   if ( zAddr->addrMode == Addr64Bit )
        MOV     DPL,R0
        MOV     DPH,R1
        MOVX    A,@DPTR
        XRL     A,#0x3
        JNZ     ??afCopyAddress_0
//  964     osal_cpyExtAddr( afAddr->addr.extAddr, zAddr->addr.extAddr );
        ; Setup parameters for call to function sAddrExtCpy
        LCALL   `??sAddrExtCpy::?relay`; Banked call to: sAddrExtCpy
        SJMP    ??CrossCallReturnLabel_80
//  965   else
//  966     afAddr->addr.shortAddr = zAddr->addr.shortAddr;
??afCopyAddress_0:
        MOV     DPL,R4
        MOV     DPH,R5
        LCALL   ??Subroutine30_0 & 0xFFFF
??CrossCallReturnLabel_57:
        MOV     DPL,R2
        MOV     DPH,R3
        LCALL   ??Subroutine31_0 & 0xFFFF
//  967 }
??CrossCallReturnLabel_80:
        LJMP    ?Subroutine4 & 0xFFFF
          CFI EndBlock cfiBlock187

        RSEG XDATA_ID:CODE:NOROOT(0)
`?<Initializer for AF_DataRequestDiscoverRoute>`:
        DATA8
        DB 1

        RSEG BANK_RELAYS:CODE:REORDER:NOROOT(0)
`??afInit::?relay`:
        CODE
        LCALL   ?BDISPATCH
        DATA24
        DC24    afInit

        RSEG BANK_RELAYS:CODE:REORDER:NOROOT(0)
`??afRegisterExtended::?relay`:
        CODE
        LCALL   ?BDISPATCH
        DATA24
        DC24    afRegisterExtended

        RSEG BANK_RELAYS:CODE:REORDER:NOROOT(0)
`??afRegister::?relay`:
        CODE
        LCALL   ?BDISPATCH
        DATA24
        DC24    afRegister

        RSEG BANK_RELAYS:CODE:REORDER:NOROOT(0)
`??afDataConfirm::?relay`:
        CODE
        LCALL   ?BDISPATCH
        DATA24
        DC24    afDataConfirm

        RSEG BANK_RELAYS:CODE:REORDER:NOROOT(0)
`??afIncomingData::?relay`:
        CODE
        LCALL   ?BDISPATCH
        DATA24
        DC24    afIncomingData

        RSEG BANK_RELAYS:CODE:REORDER:NOROOT(0)
`??afBuildMSGIncoming::?relay`:
        CODE
        LCALL   ?BDISPATCH
        DATA24
        DC24    afBuildMSGIncoming

        RSEG BANK_RELAYS:CODE:REORDER:NOROOT(0)
`??AF_DataRequest::?relay`:
        CODE
        LCALL   ?BDISPATCH
        DATA24
        DC24    AF_DataRequest

        RSEG BANK_RELAYS:CODE:REORDER:NOROOT(0)
`??afFindEndPointDescList::?relay`:
        CODE
        LCALL   ?BDISPATCH
        DATA24
        DC24    afFindEndPointDescList

        RSEG BANK_RELAYS:CODE:REORDER:NOROOT(0)
`??afFindEndPointDesc::?relay`:
        CODE
        LCALL   ?BDISPATCH
        DATA24
        DC24    afFindEndPointDesc

        RSEG BANK_RELAYS:CODE:REORDER:NOROOT(0)
`??afFindSimpleDesc::?relay`:
        CODE
        LCALL   ?BDISPATCH
        DATA24
        DC24    afFindSimpleDesc

        RSEG BANK_RELAYS:CODE:REORDER:NOROOT(0)
`??afDataReqMTU::?relay`:
        CODE
        LCALL   ?BDISPATCH
        DATA24
        DC24    afDataReqMTU

        RSEG BANK_RELAYS:CODE:REORDER:NOROOT(0)
`??afGetMatch::?relay`:
        CODE
        LCALL   ?BDISPATCH
        DATA24
        DC24    afGetMatch

        RSEG BANK_RELAYS:CODE:REORDER:NOROOT(0)
`??afSetMatch::?relay`:
        CODE
        LCALL   ?BDISPATCH
        DATA24
        DC24    afSetMatch

        RSEG BANK_RELAYS:CODE:REORDER:NOROOT(0)
`??afNumEndPoints::?relay`:
        CODE
        LCALL   ?BDISPATCH
        DATA24
        DC24    afNumEndPoints

        RSEG BANK_RELAYS:CODE:REORDER:NOROOT(0)
`??afEndPoints::?relay`:
        CODE
        LCALL   ?BDISPATCH
        DATA24
        DC24    afEndPoints

        RSEG BANK_RELAYS:CODE:REORDER:NOROOT(0)
`??afCopyAddress::?relay`:
        CODE
        LCALL   ?BDISPATCH
        DATA24
        DC24    afCopyAddress

        END
//  968 
//  969 /*********************************************************************
//  970 *********************************************************************/
//  971 
// 
// 2 510 bytes in segment BANKED_CODE
//    96 bytes in segment BANK_RELAYS
//     1 byte  in segment XDATA_I
//     1 byte  in segment XDATA_ID
//     2 bytes in segment XDATA_Z
// 
// 2 607 bytes of CODE  memory
//     3 bytes of XDATA memory
//
//Errors: none
//Warnings: none
