///////////////////////////////////////////////////////////////////////////////
//
// IAR C/C++ Compiler V9.20.1.2476 for 8051               24/May/2017  15:58:52
// Copyright 2004-2015 IAR Systems AB.
// Standalone license - IAR Embedded Workbench for 8051
//
//    Core               =  plain
//    Code model         =  banked
//    Data model         =  large
//    Calling convention =  xdata reentrant
//    Constant location  =  data_rom
//    Dptr setup         =  1,16
//                          
//    Source file        =  
//        F:\3_Jin_testCode\ZStack-CC2530-2.3.0-1.4.0\Components\mt\MT_ZDO.c
//    Command line       =  
//        -f
//        F:\3_Jin_testCode\ZStack-CC2530-2.3.0-1.4.0\Projects\zstack\Samples\SampleApp\CC2530DB\..\..\..\Tools\CC2530DB\f8wCoord.cfg
//        (-DCPU32MHZ -DROOT=__near_func -DMAC_CFG_APP_PENDING_QUEUE=TRUE
//        -DZDO_COORDINATOR -DRTR_NWK -DBLINK_LEDS) -f
//        F:\3_Jin_testCode\ZStack-CC2530-2.3.0-1.4.0\Projects\zstack\Samples\SampleApp\CC2530DB\..\..\..\Tools\CC2530DB\f8wConfig.cfg
//        (-DSECURE=0 -DZG_SECURE_DYNAMIC=0 -DREFLECTOR
//        -DDEFAULT_CHANLIST=0x00000800 -DZDAPP_CONFIG_PAN_ID=0xFFFF
//        -DNWK_START_DELAY=100 -DEXTENDED_JOINING_RANDOM_MASK=0x007F
//        -DBEACON_REQUEST_DELAY=100 -DBEACON_REQ_DELAY_MASK=0x00FF
//        -DROUTE_EXPIRY_TIME=30 -DAPSC_ACK_WAIT_DURATION_POLLED=3000
//        -DNWK_INDIRECT_MSG_TIMEOUT=7 -DMAX_RREQ_ENTRIES=8
//        -DAPSC_MAX_FRAME_RETRIES=3 -DNWK_MAX_DATA_RETRIES=2
//        -DMAX_POLL_FAILURE_RETRIES=2 -DMAX_BCAST=9 -DAPS_MAX_GROUPS=16
//        -DMAX_RTG_ENTRIES=40 -DNWK_MAX_BINDING_ENTRIES=4
//        -DMAX_BINDING_CLUSTER_IDS=4 "-DDEFAULT_KEY={0x01, 0x03, 0x05, 0x07,
//        0x09, 0x0B, 0x0D, 0x0F, 0x00, 0x02, 0x04, 0x06, 0x08, 0x0A, 0x0C,
//        0x0D}" -DMAC_MAX_FRAME_SIZE=116 "-DCONST=const __code"
//        -DGENERIC=__generic -DRFD_RCVC_ALWAYS_ON=FALSE -DPOLL_RATE=1000
//        -DQUEUED_POLL_RATE=100 -DRESPONSE_POLL_RATE=100)
//        -DREJOIN_POLL_RATE=440
//        F:\3_Jin_testCode\ZStack-CC2530-2.3.0-1.4.0\Components\mt\MT_ZDO.c -D
//        ZTOOL_P1 -D MT_TASK -D MT_SYS_FUNC -D MT_ZDO_FUNC -D
//        LCD_SUPPORTED=DEBUG -lC
//        F:\3_Jin_testCode\ZStack-CC2530-2.3.0-1.4.0\Projects\zstack\Samples\SampleApp\CC2530DB\CoordinatorEB\List\
//        -lA
//        F:\3_Jin_testCode\ZStack-CC2530-2.3.0-1.4.0\Projects\zstack\Samples\SampleApp\CC2530DB\CoordinatorEB\List\
//        --diag_suppress Pe001,Pa010 -o
//        F:\3_Jin_testCode\ZStack-CC2530-2.3.0-1.4.0\Projects\zstack\Samples\SampleApp\CC2530DB\CoordinatorEB\Obj\
//        -e --debug --core=plain --dptr=16,1 --data_model=large
//        --code_model=banked --calling_convention=xdata_reentrant
//        --place_constants=data_rom --nr_virtual_regs 8 -I
//        F:\3_Jin_testCode\ZStack-CC2530-2.3.0-1.4.0\Projects\zstack\Samples\SampleApp\CC2530DB\
//        -I
//        F:\3_Jin_testCode\ZStack-CC2530-2.3.0-1.4.0\Projects\zstack\Samples\SampleApp\CC2530DB\..\SOURCE\
//        -I
//        F:\3_Jin_testCode\ZStack-CC2530-2.3.0-1.4.0\Projects\zstack\Samples\SampleApp\CC2530DB\..\..\..\ZMAIN\TI2530DB\
//        -I
//        F:\3_Jin_testCode\ZStack-CC2530-2.3.0-1.4.0\Projects\zstack\Samples\SampleApp\CC2530DB\..\..\..\..\..\COMPONENTS\MT\
//        -I
//        F:\3_Jin_testCode\ZStack-CC2530-2.3.0-1.4.0\Projects\zstack\Samples\SampleApp\CC2530DB\..\..\..\..\..\COMPONENTS\HAL\INCLUDE\
//        -I
//        F:\3_Jin_testCode\ZStack-CC2530-2.3.0-1.4.0\Projects\zstack\Samples\SampleApp\CC2530DB\..\..\..\..\..\COMPONENTS\HAL\TARGET\CC2530EB\
//        -I
//        F:\3_Jin_testCode\ZStack-CC2530-2.3.0-1.4.0\Projects\zstack\Samples\SampleApp\CC2530DB\..\..\..\..\..\COMPONENTS\OSAL\MCU\CCSOC\
//        -I
//        F:\3_Jin_testCode\ZStack-CC2530-2.3.0-1.4.0\Projects\zstack\Samples\SampleApp\CC2530DB\..\..\..\..\..\COMPONENTS\OSAL\INCLUDE\
//        -I
//        F:\3_Jin_testCode\ZStack-CC2530-2.3.0-1.4.0\Projects\zstack\Samples\SampleApp\CC2530DB\..\..\..\..\..\COMPONENTS\STACK\AF\
//        -I
//        F:\3_Jin_testCode\ZStack-CC2530-2.3.0-1.4.0\Projects\zstack\Samples\SampleApp\CC2530DB\..\..\..\..\..\COMPONENTS\STACK\NWK\
//        -I
//        F:\3_Jin_testCode\ZStack-CC2530-2.3.0-1.4.0\Projects\zstack\Samples\SampleApp\CC2530DB\..\..\..\..\..\COMPONENTS\STACK\SEC\
//        -I
//        F:\3_Jin_testCode\ZStack-CC2530-2.3.0-1.4.0\Projects\zstack\Samples\SampleApp\CC2530DB\..\..\..\..\..\COMPONENTS\STACK\SAPI\
//        -I
//        F:\3_Jin_testCode\ZStack-CC2530-2.3.0-1.4.0\Projects\zstack\Samples\SampleApp\CC2530DB\..\..\..\..\..\COMPONENTS\STACK\SYS\
//        -I
//        F:\3_Jin_testCode\ZStack-CC2530-2.3.0-1.4.0\Projects\zstack\Samples\SampleApp\CC2530DB\..\..\..\..\..\COMPONENTS\STACK\ZDO\
//        -I
//        F:\3_Jin_testCode\ZStack-CC2530-2.3.0-1.4.0\Projects\zstack\Samples\SampleApp\CC2530DB\..\..\..\..\..\COMPONENTS\ZMAC\F8W\
//        -I
//        F:\3_Jin_testCode\ZStack-CC2530-2.3.0-1.4.0\Projects\zstack\Samples\SampleApp\CC2530DB\..\..\..\..\..\COMPONENTS\ZMAC\
//        -I
//        F:\3_Jin_testCode\ZStack-CC2530-2.3.0-1.4.0\Projects\zstack\Samples\SampleApp\CC2530DB\..\..\..\..\..\COMPONENTS\SERVICES\SADDR\
//        -I
//        F:\3_Jin_testCode\ZStack-CC2530-2.3.0-1.4.0\Projects\zstack\Samples\SampleApp\CC2530DB\..\..\..\..\..\COMPONENTS\SERVICES\SDATA\
//        -I
//        F:\3_Jin_testCode\ZStack-CC2530-2.3.0-1.4.0\Projects\zstack\Samples\SampleApp\CC2530DB\..\..\..\..\..\COMPONENTS\MAC\INCLUDE\
//        -I
//        F:\3_Jin_testCode\ZStack-CC2530-2.3.0-1.4.0\Projects\zstack\Samples\SampleApp\CC2530DB\..\..\..\..\..\COMPONENTS\MAC\HIGH_LEVEL\
//        -I
//        F:\3_Jin_testCode\ZStack-CC2530-2.3.0-1.4.0\Projects\zstack\Samples\SampleApp\CC2530DB\..\..\..\..\..\COMPONENTS\MAC\LOW_LEVEL\srf04\
//        -I
//        F:\3_Jin_testCode\ZStack-CC2530-2.3.0-1.4.0\Projects\zstack\Samples\SampleApp\CC2530DB\..\..\..\..\..\COMPONENTS\MAC\LOW_LEVEL\srf04\SINGLE_CHIP\
//        -Ohz --require_prototypes
//    List file          =  
//        F:\3_Jin_testCode\ZStack-CC2530-2.3.0-1.4.0\Projects\zstack\Samples\SampleApp\CC2530DB\CoordinatorEB\List\MT_ZDO.s51
//
///////////////////////////////////////////////////////////////////////////////

        NAME MT_ZDO

        RTMODEL "__SystemLibrary", "CLib"
        RTMODEL "__calling_convention", "xdata_reentrant"
        RTMODEL "__code_model", "banked"
        RTMODEL "__core", "plain"
        RTMODEL "__data_model", "large"
        RTMODEL "__dptr_size", "16"
        RTMODEL "__extended_stack", "disabled"
        RTMODEL "__location_for_constants", "data"
        RTMODEL "__number_of_dptrs", "1"
        RTMODEL "__rt_version", "1"

        RSEG DOVERLAY:DATA:NOROOT(0)
        RSEG IOVERLAY:IDATA:NOROOT(0)
        RSEG ISTACK:IDATA:NOROOT(0)
        RSEG PSTACK:XDATA:NOROOT(0)
        RSEG XSTACK:XDATA:NOROOT(0)

        EXTERN ?V0
        EXTERN ?V1
        EXTERN ?V2
        EXTERN ?V3
        EXTERN ?V4
        EXTERN ?V5
        EXTERN ?V6
        EXTERN ?V7
        EXTERN ?ALLOC_XSTACK8
        EXTERN ?BANKED_ENTER_XDATA
        EXTERN ?BANKED_LEAVE_XDATA
        EXTERN ?BDISPATCH
        EXTERN ?BRET
        EXTERN ?DEALLOC_XSTACK8
        EXTERN ?PUSH_XSTACK_I_ONE
        EXTERN ?PUSH_XSTACK_I_THREE
        EXTERN ?PUSH_XSTACK_I_TWO
        EXTERN ?XSP
        EXTERN ?XSTACK_DISP0_8
        EXTERN ?XSTACK_DISP100_8
        EXTERN ?XSTACK_DISP101_8
        EXTERN ?XSTACK_DISP102_8
        EXTERN ?XSTACK_DISP103_8
        EXTERN __INIT_XDATA_Z

        PUBLIC `??MT_ZdoActiveEpRequest::?relay`
        FUNCTION `??MT_ZdoActiveEpRequest::?relay`,0203H
        PUBLIC `??MT_ZdoBindRequest::?relay`
        FUNCTION `??MT_ZdoBindRequest::?relay`,0203H
        PUBLIC `??MT_ZdoCommandProcessing::?relay`
        FUNCTION `??MT_ZdoCommandProcessing::?relay`,0203H
        PUBLIC `??MT_ZdoComplexDescRequest::?relay`
        FUNCTION `??MT_ZdoComplexDescRequest::?relay`,0203H
        PUBLIC `??MT_ZdoEndDevAnnce::?relay`
        FUNCTION `??MT_ZdoEndDevAnnce::?relay`,0203H
        PUBLIC `??MT_ZdoEndDevBindRequest::?relay`
        FUNCTION `??MT_ZdoEndDevBindRequest::?relay`,0203H
        PUBLIC `??MT_ZdoGetLinkKey::?relay`
        FUNCTION `??MT_ZdoGetLinkKey::?relay`,0203H
        PUBLIC `??MT_ZdoIEEEAddrRequest::?relay`
        FUNCTION `??MT_ZdoIEEEAddrRequest::?relay`,0203H
        PUBLIC `??MT_ZdoInit::?relay`
        FUNCTION `??MT_ZdoInit::?relay`,0203H
        PUBLIC `??MT_ZdoMatchDescRequest::?relay`
        FUNCTION `??MT_ZdoMatchDescRequest::?relay`,0203H
        PUBLIC `??MT_ZdoNWKAddressRequest::?relay`
        FUNCTION `??MT_ZdoNWKAddressRequest::?relay`,0203H
        PUBLIC `??MT_ZdoNodeDescRequest::?relay`
        FUNCTION `??MT_ZdoNodeDescRequest::?relay`,0203H
        PUBLIC `??MT_ZdoPowerDescRequest::?relay`
        FUNCTION `??MT_ZdoPowerDescRequest::?relay`,0203H
        PUBLIC `??MT_ZdoRegisterForZDOMsg::?relay`
        FUNCTION `??MT_ZdoRegisterForZDOMsg::?relay`,0203H
        PUBLIC `??MT_ZdoRemoveLinkKey::?relay`
        FUNCTION `??MT_ZdoRemoveLinkKey::?relay`,0203H
        PUBLIC `??MT_ZdoRemoveRegisteredCB::?relay`
        FUNCTION `??MT_ZdoRemoveRegisteredCB::?relay`,0203H
        PUBLIC `??MT_ZdoSendMsgCB::?relay`
        FUNCTION `??MT_ZdoSendMsgCB::?relay`,0203H
        PUBLIC `??MT_ZdoServiceDiscRequest::?relay`
        FUNCTION `??MT_ZdoServiceDiscRequest::?relay`,0203H
        PUBLIC `??MT_ZdoSetLinkKey::?relay`
        FUNCTION `??MT_ZdoSetLinkKey::?relay`,0203H
        PUBLIC `??MT_ZdoSimpleDescRequest::?relay`
        FUNCTION `??MT_ZdoSimpleDescRequest::?relay`,0203H
        PUBLIC `??MT_ZdoStartupFromApp::?relay`
        FUNCTION `??MT_ZdoStartupFromApp::?relay`,0203H
        PUBLIC `??MT_ZdoUnbindRequest::?relay`
        FUNCTION `??MT_ZdoUnbindRequest::?relay`,0203H
        PUBLIC `??MT_ZdoUserDescRequest::?relay`
        FUNCTION `??MT_ZdoUserDescRequest::?relay`,0203H
        PUBLIC `??MT_ZdoUserDescSet::?relay`
        FUNCTION `??MT_ZdoUserDescSet::?relay`,0203H
        PUBLIC MT_ZdoActiveEpRequest
        FUNCTION MT_ZdoActiveEpRequest,0a1203H
        ARGFRAME XSTACK, 9, STACK
        ARGFRAME IOVERLAY, 0, STATIC
        ARGFRAME DOVERLAY, 0, STATIC
        LOCFRAME ISTACK, 1, STACK
        LOCFRAME XSTACK, 20, STACK
        PUBLIC MT_ZdoBindRequest
        FUNCTION MT_ZdoBindRequest,0a1203H
        ARGFRAME XSTACK, 9, STACK
        ARGFRAME IOVERLAY, 0, STATIC
        ARGFRAME DOVERLAY, 0, STATIC
        LOCFRAME ISTACK, 1, STACK
        LOCFRAME XSTACK, 43, STACK
        PUBLIC MT_ZdoCommandProcessing
        FUNCTION MT_ZdoCommandProcessing,021203H
        ARGFRAME XSTACK, 0, STACK
        LOCFRAME XSTACK, 9, STACK
        PUBLIC MT_ZdoComplexDescRequest
        FUNCTION MT_ZdoComplexDescRequest,0a1203H
        ARGFRAME XSTACK, 9, STACK
        ARGFRAME IOVERLAY, 0, STATIC
        ARGFRAME DOVERLAY, 0, STATIC
        LOCFRAME ISTACK, 1, STACK
        LOCFRAME XSTACK, 20, STACK
        PUBLIC MT_ZdoEndDevAnnce
        FUNCTION MT_ZdoEndDevAnnce,0a1203H
        ARGFRAME XSTACK, 9, STACK
        ARGFRAME IOVERLAY, 0, STATIC
        ARGFRAME DOVERLAY, 0, STATIC
        LOCFRAME ISTACK, 1, STACK
        LOCFRAME XSTACK, 11, STACK
        PUBLIC MT_ZdoEndDevBindRequest
        FUNCTION MT_ZdoEndDevBindRequest,0a1203H
        ARGFRAME XSTACK, 9, STACK
        ARGFRAME IOVERLAY, 0, STATIC
        ARGFRAME DOVERLAY, 0, STATIC
        LOCFRAME ISTACK, 1, STACK
        LOCFRAME XSTACK, 94, STACK
        PUBLIC MT_ZdoGetLinkKey
        FUNCTION MT_ZdoGetLinkKey,0a1203H
        ARGFRAME XSTACK, 9, STACK
        ARGFRAME IOVERLAY, 0, STATIC
        ARGFRAME DOVERLAY, 0, STATIC
        LOCFRAME ISTACK, 1, STACK
        LOCFRAME XSTACK, 19, STACK
        PUBLIC MT_ZdoIEEEAddrRequest
        FUNCTION MT_ZdoIEEEAddrRequest,0a1203H
        ARGFRAME XSTACK, 9, STACK
        ARGFRAME IOVERLAY, 0, STATIC
        ARGFRAME DOVERLAY, 0, STATIC
        LOCFRAME ISTACK, 1, STACK
        LOCFRAME XSTACK, 11, STACK
        PUBLIC MT_ZdoInit
        FUNCTION MT_ZdoInit,0203H
        ARGFRAME XSTACK, 0, STACK
        PUBLIC MT_ZdoMatchDescRequest
        FUNCTION MT_ZdoMatchDescRequest,0a1203H
        ARGFRAME XSTACK, 9, STACK
        ARGFRAME IOVERLAY, 0, STATIC
        ARGFRAME DOVERLAY, 0, STATIC
        LOCFRAME ISTACK, 1, STACK
        LOCFRAME XSTACK, 96, STACK
        PUBLIC MT_ZdoNWKAddressRequest
        FUNCTION MT_ZdoNWKAddressRequest,0a1203H
        ARGFRAME XSTACK, 9, STACK
        ARGFRAME IOVERLAY, 0, STATIC
        ARGFRAME DOVERLAY, 0, STATIC
        LOCFRAME ISTACK, 1, STACK
        LOCFRAME XSTACK, 11, STACK
        PUBLIC MT_ZdoNodeDescRequest
        FUNCTION MT_ZdoNodeDescRequest,0a1203H
        ARGFRAME XSTACK, 9, STACK
        ARGFRAME IOVERLAY, 0, STATIC
        ARGFRAME DOVERLAY, 0, STATIC
        LOCFRAME ISTACK, 1, STACK
        LOCFRAME XSTACK, 20, STACK
        PUBLIC MT_ZdoPowerDescRequest
        FUNCTION MT_ZdoPowerDescRequest,0a1203H
        ARGFRAME XSTACK, 9, STACK
        ARGFRAME IOVERLAY, 0, STATIC
        ARGFRAME DOVERLAY, 0, STATIC
        LOCFRAME ISTACK, 1, STACK
        LOCFRAME XSTACK, 20, STACK
        PUBLIC MT_ZdoRegisterForZDOMsg
        FUNCTION MT_ZdoRegisterForZDOMsg,021203H
        ARGFRAME XSTACK, 9, STACK
        ARGFRAME IOVERLAY, 0, STATIC
        ARGFRAME DOVERLAY, 0, STATIC
        LOCFRAME ISTACK, 1, STACK
        LOCFRAME XSTACK, 10, STACK
        PUBLIC MT_ZdoRemoveLinkKey
        FUNCTION MT_ZdoRemoveLinkKey,021203H
        ARGFRAME XSTACK, 9, STACK
        ARGFRAME IOVERLAY, 0, STATIC
        ARGFRAME DOVERLAY, 0, STATIC
        LOCFRAME ISTACK, 1, STACK
        LOCFRAME XSTACK, 10, STACK
        PUBLIC MT_ZdoRemoveRegisteredCB
        FUNCTION MT_ZdoRemoveRegisteredCB,021203H
        ARGFRAME XSTACK, 9, STACK
        ARGFRAME IOVERLAY, 0, STATIC
        ARGFRAME DOVERLAY, 0, STATIC
        LOCFRAME ISTACK, 1, STACK
        LOCFRAME XSTACK, 10, STACK
        PUBLIC MT_ZdoSendMsgCB
        FUNCTION MT_ZdoSendMsgCB,0a1203H
        ARGFRAME XSTACK, 0, STACK
        LOCFRAME ISTACK, 1, STACK
        LOCFRAME XSTACK, 18, STACK
        PUBLIC MT_ZdoServiceDiscRequest
        FUNCTION MT_ZdoServiceDiscRequest,021203H
        ARGFRAME XSTACK, 9, STACK
        ARGFRAME IOVERLAY, 0, STATIC
        ARGFRAME DOVERLAY, 0, STATIC
        LOCFRAME ISTACK, 1, STACK
        LOCFRAME XSTACK, 10, STACK
        PUBLIC MT_ZdoSetLinkKey
        FUNCTION MT_ZdoSetLinkKey,0a1203H
        ARGFRAME XSTACK, 9, STACK
        ARGFRAME IOVERLAY, 0, STATIC
        ARGFRAME DOVERLAY, 0, STATIC
        LOCFRAME ISTACK, 1, STACK
        LOCFRAME XSTACK, 13, STACK
        PUBLIC MT_ZdoSimpleDescRequest
        FUNCTION MT_ZdoSimpleDescRequest,0a1203H
        ARGFRAME XSTACK, 9, STACK
        ARGFRAME IOVERLAY, 0, STATIC
        ARGFRAME DOVERLAY, 0, STATIC
        LOCFRAME ISTACK, 1, STACK
        LOCFRAME XSTACK, 20, STACK
        PUBLIC MT_ZdoStartupFromApp
        FUNCTION MT_ZdoStartupFromApp,021203H
        ARGFRAME XSTACK, 9, STACK
        ARGFRAME IOVERLAY, 0, STATIC
        ARGFRAME DOVERLAY, 0, STATIC
        LOCFRAME ISTACK, 1, STACK
        LOCFRAME XSTACK, 10, STACK
        PUBLIC MT_ZdoUnbindRequest
        FUNCTION MT_ZdoUnbindRequest,0a1203H
        ARGFRAME XSTACK, 9, STACK
        ARGFRAME IOVERLAY, 0, STATIC
        ARGFRAME DOVERLAY, 0, STATIC
        LOCFRAME ISTACK, 1, STACK
        LOCFRAME XSTACK, 43, STACK
        PUBLIC MT_ZdoUserDescRequest
        FUNCTION MT_ZdoUserDescRequest,0a1203H
        ARGFRAME XSTACK, 9, STACK
        ARGFRAME IOVERLAY, 0, STATIC
        ARGFRAME DOVERLAY, 0, STATIC
        LOCFRAME ISTACK, 1, STACK
        LOCFRAME XSTACK, 20, STACK
        PUBLIC MT_ZdoUserDescSet
        FUNCTION MT_ZdoUserDescSet,0a1203H
        ARGFRAME XSTACK, 9, STACK
        ARGFRAME IOVERLAY, 0, STATIC
        ARGFRAME DOVERLAY, 0, STATIC
        LOCFRAME ISTACK, 1, STACK
        LOCFRAME XSTACK, 42, STACK
        PUBLIC _zdoCallbackSub
        
          CFI Names cfiNames0
          CFI StackFrame CFA_SP SP IDATA
          CFI StackFrame CFA_PSP16 PSP16 XDATA
          CFI StackFrame CFA_XSP16 XSP16 XDATA
          CFI StaticOverlayFrame CFA_IOVERLAY IOVERLAY
          CFI StaticOverlayFrame CFA_DOVERLAY DOVERLAY
          CFI Resource `PSW.CY`:1, `B.BR0`:1, `B.BR1`:1, `B.BR2`:1, `B.BR3`:1
          CFI Resource `B.BR4`:1, `B.BR5`:1, `B.BR6`:1, `B.BR7`:1, `VB.BR8`:1
          CFI Resource `VB.BR9`:1, `VB.BR10`:1, `VB.BR11`:1, `VB.BR12`:1
          CFI Resource `VB.BR13`:1, `VB.BR14`:1, `VB.BR15`:1, VB:8, B:8, A:8
          CFI Resource PSW:8, DPL0:8, DPH0:8, R0:8, R1:8, R2:8, R3:8, R4:8, R5:8
          CFI Resource R6:8, R7:8, V0:8, V1:8, V2:8, V3:8, V4:8, V5:8, V6:8, V7:8
          CFI Resource SP:8, PSPH:8, PSPL:8, PSP16:16, XSPH:8, XSPL:8, XSP16:16
          CFI VirtualResource ?RET:24
          CFI Resource ?BRET_EXT:8
          CFI VirtualResource ?RET_HIGH:8, ?RET_LOW:8
          CFI ResourceParts PSP16 PSPH, PSPL
          CFI ResourceParts XSP16 XSPH, XSPL
          CFI ResourceParts ?RET ?BRET_EXT, ?RET_HIGH, ?RET_LOW
          CFI EndNames cfiNames0
        
          CFI Common cfiCommon0 Using cfiNames0
          CFI CodeAlign 1
          CFI DataAlign -1
          CFI ReturnAddress ?RET CODE
          CFI CFA_DOVERLAY Used
          CFI CFA_IOVERLAY Used
          CFI CFA_SP SP+-3
          CFI CFA_PSP16 PSP16+0
          CFI CFA_XSP16 XSP16+0
          CFI `PSW.CY` SameValue
          CFI `B.BR0` SameValue
          CFI `B.BR1` SameValue
          CFI `B.BR2` SameValue
          CFI `B.BR3` SameValue
          CFI `B.BR4` SameValue
          CFI `B.BR5` SameValue
          CFI `B.BR6` SameValue
          CFI `B.BR7` SameValue
          CFI `VB.BR8` SameValue
          CFI `VB.BR9` SameValue
          CFI `VB.BR10` SameValue
          CFI `VB.BR11` SameValue
          CFI `VB.BR12` SameValue
          CFI `VB.BR13` SameValue
          CFI `VB.BR14` SameValue
          CFI `VB.BR15` SameValue
          CFI VB SameValue
          CFI B Undefined
          CFI A Undefined
          CFI PSW SameValue
          CFI DPL0 SameValue
          CFI DPH0 SameValue
          CFI R0 Undefined
          CFI R1 Undefined
          CFI R2 Undefined
          CFI R3 Undefined
          CFI R4 Undefined
          CFI R5 Undefined
          CFI R6 SameValue
          CFI R7 SameValue
          CFI V0 SameValue
          CFI V1 SameValue
          CFI V2 SameValue
          CFI V3 SameValue
          CFI V4 SameValue
          CFI V5 SameValue
          CFI V6 SameValue
          CFI V7 SameValue
          CFI PSPH Undefined
          CFI PSPL Undefined
          CFI XSPH Undefined
          CFI XSPL Undefined
          CFI ?RET Concat
          CFI ?BRET_EXT Frame(CFA_SP, 3)
          CFI ?RET_HIGH Frame(CFA_SP, 2)
          CFI ?RET_LOW Frame(CFA_SP, 1)
          CFI EndCommon cfiCommon0
        
        
          CFI Common cfiCommon1 Using cfiNames0
          CFI CodeAlign 1
          CFI DataAlign -1
          CFI ReturnAddress ?RET CODE
          CFI CFA_DOVERLAY Used
          CFI CFA_IOVERLAY Used
          CFI CFA_SP SP+-2
          CFI CFA_PSP16 PSP16+0
          CFI CFA_XSP16 XSP16+0
          CFI `PSW.CY` SameValue
          CFI `B.BR0` SameValue
          CFI `B.BR1` SameValue
          CFI `B.BR2` SameValue
          CFI `B.BR3` SameValue
          CFI `B.BR4` SameValue
          CFI `B.BR5` SameValue
          CFI `B.BR6` SameValue
          CFI `B.BR7` SameValue
          CFI `VB.BR8` SameValue
          CFI `VB.BR9` SameValue
          CFI `VB.BR10` SameValue
          CFI `VB.BR11` SameValue
          CFI `VB.BR12` SameValue
          CFI `VB.BR13` SameValue
          CFI `VB.BR14` SameValue
          CFI `VB.BR15` SameValue
          CFI VB SameValue
          CFI B SameValue
          CFI A SameValue
          CFI PSW SameValue
          CFI DPL0 SameValue
          CFI DPH0 SameValue
          CFI R0 SameValue
          CFI R1 SameValue
          CFI R2 SameValue
          CFI R3 SameValue
          CFI R4 SameValue
          CFI R5 SameValue
          CFI R6 SameValue
          CFI R7 SameValue
          CFI V0 SameValue
          CFI V1 SameValue
          CFI V2 SameValue
          CFI V3 SameValue
          CFI V4 SameValue
          CFI V5 SameValue
          CFI V6 SameValue
          CFI V7 SameValue
          CFI PSPH Undefined
          CFI PSPL Undefined
          CFI XSPH Undefined
          CFI XSPL Undefined
          CFI ?RET Concat
          CFI ?BRET_EXT SameValue
          CFI ?RET_HIGH Frame(CFA_SP, 2)
          CFI ?RET_LOW Frame(CFA_SP, 1)
          CFI EndCommon cfiCommon1
        
APSME_LinkKeyDataGet SYMBOL "APSME_LinkKeyDataGet"
`??APSME_LinkKeyDataGet::?relay` SYMBOL "?relay", APSME_LinkKeyDataGet
MT_BuildAndSendZToolResponse SYMBOL "MT_BuildAndSendZToolResponse"
`??MT_BuildAndSendZToolResponse::?relay` SYMBOL "?relay", MT_BuildAndSendZToolResponse
ZDOInitDevice       SYMBOL "ZDOInitDevice"
`??ZDOInitDevice::?relay` SYMBOL "?relay", ZDOInitDevice
ZDO_RegisterForZDOMsg SYMBOL "ZDO_RegisterForZDOMsg"
`??ZDO_RegisterForZDOMsg::?relay` SYMBOL "?relay", ZDO_RegisterForZDOMsg
ZDO_RemoveRegisteredCB SYMBOL "ZDO_RemoveRegisteredCB"
`??ZDO_RemoveRegisteredCB::?relay` SYMBOL "?relay", ZDO_RemoveRegisteredCB
ZDP_BindUnbindReq   SYMBOL "ZDP_BindUnbindReq"
`??ZDP_BindUnbindReq::?relay` SYMBOL "?relay", ZDP_BindUnbindReq
ZDP_DeviceAnnce     SYMBOL "ZDP_DeviceAnnce"
`??ZDP_DeviceAnnce::?relay` SYMBOL "?relay", ZDP_DeviceAnnce
ZDP_EndDeviceBindReq SYMBOL "ZDP_EndDeviceBindReq"
`??ZDP_EndDeviceBindReq::?relay` SYMBOL "?relay", ZDP_EndDeviceBindReq
ZDP_IEEEAddrReq     SYMBOL "ZDP_IEEEAddrReq"
`??ZDP_IEEEAddrReq::?relay` SYMBOL "?relay", ZDP_IEEEAddrReq
ZDP_MatchDescReq    SYMBOL "ZDP_MatchDescReq"
`??ZDP_MatchDescReq::?relay` SYMBOL "?relay", ZDP_MatchDescReq
ZDP_NWKAddrOfInterestReq SYMBOL "ZDP_NWKAddrOfInterestReq"
`??ZDP_NWKAddrOfInterestReq::?relay` SYMBOL "?relay", ZDP_NWKAddrOfInterestReq
ZDP_NwkAddrReq      SYMBOL "ZDP_NwkAddrReq"
`??ZDP_NwkAddrReq::?relay` SYMBOL "?relay", ZDP_NwkAddrReq
ZDP_ServerDiscReq   SYMBOL "ZDP_ServerDiscReq"
`??ZDP_ServerDiscReq::?relay` SYMBOL "?relay", ZDP_ServerDiscReq
ZDP_SimpleDescReq   SYMBOL "ZDP_SimpleDescReq"
`??ZDP_SimpleDescReq::?relay` SYMBOL "?relay", ZDP_SimpleDescReq
ZDP_UserDescSet     SYMBOL "ZDP_UserDescSet"
`??ZDP_UserDescSet::?relay` SYMBOL "?relay", ZDP_UserDescSet
ZDSecMgrAddLinkKey  SYMBOL "ZDSecMgrAddLinkKey"
`??ZDSecMgrAddLinkKey::?relay` SYMBOL "?relay", ZDSecMgrAddLinkKey
ZDSecMgrDeviceRemoveByExtAddr SYMBOL "ZDSecMgrDeviceRemoveByExtAddr"
`??ZDSecMgrDeviceRemoveByExtAddr::?relay` SYMBOL "?relay", ZDSecMgrDeviceRemoveByExtAddr
osal_mem_alloc      SYMBOL "osal_mem_alloc"
`??osal_mem_alloc::?relay` SYMBOL "?relay", osal_mem_alloc
osal_memcpy         SYMBOL "osal_memcpy"
`??osal_memcpy::?relay` SYMBOL "?relay", osal_memcpy
osal_memset         SYMBOL "osal_memset"
`??osal_memset::?relay` SYMBOL "?relay", osal_memset
sAddrExtCpy         SYMBOL "sAddrExtCpy"
`??sAddrExtCpy::?relay` SYMBOL "?relay", sAddrExtCpy
MT_ZdoActiveEpRequest SYMBOL "MT_ZdoActiveEpRequest"
`??MT_ZdoActiveEpRequest::?relay` SYMBOL "?relay", MT_ZdoActiveEpRequest
MT_ZdoBindRequest   SYMBOL "MT_ZdoBindRequest"
`??MT_ZdoBindRequest::?relay` SYMBOL "?relay", MT_ZdoBindRequest
MT_ZdoCommandProcessing SYMBOL "MT_ZdoCommandProcessing"
`??MT_ZdoCommandProcessing::?relay` SYMBOL "?relay", MT_ZdoCommandProcessing
MT_ZdoComplexDescRequest SYMBOL "MT_ZdoComplexDescRequest"
`??MT_ZdoComplexDescRequest::?relay` SYMBOL "?relay", MT_ZdoComplexDescRequest
MT_ZdoEndDevAnnce   SYMBOL "MT_ZdoEndDevAnnce"
`??MT_ZdoEndDevAnnce::?relay` SYMBOL "?relay", MT_ZdoEndDevAnnce
MT_ZdoEndDevBindRequest SYMBOL "MT_ZdoEndDevBindRequest"
`??MT_ZdoEndDevBindRequest::?relay` SYMBOL "?relay", MT_ZdoEndDevBindRequest
MT_ZdoGetLinkKey    SYMBOL "MT_ZdoGetLinkKey"
`??MT_ZdoGetLinkKey::?relay` SYMBOL "?relay", MT_ZdoGetLinkKey
MT_ZdoIEEEAddrRequest SYMBOL "MT_ZdoIEEEAddrRequest"
`??MT_ZdoIEEEAddrRequest::?relay` SYMBOL "?relay", MT_ZdoIEEEAddrRequest
MT_ZdoInit          SYMBOL "MT_ZdoInit"
`??MT_ZdoInit::?relay` SYMBOL "?relay", MT_ZdoInit
MT_ZdoMatchDescRequest SYMBOL "MT_ZdoMatchDescRequest"
`??MT_ZdoMatchDescRequest::?relay` SYMBOL "?relay", MT_ZdoMatchDescRequest
MT_ZdoNWKAddressRequest SYMBOL "MT_ZdoNWKAddressRequest"
`??MT_ZdoNWKAddressRequest::?relay` SYMBOL "?relay", MT_ZdoNWKAddressRequest
MT_ZdoNodeDescRequest SYMBOL "MT_ZdoNodeDescRequest"
`??MT_ZdoNodeDescRequest::?relay` SYMBOL "?relay", MT_ZdoNodeDescRequest
MT_ZdoPowerDescRequest SYMBOL "MT_ZdoPowerDescRequest"
`??MT_ZdoPowerDescRequest::?relay` SYMBOL "?relay", MT_ZdoPowerDescRequest
MT_ZdoRegisterForZDOMsg SYMBOL "MT_ZdoRegisterForZDOMsg"
`??MT_ZdoRegisterForZDOMsg::?relay` SYMBOL "?relay", MT_ZdoRegisterForZDOMsg
MT_ZdoRemoveLinkKey SYMBOL "MT_ZdoRemoveLinkKey"
`??MT_ZdoRemoveLinkKey::?relay` SYMBOL "?relay", MT_ZdoRemoveLinkKey
MT_ZdoRemoveRegisteredCB SYMBOL "MT_ZdoRemoveRegisteredCB"
`??MT_ZdoRemoveRegisteredCB::?relay` SYMBOL "?relay", MT_ZdoRemoveRegisteredCB
MT_ZdoSendMsgCB     SYMBOL "MT_ZdoSendMsgCB"
`??MT_ZdoSendMsgCB::?relay` SYMBOL "?relay", MT_ZdoSendMsgCB
MT_ZdoServiceDiscRequest SYMBOL "MT_ZdoServiceDiscRequest"
`??MT_ZdoServiceDiscRequest::?relay` SYMBOL "?relay", MT_ZdoServiceDiscRequest
MT_ZdoSetLinkKey    SYMBOL "MT_ZdoSetLinkKey"
`??MT_ZdoSetLinkKey::?relay` SYMBOL "?relay", MT_ZdoSetLinkKey
MT_ZdoSimpleDescRequest SYMBOL "MT_ZdoSimpleDescRequest"
`??MT_ZdoSimpleDescRequest::?relay` SYMBOL "?relay", MT_ZdoSimpleDescRequest
MT_ZdoStartupFromApp SYMBOL "MT_ZdoStartupFromApp"
`??MT_ZdoStartupFromApp::?relay` SYMBOL "?relay", MT_ZdoStartupFromApp
MT_ZdoUnbindRequest SYMBOL "MT_ZdoUnbindRequest"
`??MT_ZdoUnbindRequest::?relay` SYMBOL "?relay", MT_ZdoUnbindRequest
MT_ZdoUserDescRequest SYMBOL "MT_ZdoUserDescRequest"
`??MT_ZdoUserDescRequest::?relay` SYMBOL "?relay", MT_ZdoUserDescRequest
MT_ZdoUserDescSet   SYMBOL "MT_ZdoUserDescSet"
`??MT_ZdoUserDescSet::?relay` SYMBOL "?relay", MT_ZdoUserDescSet

        EXTERN `??APSME_LinkKeyDataGet::?relay`
        FUNCTION `??APSME_LinkKeyDataGet::?relay`,00H
        EXTERN `??MT_BuildAndSendZToolResponse::?relay`
        FUNCTION `??MT_BuildAndSendZToolResponse::?relay`,00H
        EXTERN `??ZDOInitDevice::?relay`
        FUNCTION `??ZDOInitDevice::?relay`,00H
        EXTERN `??ZDO_RegisterForZDOMsg::?relay`
        FUNCTION `??ZDO_RegisterForZDOMsg::?relay`,00H
        EXTERN `??ZDO_RemoveRegisteredCB::?relay`
        FUNCTION `??ZDO_RemoveRegisteredCB::?relay`,00H
        EXTERN `??ZDP_BindUnbindReq::?relay`
        FUNCTION `??ZDP_BindUnbindReq::?relay`,00H
        EXTERN `??ZDP_DeviceAnnce::?relay`
        FUNCTION `??ZDP_DeviceAnnce::?relay`,00H
        EXTERN `??ZDP_EndDeviceBindReq::?relay`
        FUNCTION `??ZDP_EndDeviceBindReq::?relay`,00H
        EXTERN `??ZDP_IEEEAddrReq::?relay`
        FUNCTION `??ZDP_IEEEAddrReq::?relay`,00H
        EXTERN `??ZDP_MatchDescReq::?relay`
        FUNCTION `??ZDP_MatchDescReq::?relay`,00H
        EXTERN `??ZDP_NWKAddrOfInterestReq::?relay`
        FUNCTION `??ZDP_NWKAddrOfInterestReq::?relay`,00H
        EXTERN `??ZDP_NwkAddrReq::?relay`
        FUNCTION `??ZDP_NwkAddrReq::?relay`,00H
        EXTERN `??ZDP_ServerDiscReq::?relay`
        FUNCTION `??ZDP_ServerDiscReq::?relay`,00H
        EXTERN `??ZDP_SimpleDescReq::?relay`
        FUNCTION `??ZDP_SimpleDescReq::?relay`,00H
        EXTERN `??ZDP_UserDescSet::?relay`
        FUNCTION `??ZDP_UserDescSet::?relay`,00H
        EXTERN `??ZDSecMgrAddLinkKey::?relay`
        FUNCTION `??ZDSecMgrAddLinkKey::?relay`,00H
        EXTERN `??ZDSecMgrDeviceRemoveByExtAddr::?relay`
        FUNCTION `??ZDSecMgrDeviceRemoveByExtAddr::?relay`,00H
        EXTERN `??osal_mem_alloc::?relay`
        FUNCTION `??osal_mem_alloc::?relay`,00H
        EXTERN `??osal_memcpy::?relay`
        FUNCTION `??osal_memcpy::?relay`,00H
        EXTERN `??osal_memset::?relay`
        FUNCTION `??osal_memset::?relay`,00H
        EXTERN `??sAddrExtCpy::?relay`
        FUNCTION `??sAddrExtCpy::?relay`,00H
        EXTERN APSME_LinkKeyDataGet
        FUNCTION APSME_LinkKeyDataGet,0202H
        ARGFRAME ISTACK, 0, STACK
        ARGFRAME PSTACK, 0, STACK
        ARGFRAME XSTACK, 16, STACK
        ARGFRAME IOVERLAY, 0, STATIC
        ARGFRAME DOVERLAY, 0, STATIC
        EXTERN MT_BuildAndSendZToolResponse
        FUNCTION MT_BuildAndSendZToolResponse,0202H
        ARGFRAME ISTACK, 0, STACK
        ARGFRAME PSTACK, 0, STACK
        ARGFRAME XSTACK, 88, STACK
        ARGFRAME IOVERLAY, 0, STATIC
        ARGFRAME DOVERLAY, 0, STATIC
        EXTERN MT_TaskID
        EXTERN ZDOInitDevice
        FUNCTION ZDOInitDevice,0202H
        ARGFRAME ISTACK, 0, STACK
        ARGFRAME PSTACK, 0, STACK
        ARGFRAME XSTACK, 10, STACK
        ARGFRAME IOVERLAY, 0, STATIC
        ARGFRAME DOVERLAY, 0, STATIC
        EXTERN ZDO_RegisterForZDOMsg
        FUNCTION ZDO_RegisterForZDOMsg,0202H
        ARGFRAME ISTACK, 0, STACK
        ARGFRAME PSTACK, 0, STACK
        ARGFRAME XSTACK, 10, STACK
        ARGFRAME IOVERLAY, 0, STATIC
        ARGFRAME DOVERLAY, 0, STATIC
        EXTERN ZDO_RemoveRegisteredCB
        FUNCTION ZDO_RemoveRegisteredCB,0202H
        ARGFRAME ISTACK, 0, STACK
        ARGFRAME PSTACK, 0, STACK
        ARGFRAME XSTACK, 10, STACK
        ARGFRAME IOVERLAY, 0, STATIC
        ARGFRAME DOVERLAY, 0, STATIC
        EXTERN ZDP_BindUnbindReq
        FUNCTION ZDP_BindUnbindReq,0202H
        ARGFRAME ISTACK, 0, STACK
        ARGFRAME PSTACK, 0, STACK
        ARGFRAME XSTACK, 43, STACK
        ARGFRAME IOVERLAY, 0, STATIC
        ARGFRAME DOVERLAY, 0, STATIC
        EXTERN ZDP_DeviceAnnce
        FUNCTION ZDP_DeviceAnnce,0202H
        ARGFRAME ISTACK, 0, STACK
        ARGFRAME PSTACK, 0, STACK
        ARGFRAME XSTACK, 11, STACK
        ARGFRAME IOVERLAY, 0, STATIC
        ARGFRAME DOVERLAY, 0, STATIC
        EXTERN ZDP_EndDeviceBindReq
        FUNCTION ZDP_EndDeviceBindReq,0202H
        ARGFRAME ISTACK, 0, STACK
        ARGFRAME PSTACK, 0, STACK
        ARGFRAME XSTACK, 94, STACK
        ARGFRAME IOVERLAY, 0, STATIC
        ARGFRAME DOVERLAY, 0, STATIC
        EXTERN ZDP_IEEEAddrReq
        FUNCTION ZDP_IEEEAddrReq,0202H
        ARGFRAME ISTACK, 0, STACK
        ARGFRAME PSTACK, 0, STACK
        ARGFRAME XSTACK, 11, STACK
        ARGFRAME IOVERLAY, 0, STATIC
        ARGFRAME DOVERLAY, 0, STATIC
        EXTERN ZDP_MatchDescReq
        FUNCTION ZDP_MatchDescReq,0202H
        ARGFRAME ISTACK, 0, STACK
        ARGFRAME PSTACK, 0, STACK
        ARGFRAME XSTACK, 96, STACK
        ARGFRAME IOVERLAY, 0, STATIC
        ARGFRAME DOVERLAY, 0, STATIC
        EXTERN ZDP_NWKAddrOfInterestReq
        FUNCTION ZDP_NWKAddrOfInterestReq,0202H
        ARGFRAME ISTACK, 0, STACK
        ARGFRAME PSTACK, 0, STACK
        ARGFRAME XSTACK, 20, STACK
        ARGFRAME IOVERLAY, 0, STATIC
        ARGFRAME DOVERLAY, 0, STATIC
        EXTERN ZDP_NwkAddrReq
        FUNCTION ZDP_NwkAddrReq,0202H
        ARGFRAME ISTACK, 0, STACK
        ARGFRAME PSTACK, 0, STACK
        ARGFRAME XSTACK, 11, STACK
        ARGFRAME IOVERLAY, 0, STATIC
        ARGFRAME DOVERLAY, 0, STATIC
        EXTERN ZDP_ServerDiscReq
        FUNCTION ZDP_ServerDiscReq,0202H
        ARGFRAME ISTACK, 0, STACK
        ARGFRAME PSTACK, 0, STACK
        ARGFRAME XSTACK, 10, STACK
        ARGFRAME IOVERLAY, 0, STATIC
        ARGFRAME DOVERLAY, 0, STATIC
        EXTERN ZDP_SimpleDescReq
        FUNCTION ZDP_SimpleDescReq,0202H
        ARGFRAME ISTACK, 0, STACK
        ARGFRAME PSTACK, 0, STACK
        ARGFRAME XSTACK, 20, STACK
        ARGFRAME IOVERLAY, 0, STATIC
        ARGFRAME DOVERLAY, 0, STATIC
        EXTERN ZDP_UserDescSet
        FUNCTION ZDP_UserDescSet,0202H
        ARGFRAME ISTACK, 0, STACK
        ARGFRAME PSTACK, 0, STACK
        ARGFRAME XSTACK, 41, STACK
        ARGFRAME IOVERLAY, 0, STATIC
        ARGFRAME DOVERLAY, 0, STATIC
        EXTERN ZDSecMgrAddLinkKey
        FUNCTION ZDSecMgrAddLinkKey,0202H
        ARGFRAME ISTACK, 0, STACK
        ARGFRAME PSTACK, 0, STACK
        ARGFRAME XSTACK, 13, STACK
        ARGFRAME IOVERLAY, 0, STATIC
        ARGFRAME DOVERLAY, 0, STATIC
        EXTERN ZDSecMgrDeviceRemoveByExtAddr
        FUNCTION ZDSecMgrDeviceRemoveByExtAddr,0202H
        ARGFRAME ISTACK, 0, STACK
        ARGFRAME PSTACK, 0, STACK
        ARGFRAME XSTACK, 10, STACK
        ARGFRAME IOVERLAY, 0, STATIC
        ARGFRAME DOVERLAY, 0, STATIC
        EXTERN osal_mem_alloc
        FUNCTION osal_mem_alloc,0202H
        ARGFRAME ISTACK, 0, STACK
        ARGFRAME PSTACK, 0, STACK
        ARGFRAME XSTACK, 16, STACK
        ARGFRAME IOVERLAY, 0, STATIC
        ARGFRAME DOVERLAY, 0, STATIC
        EXTERN osal_memcpy
        FUNCTION osal_memcpy,0202H
        ARGFRAME ISTACK, 0, STACK
        ARGFRAME PSTACK, 0, STACK
        ARGFRAME XSTACK, 42, STACK
        ARGFRAME IOVERLAY, 0, STATIC
        ARGFRAME DOVERLAY, 0, STATIC
        EXTERN osal_memset
        FUNCTION osal_memset,0202H
        ARGFRAME ISTACK, 0, STACK
        ARGFRAME PSTACK, 0, STACK
        ARGFRAME XSTACK, 16, STACK
        ARGFRAME IOVERLAY, 0, STATIC
        ARGFRAME DOVERLAY, 0, STATIC
        EXTERN sAddrExtCpy
        FUNCTION sAddrExtCpy,0202H
        ARGFRAME ISTACK, 0, STACK
        ARGFRAME PSTACK, 0, STACK
        ARGFRAME XSTACK, 35, STACK
        ARGFRAME IOVERLAY, 0, STATIC
        ARGFRAME DOVERLAY, 0, STATIC

// F:\3_Jin_testCode\ZStack-CC2530-2.3.0-1.4.0\Components\mt\MT_ZDO.c
//    1 /**************************************************************************************************
//    2   Filename:       MT_ZDO.c
//    3   Revised:        $Date: 2009-12-29 11:40:43 -0800 (Tue, 29 Dec 2009) $
//    4   Revision:       $Revision: 21414 $
//    5 
//    6   Description:    MonitorTest functions for the ZDO layer.
//    7 
//    8 
//    9   Copyright 2004-2009 Texas Instruments Incorporated. All rights reserved.
//   10 
//   11   IMPORTANT: Your use of this Software is limited to those specific rights
//   12   granted under the terms of a software license agreement between the user
//   13   who downloaded the software, his/her employer (which must be your employer)
//   14   and Texas Instruments Incorporated (the "License").  You may not use this
//   15   Software unless you agree to abide by the terms of the License. The License
//   16   limits your use, and you acknowledge, that the Software may not be modified,
//   17   copied or distributed unless embedded on a Texas Instruments microcontroller
//   18   or used solely and exclusively in conjunction with a Texas Instruments radio
//   19   frequency transceiver, which is integrated into your product.  Other than for
//   20   the foregoing purpose, you may not use, reproduce, copy, prepare derivative
//   21   works of, modify, distribute, perform, display or sell this Software and/or
//   22   its documentation for any purpose.
//   23 
//   24   YOU FURTHER ACKNOWLEDGE AND AGREE THAT THE SOFTWARE AND DOCUMENTATION ARE
//   25   PROVIDED “AS IS” WITHOUT WARRANTY OF ANY KIND, EITHER EXPRESS OR IMPLIED,
//   26   INCLUDING WITHOUT LIMITATION, ANY WARRANTY OF MERCHANTABILITY, TITLE,
//   27   NON-INFRINGEMENT AND FITNESS FOR A PARTICULAR PURPOSE. IN NO EVENT SHALL
//   28   TEXAS INSTRUMENTS OR ITS LICENSORS BE LIABLE OR OBLIGATED UNDER CONTRACT,
//   29   NEGLIGENCE, STRICT LIABILITY, CONTRIBUTION, BREACH OF WARRANTY, OR OTHER
//   30   LEGAL EQUITABLE THEORY ANY DIRECT OR INDIRECT DAMAGES OR EXPENSES
//   31   INCLUDING BUT NOT LIMITED TO ANY INCIDENTAL, SPECIAL, INDIRECT, PUNITIVE
//   32   OR CONSEQUENTIAL DAMAGES, LOST PROFITS OR LOST DATA, COST OF PROCUREMENT
//   33   OF SUBSTITUTE GOODS, TECHNOLOGY, SERVICES, OR ANY CLAIMS BY THIRD PARTIES
//   34   (INCLUDING BUT NOT LIMITED TO ANY DEFENSE THEREOF), OR OTHER SIMILAR COSTS.
//   35 
//   36   Should you have any questions regarding your right to use this Software,
//   37   contact Texas Instruments Incorporated at www.TI.com.
//   38 **************************************************************************************************/
//   39 
//   40 #ifdef MT_ZDO_FUNC
//   41 
//   42 /**************************************************************************************************
//   43  * INCLUDES
//   44  **************************************************************************************************/
//   45 #include "ZComDef.h"
//   46 #include "OSAL.h"
//   47 #include "MT.h"
//   48 #include "MT_ZDO.h"
//   49 #include "APSMEDE.h"
//   50 #include "ZDConfig.h"
//   51 #include "ZDProfile.h"
//   52 #include "ZDObject.h"
//   53 #include "ZDApp.h"
//   54 
//   55 #if !defined( WIN32 )
//   56   #include "OnBoard.h"
//   57 #endif
//   58 
//   59 #if defined(ZDO_LINK_KEY_MANAGEMENT)
//   60   #include "ZDSecMgr.h"
//   61 #endif
//   62 
//   63 #include "nwk_util.h"
//   64 
//   65 /**************************************************************************************************
//   66  * CONSTANTS
//   67  **************************************************************************************************/
//   68 #define MT_ZDO_END_DEVICE_ANNCE_IND_LEN   0x0D
//   69 #define MT_ZDO_ADDR_RSP_LEN               0x0D
//   70 #define MT_ZDO_BIND_UNBIND_RSP_LEN        0x03
//   71 
//   72 #define MTZDO_RESPONSE_BUFFER_LEN   100
//   73 
//   74 #define MTZDO_MAX_MATCH_CLUSTERS    16
//   75 #define MTZDO_MAX_ED_BIND_CLUSTERS  15
//   76 
//   77 // Conversion from ZDO Cluster Id to the RPC AREQ Id is direct as follows:
//   78 #define MT_ZDO_CID_TO_AREQ_ID(CId)  ((uint8)(CId) | 0x80)
//   79 
//   80 /**************************************************************************************************
//   81  * GLOBAL VARIABLES
//   82  **************************************************************************************************/

        RSEG XDATA_Z:XDATA:NOROOT(0)
        DATA32
//   83 uint32 _zdoCallbackSub;
_zdoCallbackSub:
        DS 4
        REQUIRE __INIT_XDATA_Z
//   84 
//   85 /**************************************************************************************************
//   86  * LOCAL VARIABLES
//   87  **************************************************************************************************/
//   88 
//   89 /**************************************************************************************************
//   90  * LOCAL FUNCTIONS
//   91  **************************************************************************************************/
//   92 #if defined (MT_ZDO_FUNC)
//   93 void MT_ZdoNWKAddressRequest(uint8 *pBuf);
//   94 void MT_ZdoIEEEAddrRequest(uint8 *pBuf);
//   95 void MT_ZdoNodeDescRequest(uint8 *pBuf);
//   96 void MT_ZdoPowerDescRequest(uint8 *pBuf);
//   97 void MT_ZdoSimpleDescRequest(uint8 *pBuf);
//   98 void MT_ZdoActiveEpRequest(uint8 *pBuf);
//   99 void MT_ZdoMatchDescRequest(uint8 *pBuf);
//  100 void MT_ZdoComplexDescRequest(uint8 *pBuf);
//  101 void MT_ZdoUserDescRequest(uint8 *pBuf);
//  102 void MT_ZdoEndDevAnnce(uint8 *pBuf);
//  103 void MT_ZdoUserDescSet(uint8 *pBuf);
//  104 void MT_ZdoServiceDiscRequest(uint8 *pBuf);
//  105 void MT_ZdoEndDevBindRequest(uint8 *pBuf);
//  106 void MT_ZdoBindRequest(uint8 *pBuf);
//  107 void MT_ZdoUnbindRequest(uint8 *pBuf);
//  108 void MT_ZdoMgmtNwkDiscRequest(uint8 *pBuf);
//  109 void MT_ZdoSetLinkKey(uint8 *pBuf);
//  110 void MT_ZdoRemoveLinkKey(uint8 *pBuf);
//  111 void MT_ZdoGetLinkKey(uint8 *pBuf);
//  112 #if defined (MT_ZDO_MGMT)
//  113 void MT_ZdoMgmtLqiRequest(uint8 *pBuf);
//  114 void MT_ZdoMgmtRtgRequest(uint8 *pBuf);
//  115 void MT_ZdoMgmtBindRequest(uint8 *pBuf);
//  116 void MT_ZdoMgmtLeaveRequest(uint8 *pBuf);
//  117 void MT_ZdoMgmtDirectJoinRequest(uint8 *pBuf);
//  118 void MT_ZdoMgmtPermitJoinRequest(uint8 *pBuf);
//  119 void MT_ZdoMgmtNwkUpdateRequest(uint8 *pBuf);
//  120 #endif /* MT_ZDO_MGMT */
//  121 void MT_ZdoStartupFromApp(uint8 *pBuf);
//  122 void MT_ZdoRegisterForZDOMsg(uint8 *pBuf);
//  123 void MT_ZdoRemoveRegisteredCB(uint8 *pBuf);
//  124 #endif /* MT_ZDO_FUNC */
//  125 
//  126 #if defined (MT_ZDO_CB_FUNC)
//  127 uint8 MT_ZdoHandleExceptions( afIncomingMSGPacket_t *pData, zdoIncomingMsg_t *inMsg );
//  128 void MT_ZdoAddrRspCB( ZDO_NwkIEEEAddrResp_t *pMsg, uint16 clusterID );
//  129 void MT_ZdoEndDevAnnceCB( ZDO_DeviceAnnce_t *pMsg, uint16 srcAddr );
//  130 void MT_ZdoBindUnbindRspCB( uint16 clusterID, uint16 srcAddr, uint8 status );
//  131 void* MT_ZdoSrcRtgCB( void *pStr );
//  132 #endif /* MT_ZDO_CB_FUNC */
//  133 
//  134 #if defined (MT_ZDO_FUNC)
//  135 /***************************************************************************************************
//  136  * @fn      MT_ZdoInit
//  137  *
//  138  * @brief   MT ZDO initialization
//  139  *
//  140  * @param   none
//  141  *
//  142  * @return  none
//  143  ***************************************************************************************************/

        RSEG BANKED_CODE:CODE:NOROOT(0)
//  144 void MT_ZdoInit(void)
MT_ZdoInit:
          CFI Block cfiBlock0 Using cfiCommon0
          CFI Function MT_ZdoInit
        CODE
//  145 {
        ; Saved register size: 0
        ; Auto size: 0
//  146 #ifdef MT_ZDO_CB_FUNC
//  147   /* Register with ZDO for indication callbacks */
//  148   ZDO_RegisterForZdoCB(ZDO_SRC_RTG_IND_CBID, &MT_ZdoSrcRtgCB);
//  149 #endif
//  150 }
        LJMP    ?BRET
          CFI EndBlock cfiBlock0
//  151 
//  152 /***************************************************************************************************
//  153  * @fn      MT_ZdoCommandProcessing
//  154  *
//  155  * @brief
//  156  *
//  157  *   Process all the ZDO commands that are issued by test tool
//  158  *
//  159  * @param   pBuf - pointer to the msg buffer
//  160  *
//  161  *          | LEN  | CMD0  | CMD1  |  DATA  |
//  162  *          |  1   |   1   |   1   |  0-255 |
//  163  *
//  164  * @return  status
//  165  ***************************************************************************************************/

        RSEG BANKED_CODE:CODE:NOROOT(0)
//  166 uint8 MT_ZdoCommandProcessing(uint8* pBuf)
MT_ZdoCommandProcessing:
          CFI Block cfiBlock1 Using cfiCommon0
          CFI Function MT_ZdoCommandProcessing
        CODE
//  167 {
        FUNCALL MT_ZdoCommandProcessing, MT_ZdoNWKAddressRequest
        LOCFRAME ISTACK, 0, STACK
        LOCFRAME PSTACK, 0, STACK
        LOCFRAME XSTACK, 9, STACK
        LOCFRAME IOVERLAY, 0, STATIC
        LOCFRAME DOVERLAY, 0, STATIC
        ARGFRAME ISTACK, 0, STACK
        ARGFRAME PSTACK, 0, STACK
        ARGFRAME XSTACK, 9, STACK
        ARGFRAME IOVERLAY, 0, STATIC
        ARGFRAME DOVERLAY, 0, STATIC
        FUNCALL MT_ZdoCommandProcessing, MT_ZdoIEEEAddrRequest
        LOCFRAME ISTACK, 0, STACK
        LOCFRAME PSTACK, 0, STACK
        LOCFRAME XSTACK, 9, STACK
        LOCFRAME IOVERLAY, 0, STATIC
        LOCFRAME DOVERLAY, 0, STATIC
        ARGFRAME ISTACK, 0, STACK
        ARGFRAME PSTACK, 0, STACK
        ARGFRAME XSTACK, 9, STACK
        ARGFRAME IOVERLAY, 0, STATIC
        ARGFRAME DOVERLAY, 0, STATIC
        FUNCALL MT_ZdoCommandProcessing, MT_ZdoNodeDescRequest
        LOCFRAME ISTACK, 0, STACK
        LOCFRAME PSTACK, 0, STACK
        LOCFRAME XSTACK, 9, STACK
        LOCFRAME IOVERLAY, 0, STATIC
        LOCFRAME DOVERLAY, 0, STATIC
        ARGFRAME ISTACK, 0, STACK
        ARGFRAME PSTACK, 0, STACK
        ARGFRAME XSTACK, 9, STACK
        ARGFRAME IOVERLAY, 0, STATIC
        ARGFRAME DOVERLAY, 0, STATIC
        FUNCALL MT_ZdoCommandProcessing, MT_ZdoPowerDescRequest
        LOCFRAME ISTACK, 0, STACK
        LOCFRAME PSTACK, 0, STACK
        LOCFRAME XSTACK, 9, STACK
        LOCFRAME IOVERLAY, 0, STATIC
        LOCFRAME DOVERLAY, 0, STATIC
        ARGFRAME ISTACK, 0, STACK
        ARGFRAME PSTACK, 0, STACK
        ARGFRAME XSTACK, 9, STACK
        ARGFRAME IOVERLAY, 0, STATIC
        ARGFRAME DOVERLAY, 0, STATIC
        FUNCALL MT_ZdoCommandProcessing, MT_ZdoSimpleDescRequest
        LOCFRAME ISTACK, 0, STACK
        LOCFRAME PSTACK, 0, STACK
        LOCFRAME XSTACK, 9, STACK
        LOCFRAME IOVERLAY, 0, STATIC
        LOCFRAME DOVERLAY, 0, STATIC
        ARGFRAME ISTACK, 0, STACK
        ARGFRAME PSTACK, 0, STACK
        ARGFRAME XSTACK, 9, STACK
        ARGFRAME IOVERLAY, 0, STATIC
        ARGFRAME DOVERLAY, 0, STATIC
        FUNCALL MT_ZdoCommandProcessing, MT_ZdoActiveEpRequest
        LOCFRAME ISTACK, 0, STACK
        LOCFRAME PSTACK, 0, STACK
        LOCFRAME XSTACK, 9, STACK
        LOCFRAME IOVERLAY, 0, STATIC
        LOCFRAME DOVERLAY, 0, STATIC
        ARGFRAME ISTACK, 0, STACK
        ARGFRAME PSTACK, 0, STACK
        ARGFRAME XSTACK, 9, STACK
        ARGFRAME IOVERLAY, 0, STATIC
        ARGFRAME DOVERLAY, 0, STATIC
        FUNCALL MT_ZdoCommandProcessing, MT_ZdoMatchDescRequest
        LOCFRAME ISTACK, 0, STACK
        LOCFRAME PSTACK, 0, STACK
        LOCFRAME XSTACK, 9, STACK
        LOCFRAME IOVERLAY, 0, STATIC
        LOCFRAME DOVERLAY, 0, STATIC
        ARGFRAME ISTACK, 0, STACK
        ARGFRAME PSTACK, 0, STACK
        ARGFRAME XSTACK, 9, STACK
        ARGFRAME IOVERLAY, 0, STATIC
        ARGFRAME DOVERLAY, 0, STATIC
        FUNCALL MT_ZdoCommandProcessing, MT_ZdoComplexDescRequest
        LOCFRAME ISTACK, 0, STACK
        LOCFRAME PSTACK, 0, STACK
        LOCFRAME XSTACK, 9, STACK
        LOCFRAME IOVERLAY, 0, STATIC
        LOCFRAME DOVERLAY, 0, STATIC
        ARGFRAME ISTACK, 0, STACK
        ARGFRAME PSTACK, 0, STACK
        ARGFRAME XSTACK, 9, STACK
        ARGFRAME IOVERLAY, 0, STATIC
        ARGFRAME DOVERLAY, 0, STATIC
        FUNCALL MT_ZdoCommandProcessing, MT_ZdoUserDescRequest
        LOCFRAME ISTACK, 0, STACK
        LOCFRAME PSTACK, 0, STACK
        LOCFRAME XSTACK, 9, STACK
        LOCFRAME IOVERLAY, 0, STATIC
        LOCFRAME DOVERLAY, 0, STATIC
        ARGFRAME ISTACK, 0, STACK
        ARGFRAME PSTACK, 0, STACK
        ARGFRAME XSTACK, 9, STACK
        ARGFRAME IOVERLAY, 0, STATIC
        ARGFRAME DOVERLAY, 0, STATIC
        FUNCALL MT_ZdoCommandProcessing, MT_ZdoEndDevAnnce
        LOCFRAME ISTACK, 0, STACK
        LOCFRAME PSTACK, 0, STACK
        LOCFRAME XSTACK, 9, STACK
        LOCFRAME IOVERLAY, 0, STATIC
        LOCFRAME DOVERLAY, 0, STATIC
        ARGFRAME ISTACK, 0, STACK
        ARGFRAME PSTACK, 0, STACK
        ARGFRAME XSTACK, 9, STACK
        ARGFRAME IOVERLAY, 0, STATIC
        ARGFRAME DOVERLAY, 0, STATIC
        FUNCALL MT_ZdoCommandProcessing, MT_ZdoUserDescSet
        LOCFRAME ISTACK, 0, STACK
        LOCFRAME PSTACK, 0, STACK
        LOCFRAME XSTACK, 9, STACK
        LOCFRAME IOVERLAY, 0, STATIC
        LOCFRAME DOVERLAY, 0, STATIC
        ARGFRAME ISTACK, 0, STACK
        ARGFRAME PSTACK, 0, STACK
        ARGFRAME XSTACK, 9, STACK
        ARGFRAME IOVERLAY, 0, STATIC
        ARGFRAME DOVERLAY, 0, STATIC
        FUNCALL MT_ZdoCommandProcessing, MT_ZdoServiceDiscRequest
        LOCFRAME ISTACK, 0, STACK
        LOCFRAME PSTACK, 0, STACK
        LOCFRAME XSTACK, 9, STACK
        LOCFRAME IOVERLAY, 0, STATIC
        LOCFRAME DOVERLAY, 0, STATIC
        ARGFRAME ISTACK, 0, STACK
        ARGFRAME PSTACK, 0, STACK
        ARGFRAME XSTACK, 9, STACK
        ARGFRAME IOVERLAY, 0, STATIC
        ARGFRAME DOVERLAY, 0, STATIC
        FUNCALL MT_ZdoCommandProcessing, MT_ZdoEndDevBindRequest
        LOCFRAME ISTACK, 0, STACK
        LOCFRAME PSTACK, 0, STACK
        LOCFRAME XSTACK, 9, STACK
        LOCFRAME IOVERLAY, 0, STATIC
        LOCFRAME DOVERLAY, 0, STATIC
        ARGFRAME ISTACK, 0, STACK
        ARGFRAME PSTACK, 0, STACK
        ARGFRAME XSTACK, 9, STACK
        ARGFRAME IOVERLAY, 0, STATIC
        ARGFRAME DOVERLAY, 0, STATIC
        FUNCALL MT_ZdoCommandProcessing, MT_ZdoBindRequest
        LOCFRAME ISTACK, 0, STACK
        LOCFRAME PSTACK, 0, STACK
        LOCFRAME XSTACK, 9, STACK
        LOCFRAME IOVERLAY, 0, STATIC
        LOCFRAME DOVERLAY, 0, STATIC
        ARGFRAME ISTACK, 0, STACK
        ARGFRAME PSTACK, 0, STACK
        ARGFRAME XSTACK, 9, STACK
        ARGFRAME IOVERLAY, 0, STATIC
        ARGFRAME DOVERLAY, 0, STATIC
        FUNCALL MT_ZdoCommandProcessing, MT_ZdoUnbindRequest
        LOCFRAME ISTACK, 0, STACK
        LOCFRAME PSTACK, 0, STACK
        LOCFRAME XSTACK, 9, STACK
        LOCFRAME IOVERLAY, 0, STATIC
        LOCFRAME DOVERLAY, 0, STATIC
        ARGFRAME ISTACK, 0, STACK
        ARGFRAME PSTACK, 0, STACK
        ARGFRAME XSTACK, 9, STACK
        ARGFRAME IOVERLAY, 0, STATIC
        ARGFRAME DOVERLAY, 0, STATIC
        FUNCALL MT_ZdoCommandProcessing, MT_ZdoSetLinkKey
        LOCFRAME ISTACK, 0, STACK
        LOCFRAME PSTACK, 0, STACK
        LOCFRAME XSTACK, 9, STACK
        LOCFRAME IOVERLAY, 0, STATIC
        LOCFRAME DOVERLAY, 0, STATIC
        ARGFRAME ISTACK, 0, STACK
        ARGFRAME PSTACK, 0, STACK
        ARGFRAME XSTACK, 9, STACK
        ARGFRAME IOVERLAY, 0, STATIC
        ARGFRAME DOVERLAY, 0, STATIC
        FUNCALL MT_ZdoCommandProcessing, MT_ZdoRemoveLinkKey
        LOCFRAME ISTACK, 0, STACK
        LOCFRAME PSTACK, 0, STACK
        LOCFRAME XSTACK, 9, STACK
        LOCFRAME IOVERLAY, 0, STATIC
        LOCFRAME DOVERLAY, 0, STATIC
        ARGFRAME ISTACK, 0, STACK
        ARGFRAME PSTACK, 0, STACK
        ARGFRAME XSTACK, 9, STACK
        ARGFRAME IOVERLAY, 0, STATIC
        ARGFRAME DOVERLAY, 0, STATIC
        FUNCALL MT_ZdoCommandProcessing, MT_ZdoGetLinkKey
        LOCFRAME ISTACK, 0, STACK
        LOCFRAME PSTACK, 0, STACK
        LOCFRAME XSTACK, 9, STACK
        LOCFRAME IOVERLAY, 0, STATIC
        LOCFRAME DOVERLAY, 0, STATIC
        ARGFRAME ISTACK, 0, STACK
        ARGFRAME PSTACK, 0, STACK
        ARGFRAME XSTACK, 9, STACK
        ARGFRAME IOVERLAY, 0, STATIC
        ARGFRAME DOVERLAY, 0, STATIC
        FUNCALL MT_ZdoCommandProcessing, MT_ZdoStartupFromApp
        LOCFRAME ISTACK, 0, STACK
        LOCFRAME PSTACK, 0, STACK
        LOCFRAME XSTACK, 9, STACK
        LOCFRAME IOVERLAY, 0, STATIC
        LOCFRAME DOVERLAY, 0, STATIC
        ARGFRAME ISTACK, 0, STACK
        ARGFRAME PSTACK, 0, STACK
        ARGFRAME XSTACK, 9, STACK
        ARGFRAME IOVERLAY, 0, STATIC
        ARGFRAME DOVERLAY, 0, STATIC
        FUNCALL MT_ZdoCommandProcessing, MT_ZdoRegisterForZDOMsg
        LOCFRAME ISTACK, 0, STACK
        LOCFRAME PSTACK, 0, STACK
        LOCFRAME XSTACK, 9, STACK
        LOCFRAME IOVERLAY, 0, STATIC
        LOCFRAME DOVERLAY, 0, STATIC
        ARGFRAME ISTACK, 0, STACK
        ARGFRAME PSTACK, 0, STACK
        ARGFRAME XSTACK, 9, STACK
        ARGFRAME IOVERLAY, 0, STATIC
        ARGFRAME DOVERLAY, 0, STATIC
        FUNCALL MT_ZdoCommandProcessing, MT_ZdoRemoveRegisteredCB
        LOCFRAME ISTACK, 0, STACK
        LOCFRAME PSTACK, 0, STACK
        LOCFRAME XSTACK, 9, STACK
        LOCFRAME IOVERLAY, 0, STATIC
        LOCFRAME DOVERLAY, 0, STATIC
        ARGFRAME ISTACK, 0, STACK
        ARGFRAME PSTACK, 0, STACK
        ARGFRAME XSTACK, 9, STACK
        ARGFRAME IOVERLAY, 0, STATIC
        ARGFRAME DOVERLAY, 0, STATIC
        MOV     A,#-0x9
        LCALL   ?BANKED_ENTER_XDATA
          CFI DPH0 load(1, XDATA, add(CFA_XSP16, literal(-1)))
          CFI DPL0 load(1, XDATA, add(CFA_XSP16, literal(-2)))
          CFI ?BRET_EXT load(1, XDATA, add(CFA_XSP16, literal(-3)))
          CFI ?RET_HIGH load(1, XDATA, add(CFA_XSP16, literal(-4)))
          CFI ?RET_LOW load(1, XDATA, add(CFA_XSP16, literal(-5)))
          CFI R7 load(1, XDATA, add(CFA_XSP16, literal(-6)))
          CFI V0 load(1, XDATA, add(CFA_XSP16, literal(-7)))
          CFI VB load(1, XDATA, add(CFA_XSP16, literal(-8)))
          CFI R6 load(1, XDATA, add(CFA_XSP16, literal(-9)))
          CFI CFA_SP SP+0
          CFI CFA_XSP16 add(XSP16, 9)
        ; Saved register size: 9
        ; Auto size: 0
//  168   uint8 status = MT_RPC_SUCCESS;
        MOV     R6,#0x0
//  169 
//  170   switch (pBuf[MT_RPC_POS_CMD1])
        MOV     DPL,R2
        MOV     DPH,R3
        INC     DPTR
        INC     DPTR
        MOVX    A,@DPTR
        JZ      ??MT_ZdoCommandProcessing_0
        DEC     A
        JZ      ??MT_ZdoCommandProcessing_1
        DEC     A
        JZ      ??MT_ZdoCommandProcessing_2
        DEC     A
        JZ      ??MT_ZdoCommandProcessing_3
        DEC     A
        JZ      ??MT_ZdoCommandProcessing_4
        DEC     A
        JZ      ??MT_ZdoCommandProcessing_5
        DEC     A
        JZ      ??MT_ZdoCommandProcessing_6
        DEC     A
        JZ      ??MT_ZdoCommandProcessing_7
        DEC     A
        JZ      ??MT_ZdoCommandProcessing_8
        ADD     A,#-0x2
        JZ      ??MT_ZdoCommandProcessing_9
        DEC     A
        JZ      ??MT_ZdoCommandProcessing_10
        DEC     A
        JZ      ??MT_ZdoCommandProcessing_11
        ADD     A,#-0x14
        JZ      ??MT_ZdoCommandProcessing_12
        DEC     A
        JZ      ??MT_ZdoCommandProcessing_13
        DEC     A
        JZ      ??MT_ZdoCommandProcessing_14
        DEC     A
        JZ      ??MT_ZdoCommandProcessing_15
        DEC     A
        JZ      ??MT_ZdoCommandProcessing_16
        DEC     A
        JZ      ??MT_ZdoCommandProcessing_17
        ADD     A,#-0x19
        JZ      ??MT_ZdoCommandProcessing_18
        DEC     A
        JZ      ??MT_ZdoCommandProcessing_19
        DEC     A
        JZ      ??MT_ZdoCommandProcessing_20
        SJMP    ??MT_ZdoCommandProcessing_21
//  171   {
//  172 #if defined ( ZDO_NWKADDR_REQUEST )
//  173     case MT_ZDO_NWK_ADDR_REQ:
//  174       MT_ZdoNWKAddressRequest(pBuf);
??MT_ZdoCommandProcessing_0:
        ; Setup parameters for call to function MT_ZdoNWKAddressRequest
        LCALL   `??MT_ZdoNWKAddressRequest::?relay`; Banked call to: MT_ZdoNWKAddressRequest
//  175       break;
        SJMP    ??MT_ZdoCommandProcessing_22
//  176 #endif
//  177 
//  178 #if defined ( ZDO_IEEEADDR_REQUEST )
//  179     case MT_ZDO_IEEE_ADDR_REQ:
//  180       MT_ZdoIEEEAddrRequest(pBuf);
??MT_ZdoCommandProcessing_1:
        ; Setup parameters for call to function MT_ZdoIEEEAddrRequest
        LCALL   `??MT_ZdoIEEEAddrRequest::?relay`; Banked call to: MT_ZdoIEEEAddrRequest
//  181       break;
        SJMP    ??MT_ZdoCommandProcessing_22
//  182 #endif
//  183 
//  184 #if defined ( ZDO_NODEDESC_REQUEST )
//  185     case MT_ZDO_NODE_DESC_REQ:
//  186       MT_ZdoNodeDescRequest(pBuf);
??MT_ZdoCommandProcessing_2:
        ; Setup parameters for call to function MT_ZdoNodeDescRequest
        LCALL   `??MT_ZdoNodeDescRequest::?relay`; Banked call to: MT_ZdoNodeDescRequest
//  187       break;
        SJMP    ??MT_ZdoCommandProcessing_22
//  188 #endif
//  189 
//  190 #if defined ( ZDO_POWERDESC_REQUEST )
//  191     case MT_ZDO_POWER_DESC_REQ:
//  192       MT_ZdoPowerDescRequest(pBuf);
??MT_ZdoCommandProcessing_3:
        ; Setup parameters for call to function MT_ZdoPowerDescRequest
        LCALL   `??MT_ZdoPowerDescRequest::?relay`; Banked call to: MT_ZdoPowerDescRequest
//  193       break;
        SJMP    ??MT_ZdoCommandProcessing_22
//  194 #endif
//  195 
//  196 #if defined ( ZDO_SIMPLEDESC_REQUEST )
//  197     case MT_ZDO_SIMPLE_DESC_REQ:
//  198       MT_ZdoSimpleDescRequest(pBuf);
??MT_ZdoCommandProcessing_4:
        ; Setup parameters for call to function MT_ZdoSimpleDescRequest
        LCALL   `??MT_ZdoSimpleDescRequest::?relay`; Banked call to: MT_ZdoSimpleDescRequest
//  199       break;
        SJMP    ??MT_ZdoCommandProcessing_22
//  200 #endif
//  201 
//  202 #if defined ( ZDO_ACTIVEEP_REQUEST )
//  203     case MT_ZDO_ACTIVE_EP_REQ:
//  204       MT_ZdoActiveEpRequest(pBuf);
??MT_ZdoCommandProcessing_5:
        ; Setup parameters for call to function MT_ZdoActiveEpRequest
        LCALL   `??MT_ZdoActiveEpRequest::?relay`; Banked call to: MT_ZdoActiveEpRequest
//  205       break;
        SJMP    ??MT_ZdoCommandProcessing_22
//  206 #endif
//  207 
//  208 #if defined ( ZDO_MATCH_REQUEST )
//  209     case MT_ZDO_MATCH_DESC_REQ:
//  210       MT_ZdoMatchDescRequest(pBuf);
??MT_ZdoCommandProcessing_6:
        ; Setup parameters for call to function MT_ZdoMatchDescRequest
        LCALL   `??MT_ZdoMatchDescRequest::?relay`; Banked call to: MT_ZdoMatchDescRequest
//  211       break;
        SJMP    ??MT_ZdoCommandProcessing_22
//  212 #endif
//  213 
//  214 #if defined ( ZDO_COMPLEXDESC_REQUEST )
//  215     case MT_ZDO_COMPLEX_DESC_REQ:
//  216       MT_ZdoComplexDescRequest(pBuf);
??MT_ZdoCommandProcessing_7:
        ; Setup parameters for call to function MT_ZdoComplexDescRequest
        LCALL   `??MT_ZdoComplexDescRequest::?relay`; Banked call to: MT_ZdoComplexDescRequest
//  217       break;
        SJMP    ??MT_ZdoCommandProcessing_22
//  218 #endif
//  219 
//  220 #if defined ( ZDO_USERDESC_REQUEST )
//  221     case MT_ZDO_USER_DESC_REQ:
//  222       MT_ZdoUserDescRequest(pBuf);
??MT_ZdoCommandProcessing_8:
        ; Setup parameters for call to function MT_ZdoUserDescRequest
        LCALL   `??MT_ZdoUserDescRequest::?relay`; Banked call to: MT_ZdoUserDescRequest
//  223       break;
        SJMP    ??MT_ZdoCommandProcessing_22
//  224 #endif
//  225 
//  226 #if defined ( ZDO_ENDDEVICE_ANNCE )
//  227     case MT_ZDO_END_DEV_ANNCE:
//  228       MT_ZdoEndDevAnnce(pBuf);
??MT_ZdoCommandProcessing_9:
        ; Setup parameters for call to function MT_ZdoEndDevAnnce
        LCALL   `??MT_ZdoEndDevAnnce::?relay`; Banked call to: MT_ZdoEndDevAnnce
//  229       break;
        SJMP    ??MT_ZdoCommandProcessing_22
//  230 #endif      
//  231 
//  232 #if defined ( ZDO_USERDESCSET_REQUEST )
//  233     case MT_ZDO_USER_DESC_SET:
//  234       MT_ZdoUserDescSet(pBuf);
??MT_ZdoCommandProcessing_10:
        ; Setup parameters for call to function MT_ZdoUserDescSet
        LCALL   `??MT_ZdoUserDescSet::?relay`; Banked call to: MT_ZdoUserDescSet
//  235       break;
        SJMP    ??MT_ZdoCommandProcessing_22
//  236 #endif
//  237 
//  238 #if defined ( ZDO_SERVERDISC_REQUEST )
//  239     case MT_ZDO_SERVICE_DISC_REQ:
//  240       MT_ZdoServiceDiscRequest(pBuf);
??MT_ZdoCommandProcessing_11:
        ; Setup parameters for call to function MT_ZdoServiceDiscRequest
        LCALL   `??MT_ZdoServiceDiscRequest::?relay`; Banked call to: MT_ZdoServiceDiscRequest
//  241       break;
        SJMP    ??MT_ZdoCommandProcessing_22
//  242 #endif
//  243 
//  244 #if defined ( ZDO_ENDDEVICEBIND_REQUEST )
//  245     case MT_ZDO_END_DEV_BIND_REQ:
//  246       MT_ZdoEndDevBindRequest(pBuf);
??MT_ZdoCommandProcessing_12:
        ; Setup parameters for call to function MT_ZdoEndDevBindRequest
        LCALL   `??MT_ZdoEndDevBindRequest::?relay`; Banked call to: MT_ZdoEndDevBindRequest
//  247       break;
        SJMP    ??MT_ZdoCommandProcessing_22
//  248 #endif
//  249 
//  250 #if defined ( ZDO_BIND_UNBIND_REQUEST )
//  251     case MT_ZDO_BIND_REQ:
//  252       MT_ZdoBindRequest(pBuf);
??MT_ZdoCommandProcessing_13:
        ; Setup parameters for call to function MT_ZdoBindRequest
        LCALL   `??MT_ZdoBindRequest::?relay`; Banked call to: MT_ZdoBindRequest
//  253       break;
        SJMP    ??MT_ZdoCommandProcessing_22
//  254 #endif
//  255 
//  256 #if defined ( ZDO_BIND_UNBIND_REQUEST )
//  257     case MT_ZDO_UNBIND_REQ:
//  258       MT_ZdoUnbindRequest(pBuf);
??MT_ZdoCommandProcessing_14:
        ; Setup parameters for call to function MT_ZdoUnbindRequest
        LCALL   `??MT_ZdoUnbindRequest::?relay`; Banked call to: MT_ZdoUnbindRequest
//  259       break;
        SJMP    ??MT_ZdoCommandProcessing_22
//  260 #endif
//  261       
//  262 #if defined ( ZDO_LINK_KEY_MANAGEMENT )
//  263     case MT_ZDO_SET_LINK_KEY:
//  264       MT_ZdoSetLinkKey(pBuf);
??MT_ZdoCommandProcessing_15:
        ; Setup parameters for call to function MT_ZdoSetLinkKey
        LCALL   `??MT_ZdoSetLinkKey::?relay`; Banked call to: MT_ZdoSetLinkKey
//  265       break;
        SJMP    ??MT_ZdoCommandProcessing_22
//  266 
//  267     case MT_ZDO_REMOVE_LINK_KEY:
//  268       MT_ZdoRemoveLinkKey(pBuf);
??MT_ZdoCommandProcessing_16:
        ; Setup parameters for call to function MT_ZdoRemoveLinkKey
        LCALL   `??MT_ZdoRemoveLinkKey::?relay`; Banked call to: MT_ZdoRemoveLinkKey
//  269       break;
        SJMP    ??MT_ZdoCommandProcessing_22
//  270 
//  271     case MT_ZDO_GET_LINK_KEY:
//  272       MT_ZdoGetLinkKey(pBuf);
??MT_ZdoCommandProcessing_17:
        ; Setup parameters for call to function MT_ZdoGetLinkKey
        LCALL   `??MT_ZdoGetLinkKey::?relay`; Banked call to: MT_ZdoGetLinkKey
//  273       break;
        SJMP    ??MT_ZdoCommandProcessing_22
//  274 #endif      
//  275 
//  276 #if defined ( ZDO_MGMT_NWKDISC_REQUEST )
//  277     case MT_ZDO_MGMT_NWKDISC_REQ:
//  278       MT_ZdoMgmtNwkDiscRequest(pBuf);
//  279       break;
//  280 #endif
//  281 
//  282 #if defined ( ZDO_MGMT_LQI_REQUEST )
//  283     case MT_ZDO_MGMT_LQI_REQ:
//  284       MT_ZdoMgmtLqiRequest(pBuf);
//  285       break;
//  286 #endif
//  287 
//  288 #if defined ( ZDO_MGMT_RTG_REQUEST )
//  289     case MT_ZDO_MGMT_RTG_REQ:
//  290       MT_ZdoMgmtRtgRequest(pBuf);
//  291       break;
//  292 #endif
//  293 
//  294 #if defined ( ZDO_MGMT_BIND_REQUEST )
//  295     case MT_ZDO_MGMT_BIND_REQ:
//  296       MT_ZdoMgmtBindRequest(pBuf);
//  297       break;
//  298 #endif
//  299 
//  300 #if defined ( ZDO_MGMT_LEAVE_REQUEST )
//  301     case MT_ZDO_MGMT_LEAVE_REQ:
//  302       MT_ZdoMgmtLeaveRequest(pBuf);
//  303       break;
//  304 #endif
//  305 
//  306 #if defined ( ZDO_MGMT_JOINDIRECT_REQUEST )
//  307     case MT_ZDO_MGMT_DIRECT_JOIN_REQ:
//  308       MT_ZdoMgmtDirectJoinRequest(pBuf);
//  309       break;
//  310 #endif
//  311 
//  312 #if defined ( ZDO_MGMT_PERMIT_JOIN_REQUEST )
//  313     case MT_ZDO_MGMT_PERMIT_JOIN_REQ:
//  314       MT_ZdoMgmtPermitJoinRequest(pBuf);
//  315       break;
//  316 #endif
//  317 
//  318 #if defined ( ZDO_MGMT_NWKUPDATE_REQUEST )
//  319     case MT_ZDO_MGMT_NWK_UPDATE_REQ:
//  320       MT_ZdoMgmtNwkUpdateRequest(pBuf);
//  321       break;
//  322 #endif 
//  323 
//  324 #if defined ( ZDO_NETWORKSTART_REQUEST )
//  325     case MT_ZDO_STARTUP_FROM_APP:
//  326       MT_ZdoStartupFromApp(pBuf);
??MT_ZdoCommandProcessing_20:
        ; Setup parameters for call to function MT_ZdoStartupFromApp
        LCALL   `??MT_ZdoStartupFromApp::?relay`; Banked call to: MT_ZdoStartupFromApp
//  327       break;
        SJMP    ??MT_ZdoCommandProcessing_22
//  328 #endif
//  329 
//  330     case MT_ZDO_MSG_CB_REGISTER:
//  331       MT_ZdoRegisterForZDOMsg(pBuf);
??MT_ZdoCommandProcessing_18:
        ; Setup parameters for call to function MT_ZdoRegisterForZDOMsg
        LCALL   `??MT_ZdoRegisterForZDOMsg::?relay`; Banked call to: MT_ZdoRegisterForZDOMsg
//  332       break;
        SJMP    ??MT_ZdoCommandProcessing_22
//  333 
//  334     case MT_ZDO_MSG_CB_REMOVE:
//  335       MT_ZdoRemoveRegisteredCB(pBuf);
??MT_ZdoCommandProcessing_19:
        ; Setup parameters for call to function MT_ZdoRemoveRegisteredCB
        LCALL   `??MT_ZdoRemoveRegisteredCB::?relay`; Banked call to: MT_ZdoRemoveRegisteredCB
//  336       break;
        SJMP    ??MT_ZdoCommandProcessing_22
//  337 
//  338     default:
//  339       status = MT_RPC_ERR_COMMAND_ID;
??MT_ZdoCommandProcessing_21:
        MOV     R6,#0x2
//  340       break;
//  341   }
//  342 
//  343   return status;
??MT_ZdoCommandProcessing_22:
        MOV     A,R6
        MOV     R1,A
        LJMP    ??Subroutine45_0 & 0xFFFF
//  344 }
          CFI EndBlock cfiBlock1
//  345 
//  346 /***************************************************************************************************
//  347  * @fn      MT_ZdoNwkAddrReq
//  348  *
//  349  * @brief   Handle a nwk address request.
//  350  *
//  351  * @param   pData  - MT message data
//  352  *
//  353  * @return  void
//  354  ***************************************************************************************************/

        RSEG BANKED_CODE:CODE:NOROOT(0)
//  355 void MT_ZdoNWKAddressRequest(uint8 *pBuf)
MT_ZdoNWKAddressRequest:
          CFI Block cfiBlock2 Using cfiCommon0
          CFI Function MT_ZdoNWKAddressRequest
        CODE
//  356 {
        FUNCALL MT_ZdoNWKAddressRequest, ZDP_NwkAddrReq
        LOCFRAME ISTACK, 0, STACK
        LOCFRAME PSTACK, 0, STACK
        LOCFRAME XSTACK, 11, STACK
        LOCFRAME IOVERLAY, 0, STATIC
        LOCFRAME DOVERLAY, 0, STATIC
        ARGFRAME ISTACK, 0, STACK
        ARGFRAME PSTACK, 0, STACK
        ARGFRAME XSTACK, 11, STACK
        ARGFRAME IOVERLAY, 0, STATIC
        ARGFRAME DOVERLAY, 0, STATIC
        FUNCALL MT_ZdoNWKAddressRequest, MT_BuildAndSendZToolResponse
        LOCFRAME ISTACK, 0, STACK
        LOCFRAME PSTACK, 0, STACK
        LOCFRAME XSTACK, 11, STACK
        LOCFRAME IOVERLAY, 0, STATIC
        LOCFRAME DOVERLAY, 0, STATIC
        ARGFRAME ISTACK, 0, STACK
        ARGFRAME PSTACK, 0, STACK
        ARGFRAME XSTACK, 11, STACK
        ARGFRAME IOVERLAY, 0, STATIC
        ARGFRAME DOVERLAY, 0, STATIC
        REQUIRE ?V0
        REQUIRE ?V1
        MOV     A,#-0xa
        LCALL   ?BANKED_ENTER_XDATA
          CFI DPH0 load(1, XDATA, add(CFA_XSP16, literal(-1)))
          CFI DPL0 load(1, XDATA, add(CFA_XSP16, literal(-2)))
          CFI ?BRET_EXT load(1, XDATA, add(CFA_XSP16, literal(-3)))
          CFI ?RET_HIGH load(1, XDATA, add(CFA_XSP16, literal(-4)))
          CFI ?RET_LOW load(1, XDATA, add(CFA_XSP16, literal(-5)))
          CFI R7 load(1, XDATA, add(CFA_XSP16, literal(-6)))
          CFI V1 load(1, XDATA, add(CFA_XSP16, literal(-7)))
          CFI V0 load(1, XDATA, add(CFA_XSP16, literal(-8)))
          CFI VB load(1, XDATA, add(CFA_XSP16, literal(-9)))
          CFI R6 load(1, XDATA, add(CFA_XSP16, literal(-10)))
          CFI CFA_SP SP+0
          CFI CFA_XSP16 add(XSP16, 10)
        ; Saved register size: 10
        ; Auto size: 1
        MOV     A,#-0x1
        LCALL   ?ALLOC_XSTACK8
          CFI CFA_XSP16 add(XSP16, 11)
//  357   uint8 cmdId;
//  358   uint8 retValue;
//  359   uint8 reqType;
//  360   uint8 startIndex;
//  361   uint8 *pExtAddr;
//  362 
//  363   /* parse header */
//  364   cmdId = pBuf[MT_RPC_POS_CMD1];
        MOV     DPL,R2
        MOV     DPH,R3
        INC     DPTR
        INC     DPTR
        MOVX    A,@DPTR
        MOV     R6,A
//  365   pBuf += MT_RPC_FRAME_HDR_SZ;
//  366 
//  367   /* parse parameters */
//  368   pExtAddr = pBuf;
        LCALL   ?Subroutine24 & 0xFFFF
//  369   pBuf += Z_EXTADDR_LEN;
??CrossCallReturnLabel_39:
        MOV     A,?V0
        ADD     A,#0x8
        MOV     R2,A
        CLR     A
        ADDC    A,?V1
        MOV     R3,A
//  370 
//  371   /* Request type */
//  372   reqType = *pBuf++;
//  373 
//  374   /* Start index */
//  375   startIndex = *pBuf;
//  376 
//  377   retValue = (uint8)ZDP_NwkAddrReq(pExtAddr, reqType, startIndex, 0);
        ; Setup parameters for call to function ZDP_NwkAddrReq
        MOV     R5,#0x0
        MOV     DPL,R2
        MOV     DPH,R3
        INC     DPTR
        MOVX    A,@DPTR
        MOV     R4,A
        MOV     DPL,R2
        MOV     DPH,R3
        MOVX    A,@DPTR
        MOV     R1,A
        MOV     R2,?V0
        MOV     R3,?V1
        LCALL   `??ZDP_NwkAddrReq::?relay`; Banked call to: ZDP_NwkAddrReq
          CFI EndBlock cfiBlock2
        REQUIRE ?Subroutine1
        ; // Fall through to label ?Subroutine1
//  378 
//  379   /* Build and send back the response */
//  380   MT_BuildAndSendZToolResponse(((uint8)MT_RPC_CMD_SRSP | (uint8)MT_RPC_SYS_ZDO), cmdId, 1, &retValue);
//  381 }

        RSEG BANKED_CODE:CODE:NOROOT(0)
?Subroutine1:
          CFI Block cfiBlock3 Using cfiCommon0
          CFI NoFunction
          CFI CFA_SP SP+0
          CFI CFA_XSP16 add(XSP16, 11)
          CFI VB load(1, XDATA, add(CFA_XSP16, literal(-9)))
          CFI DPL0 load(1, XDATA, add(CFA_XSP16, literal(-2)))
          CFI DPH0 load(1, XDATA, add(CFA_XSP16, literal(-1)))
          CFI R6 load(1, XDATA, add(CFA_XSP16, literal(-10)))
          CFI R7 load(1, XDATA, add(CFA_XSP16, literal(-6)))
          CFI V0 load(1, XDATA, add(CFA_XSP16, literal(-8)))
          CFI V1 load(1, XDATA, add(CFA_XSP16, literal(-7)))
          CFI ?BRET_EXT load(1, XDATA, add(CFA_XSP16, literal(-3)))
          CFI ?RET_HIGH load(1, XDATA, add(CFA_XSP16, literal(-4)))
          CFI ?RET_LOW load(1, XDATA, add(CFA_XSP16, literal(-5)))
        LCALL   ?Subroutine26 & 0xFFFF
??CrossCallReturnLabel_94:
        LCALL   `??MT_BuildAndSendZToolResponse::?relay`; Banked call to: MT_BuildAndSendZToolResponse
        MOV     A,#0x1
        LCALL   ?DEALLOC_XSTACK8
          CFI CFA_XSP16 add(XSP16, 10)
        MOV     R7,#0x2
        LJMP    ?BANKED_LEAVE_XDATA
          CFI CFA_SP SP+-3
          CFI CFA_XSP16 XSP16+0
          CFI VB SameValue
          CFI DPL0 SameValue
          CFI DPH0 SameValue
          CFI R6 SameValue
          CFI R7 SameValue
          CFI V0 SameValue
          CFI V1 SameValue
          CFI ?BRET_EXT Frame(CFA_SP, 3)
          CFI ?RET_HIGH Frame(CFA_SP, 2)
          CFI ?RET_LOW Frame(CFA_SP, 1)
          CFI EndBlock cfiBlock3
//  382 
//  383 /***************************************************************************************************
//  384  * @fn      MT_ZdoIEEEAddrRequest
//  385  *
//  386  * @brief   Handle a IEEE address request.
//  387  *
//  388  * @param   pData  - MT message data
//  389  *
//  390  * @return  void
//  391  ***************************************************************************************************/

        RSEG BANKED_CODE:CODE:NOROOT(0)
//  392 void MT_ZdoIEEEAddrRequest (uint8 *pBuf)
MT_ZdoIEEEAddrRequest:
          CFI Block cfiBlock4 Using cfiCommon0
          CFI Function MT_ZdoIEEEAddrRequest
        CODE
//  393 {
        FUNCALL MT_ZdoIEEEAddrRequest, ZDP_IEEEAddrReq
        LOCFRAME ISTACK, 0, STACK
        LOCFRAME PSTACK, 0, STACK
        LOCFRAME XSTACK, 11, STACK
        LOCFRAME IOVERLAY, 0, STATIC
        LOCFRAME DOVERLAY, 0, STATIC
        ARGFRAME ISTACK, 0, STACK
        ARGFRAME PSTACK, 0, STACK
        ARGFRAME XSTACK, 11, STACK
        ARGFRAME IOVERLAY, 0, STATIC
        ARGFRAME DOVERLAY, 0, STATIC
        FUNCALL MT_ZdoIEEEAddrRequest, MT_BuildAndSendZToolResponse
        LOCFRAME ISTACK, 0, STACK
        LOCFRAME PSTACK, 0, STACK
        LOCFRAME XSTACK, 11, STACK
        LOCFRAME IOVERLAY, 0, STATIC
        LOCFRAME DOVERLAY, 0, STATIC
        ARGFRAME ISTACK, 0, STACK
        ARGFRAME PSTACK, 0, STACK
        ARGFRAME XSTACK, 11, STACK
        ARGFRAME IOVERLAY, 0, STATIC
        ARGFRAME DOVERLAY, 0, STATIC
        REQUIRE ?V0
        REQUIRE ?V1
        MOV     A,#-0xa
        LCALL   ?BANKED_ENTER_XDATA
          CFI DPH0 load(1, XDATA, add(CFA_XSP16, literal(-1)))
          CFI DPL0 load(1, XDATA, add(CFA_XSP16, literal(-2)))
          CFI ?BRET_EXT load(1, XDATA, add(CFA_XSP16, literal(-3)))
          CFI ?RET_HIGH load(1, XDATA, add(CFA_XSP16, literal(-4)))
          CFI ?RET_LOW load(1, XDATA, add(CFA_XSP16, literal(-5)))
          CFI R7 load(1, XDATA, add(CFA_XSP16, literal(-6)))
          CFI V1 load(1, XDATA, add(CFA_XSP16, literal(-7)))
          CFI V0 load(1, XDATA, add(CFA_XSP16, literal(-8)))
          CFI VB load(1, XDATA, add(CFA_XSP16, literal(-9)))
          CFI R6 load(1, XDATA, add(CFA_XSP16, literal(-10)))
          CFI CFA_SP SP+0
          CFI CFA_XSP16 add(XSP16, 10)
        ; Saved register size: 10
        ; Auto size: 1
        MOV     A,#-0x1
        LCALL   ?ALLOC_XSTACK8
          CFI CFA_XSP16 add(XSP16, 11)
//  394   uint8 cmdId;
//  395   uint8 retValue;
//  396   uint16 shortAddr;
//  397   uint8 reqType;
//  398   uint8 startIndex;
//  399 
//  400   /* parse header */
//  401   cmdId = pBuf[MT_RPC_POS_CMD1];
        LCALL   ??Subroutine41_0 & 0xFFFF
//  402   pBuf += MT_RPC_FRAME_HDR_SZ;
??CrossCallReturnLabel_85:
        JNC     ??MT_ZdoIEEEAddrRequest_0
        INC     R3
//  403 
//  404   /* Dev address */
//  405   shortAddr = BUILD_UINT16(pBuf[0], pBuf[1]);
//  406   pBuf += 2;
//  407 
//  408   /* request type */
//  409   reqType = *pBuf++;
//  410 
//  411   /* start index */
//  412   startIndex = *pBuf;
//  413 
//  414   retValue = (uint8)ZDP_IEEEAddrReq(shortAddr, reqType, startIndex, 0);
??MT_ZdoIEEEAddrRequest_0:
        ; Setup parameters for call to function ZDP_IEEEAddrReq
        MOV     R5,#0x0
        MOV     DPL,R2
        MOV     DPH,R3
        INC     DPTR
        INC     DPTR
        INC     DPTR
        MOVX    A,@DPTR
        MOV     R4,A
        MOV     DPL,R2
        MOV     DPH,R3
        INC     DPTR
        INC     DPTR
        MOVX    A,@DPTR
        MOV     R1,A
        MOV     DPL,R2
        MOV     DPH,R3
        LCALL   ?Subroutine15 & 0xFFFF
??CrossCallReturnLabel_19:
        LCALL   `??ZDP_IEEEAddrReq::?relay`; Banked call to: ZDP_IEEEAddrReq
        SJMP    ?Subroutine1
//  415 
//  416   MT_BuildAndSendZToolResponse(((uint8)MT_RPC_CMD_SRSP | (uint8)MT_RPC_SYS_ZDO), cmdId, 1, &retValue);
//  417 }
          CFI EndBlock cfiBlock4
//  418 
//  419 /***************************************************************************************************
//  420  * @fn      MT_ZdoNodeDescRequest
//  421  *
//  422  * @brief   Handle a Node Descriptor request.
//  423  *
//  424  * @param   pData  - MT message data
//  425  *
//  426  * @return  void
//  427  ***************************************************************************************************/

        RSEG BANKED_CODE:CODE:NOROOT(0)
//  428 void MT_ZdoNodeDescRequest (uint8 *pBuf)
MT_ZdoNodeDescRequest:
          CFI Block cfiBlock5 Using cfiCommon0
          CFI Function MT_ZdoNodeDescRequest
        CODE
//  429 {
        FUNCALL MT_ZdoNodeDescRequest, ZDP_NWKAddrOfInterestReq
        LOCFRAME ISTACK, 0, STACK
        LOCFRAME PSTACK, 0, STACK
        LOCFRAME XSTACK, 20, STACK
        LOCFRAME IOVERLAY, 0, STATIC
        LOCFRAME DOVERLAY, 0, STATIC
        ARGFRAME ISTACK, 0, STACK
        ARGFRAME PSTACK, 0, STACK
        ARGFRAME XSTACK, 20, STACK
        ARGFRAME IOVERLAY, 0, STATIC
        ARGFRAME DOVERLAY, 0, STATIC
        FUNCALL MT_ZdoNodeDescRequest, MT_BuildAndSendZToolResponse
        LOCFRAME ISTACK, 0, STACK
        LOCFRAME PSTACK, 0, STACK
        LOCFRAME XSTACK, 19, STACK
        LOCFRAME IOVERLAY, 0, STATIC
        LOCFRAME DOVERLAY, 0, STATIC
        ARGFRAME ISTACK, 0, STACK
        ARGFRAME PSTACK, 0, STACK
        ARGFRAME XSTACK, 19, STACK
        ARGFRAME IOVERLAY, 0, STATIC
        ARGFRAME DOVERLAY, 0, STATIC
        REQUIRE ?V0
        MOV     A,#-0x9
        LCALL   ?BANKED_ENTER_XDATA
          CFI DPH0 load(1, XDATA, add(CFA_XSP16, literal(-1)))
          CFI DPL0 load(1, XDATA, add(CFA_XSP16, literal(-2)))
          CFI ?BRET_EXT load(1, XDATA, add(CFA_XSP16, literal(-3)))
          CFI ?RET_HIGH load(1, XDATA, add(CFA_XSP16, literal(-4)))
          CFI ?RET_LOW load(1, XDATA, add(CFA_XSP16, literal(-5)))
          CFI R7 load(1, XDATA, add(CFA_XSP16, literal(-6)))
          CFI V0 load(1, XDATA, add(CFA_XSP16, literal(-7)))
          CFI VB load(1, XDATA, add(CFA_XSP16, literal(-8)))
          CFI R6 load(1, XDATA, add(CFA_XSP16, literal(-9)))
          CFI CFA_SP SP+0
          CFI CFA_XSP16 add(XSP16, 9)
        ; Saved register size: 9
        ; Auto size: 10
        MOV     A,#-0xa
        LCALL   ?ALLOC_XSTACK8
          CFI CFA_XSP16 add(XSP16, 19)
//  430   uint8 cmdId;
//  431   uint8 retValue;
//  432   zAddrType_t destAddr;
//  433   uint16 shortAddr;
//  434 
//  435   /* parse header */
//  436   cmdId = pBuf[MT_RPC_POS_CMD1];
        LCALL   ??Subroutine41_0 & 0xFFFF
//  437   pBuf += MT_RPC_FRAME_HDR_SZ;
??CrossCallReturnLabel_86:
        JNC     ??MT_ZdoNodeDescRequest_0
        INC     R3
//  438 
//  439   /* Destination address */
//  440   destAddr.addrMode = Addr16Bit;
??MT_ZdoNodeDescRequest_0:
        MOV     A,#0x9
        LCALL   ?XSTACK_DISP0_8
        LCALL   ?Subroutine6 & 0xFFFF
//  441   destAddr.addr.shortAddr = BUILD_UINT16( pBuf[0], pBuf[1] );
??CrossCallReturnLabel_0:
        LCALL   ?XSTACK_DISP0_8
        LCALL   ?Subroutine25 & 0xFFFF
//  442   pBuf += 2;
??CrossCallReturnLabel_41:
        JNC     ??MT_ZdoNodeDescRequest_1
        INC     R3
//  443 
//  444   /* Network address of interest */
//  445   shortAddr = BUILD_UINT16( pBuf[0], pBuf[1] );
//  446   pBuf += 2;
//  447 
//  448   retValue = (uint8)ZDP_NodeDescReq( &destAddr, shortAddr, 0);
??MT_ZdoNodeDescRequest_1:
        ; Setup parameters for call to function ZDP_NWKAddrOfInterestReq
        MOV     ?V0,#0x0
        MOV     R0,#?V0
        LCALL   ?PUSH_XSTACK_I_ONE
          CFI CFA_XSP16 add(XSP16, 20)
        MOV     R1,#0x2
        MOV     DPL,R2
        MOV     DPH,R3
        LCALL   ?Subroutine14 & 0xFFFF
??CrossCallReturnLabel_17:
        MOV     A,R1
        LJMP    ??Subroutine42_0 & 0xFFFF
//  449 
//  450   MT_BuildAndSendZToolResponse(((uint8)MT_RPC_CMD_SRSP | (uint8)MT_RPC_SYS_ZDO), cmdId, 1, &retValue);
//  451 }
          CFI EndBlock cfiBlock5
//  452 
//  453 /***************************************************************************************************
//  454  * @fn      MT_ZdoPowerDescRequest
//  455  *
//  456  * @brief   Handle a Power Descriptor request.
//  457  *
//  458  * @param   pData  - MT message data
//  459  *
//  460  * @return  void
//  461  ***************************************************************************************************/

        RSEG BANKED_CODE:CODE:NOROOT(0)
//  462 void MT_ZdoPowerDescRequest(uint8 *pBuf)
MT_ZdoPowerDescRequest:
          CFI Block cfiBlock6 Using cfiCommon0
          CFI Function MT_ZdoPowerDescRequest
        CODE
//  463 {
        FUNCALL MT_ZdoPowerDescRequest, ZDP_NWKAddrOfInterestReq
        LOCFRAME ISTACK, 0, STACK
        LOCFRAME PSTACK, 0, STACK
        LOCFRAME XSTACK, 20, STACK
        LOCFRAME IOVERLAY, 0, STATIC
        LOCFRAME DOVERLAY, 0, STATIC
        ARGFRAME ISTACK, 0, STACK
        ARGFRAME PSTACK, 0, STACK
        ARGFRAME XSTACK, 20, STACK
        ARGFRAME IOVERLAY, 0, STATIC
        ARGFRAME DOVERLAY, 0, STATIC
        FUNCALL MT_ZdoPowerDescRequest, MT_BuildAndSendZToolResponse
        LOCFRAME ISTACK, 0, STACK
        LOCFRAME PSTACK, 0, STACK
        LOCFRAME XSTACK, 19, STACK
        LOCFRAME IOVERLAY, 0, STATIC
        LOCFRAME DOVERLAY, 0, STATIC
        ARGFRAME ISTACK, 0, STACK
        ARGFRAME PSTACK, 0, STACK
        ARGFRAME XSTACK, 19, STACK
        ARGFRAME IOVERLAY, 0, STATIC
        ARGFRAME DOVERLAY, 0, STATIC
        REQUIRE ?V0
        MOV     A,#-0x9
        LCALL   ?BANKED_ENTER_XDATA
          CFI DPH0 load(1, XDATA, add(CFA_XSP16, literal(-1)))
          CFI DPL0 load(1, XDATA, add(CFA_XSP16, literal(-2)))
          CFI ?BRET_EXT load(1, XDATA, add(CFA_XSP16, literal(-3)))
          CFI ?RET_HIGH load(1, XDATA, add(CFA_XSP16, literal(-4)))
          CFI ?RET_LOW load(1, XDATA, add(CFA_XSP16, literal(-5)))
          CFI R7 load(1, XDATA, add(CFA_XSP16, literal(-6)))
          CFI V0 load(1, XDATA, add(CFA_XSP16, literal(-7)))
          CFI VB load(1, XDATA, add(CFA_XSP16, literal(-8)))
          CFI R6 load(1, XDATA, add(CFA_XSP16, literal(-9)))
          CFI CFA_SP SP+0
          CFI CFA_XSP16 add(XSP16, 9)
        ; Saved register size: 9
        ; Auto size: 10
        MOV     A,#-0xa
        LCALL   ?ALLOC_XSTACK8
          CFI CFA_XSP16 add(XSP16, 19)
//  464   uint8 cmdId;
//  465   uint8 retValue;
//  466   zAddrType_t destAddr;
//  467   uint16 shortAddr;
//  468 
//  469   /* parse header */
//  470   cmdId = pBuf[MT_RPC_POS_CMD1];
        LCALL   ??Subroutine41_0 & 0xFFFF
//  471   pBuf += MT_RPC_FRAME_HDR_SZ;
??CrossCallReturnLabel_87:
        JNC     ??MT_ZdoPowerDescRequest_0
        INC     R3
//  472 
//  473   /* Dev address */
//  474   destAddr.addrMode = Addr16Bit;
??MT_ZdoPowerDescRequest_0:
        MOV     A,#0x9
        LCALL   ?XSTACK_DISP0_8
        LCALL   ?Subroutine6 & 0xFFFF
//  475   destAddr.addr.shortAddr = BUILD_UINT16( pBuf[0], pBuf[1] );
??CrossCallReturnLabel_1:
        LCALL   ?XSTACK_DISP0_8
        LCALL   ?Subroutine25 & 0xFFFF
//  476   pBuf += 2;
??CrossCallReturnLabel_42:
        JNC     ??MT_ZdoPowerDescRequest_1
        INC     R3
//  477 
//  478   /* Network address of interest */
//  479   shortAddr = BUILD_UINT16( pBuf[0], pBuf[1] );
//  480   pBuf += 2;
//  481 
//  482   retValue = (uint8)ZDP_PowerDescReq( &destAddr, shortAddr, 0);
??MT_ZdoPowerDescRequest_1:
        ; Setup parameters for call to function ZDP_NWKAddrOfInterestReq
        MOV     ?V0,#0x0
        MOV     R0,#?V0
        LCALL   ?PUSH_XSTACK_I_ONE
          CFI CFA_XSP16 add(XSP16, 20)
        MOV     R1,#0x3
        LJMP    ?Subroutine0 & 0xFFFF
//  483 
//  484   MT_BuildAndSendZToolResponse(((uint8)MT_RPC_CMD_SRSP | (uint8)MT_RPC_SYS_ZDO), cmdId, 1, &retValue);
//  485 }
          CFI EndBlock cfiBlock6
//  486 
//  487 /***************************************************************************************************
//  488  * @fn      MT_ZdoSimpleDescRequest
//  489  *
//  490  * @brief   Handle a Simple Descriptor request.
//  491  *
//  492  * @param   pBuf  - MT message data
//  493  *
//  494  * @return  void
//  495  ***************************************************************************************************/

        RSEG BANKED_CODE:CODE:NOROOT(0)
//  496 void MT_ZdoSimpleDescRequest(uint8 *pBuf)
MT_ZdoSimpleDescRequest:
          CFI Block cfiBlock7 Using cfiCommon0
          CFI Function MT_ZdoSimpleDescRequest
        CODE
//  497 {
        FUNCALL MT_ZdoSimpleDescRequest, ZDP_SimpleDescReq
        LOCFRAME ISTACK, 0, STACK
        LOCFRAME PSTACK, 0, STACK
        LOCFRAME XSTACK, 20, STACK
        LOCFRAME IOVERLAY, 0, STATIC
        LOCFRAME DOVERLAY, 0, STATIC
        ARGFRAME ISTACK, 0, STACK
        ARGFRAME PSTACK, 0, STACK
        ARGFRAME XSTACK, 20, STACK
        ARGFRAME IOVERLAY, 0, STATIC
        ARGFRAME DOVERLAY, 0, STATIC
        FUNCALL MT_ZdoSimpleDescRequest, MT_BuildAndSendZToolResponse
        LOCFRAME ISTACK, 0, STACK
        LOCFRAME PSTACK, 0, STACK
        LOCFRAME XSTACK, 19, STACK
        LOCFRAME IOVERLAY, 0, STATIC
        LOCFRAME DOVERLAY, 0, STATIC
        ARGFRAME ISTACK, 0, STACK
        ARGFRAME PSTACK, 0, STACK
        ARGFRAME XSTACK, 19, STACK
        ARGFRAME IOVERLAY, 0, STATIC
        ARGFRAME DOVERLAY, 0, STATIC
        REQUIRE ?V0
        MOV     A,#-0x9
        LCALL   ?BANKED_ENTER_XDATA
          CFI DPH0 load(1, XDATA, add(CFA_XSP16, literal(-1)))
          CFI DPL0 load(1, XDATA, add(CFA_XSP16, literal(-2)))
          CFI ?BRET_EXT load(1, XDATA, add(CFA_XSP16, literal(-3)))
          CFI ?RET_HIGH load(1, XDATA, add(CFA_XSP16, literal(-4)))
          CFI ?RET_LOW load(1, XDATA, add(CFA_XSP16, literal(-5)))
          CFI R7 load(1, XDATA, add(CFA_XSP16, literal(-6)))
          CFI V0 load(1, XDATA, add(CFA_XSP16, literal(-7)))
          CFI VB load(1, XDATA, add(CFA_XSP16, literal(-8)))
          CFI R6 load(1, XDATA, add(CFA_XSP16, literal(-9)))
          CFI CFA_SP SP+0
          CFI CFA_XSP16 add(XSP16, 9)
        ; Saved register size: 9
        ; Auto size: 10
        MOV     A,#-0xa
        LCALL   ?ALLOC_XSTACK8
          CFI CFA_XSP16 add(XSP16, 19)
//  498   uint8 cmdId;
//  499   uint8 retValue;
//  500   uint8 epInt;
//  501   zAddrType_t destAddr;
//  502   uint16 shortAddr;
//  503 
//  504   /* parse header */
//  505   cmdId = pBuf[MT_RPC_POS_CMD1];
        LCALL   ??Subroutine41_0 & 0xFFFF
//  506   pBuf += MT_RPC_FRAME_HDR_SZ;
??CrossCallReturnLabel_88:
        JNC     ??MT_ZdoSimpleDescRequest_0
        INC     R3
//  507 
//  508   /* Dev address */
//  509   destAddr.addrMode = Addr16Bit;
??MT_ZdoSimpleDescRequest_0:
        MOV     A,#0x9
        LCALL   ?XSTACK_DISP0_8
        LCALL   ?Subroutine6 & 0xFFFF
//  510   destAddr.addr.shortAddr = BUILD_UINT16( pBuf[0], pBuf[1] );
??CrossCallReturnLabel_2:
        LCALL   ?XSTACK_DISP0_8
        LCALL   ?Subroutine25 & 0xFFFF
//  511   pBuf += 2;
??CrossCallReturnLabel_43:
        JNC     ??MT_ZdoSimpleDescRequest_1
        INC     R3
//  512 
//  513   /* Network address of interest */
//  514   shortAddr = BUILD_UINT16( pBuf[0], pBuf[1] );
//  515   pBuf += 2;
//  516 
//  517   /* endpoint/interface */
//  518   epInt = *pBuf++;
//  519 
//  520   retValue = (uint8)ZDP_SimpleDescReq( &destAddr, shortAddr, epInt, 0);
??MT_ZdoSimpleDescRequest_1:
        ; Setup parameters for call to function ZDP_SimpleDescReq
        MOV     ?V0,#0x0
        MOV     R0,#?V0
        LCALL   ?PUSH_XSTACK_I_ONE
          CFI CFA_XSP16 add(XSP16, 20)
        MOV     DPL,R2
        MOV     DPH,R3
        INC     DPTR
        INC     DPTR
        MOVX    A,@DPTR
        MOV     R1,A
        LCALL   ?Subroutine12 & 0xFFFF
??CrossCallReturnLabel_15:
        LCALL   ?XSTACK_DISP101_8
        LCALL   `??ZDP_SimpleDescReq::?relay`; Banked call to: ZDP_SimpleDescReq
        LJMP    ??Subroutine43_0 & 0xFFFF
//  521 
//  522   MT_BuildAndSendZToolResponse(((uint8)MT_RPC_CMD_SRSP | (uint8)MT_RPC_SYS_ZDO), cmdId, 1, &retValue);
//  523 }
          CFI EndBlock cfiBlock7
//  524 
//  525 /***************************************************************************************************
//  526  * @fn      MT_ZdoActiveEpRequest
//  527  *
//  528  * @brief   Handle a Active EP request.
//  529  *
//  530  * @param   pBuf  - MT message data
//  531  *
//  532  * @return  void
//  533  ***************************************************************************************************/

        RSEG BANKED_CODE:CODE:NOROOT(0)
//  534 void MT_ZdoActiveEpRequest(uint8 *pBuf)
MT_ZdoActiveEpRequest:
          CFI Block cfiBlock8 Using cfiCommon0
          CFI Function MT_ZdoActiveEpRequest
        CODE
//  535 {
        FUNCALL MT_ZdoActiveEpRequest, ZDP_NWKAddrOfInterestReq
        LOCFRAME ISTACK, 0, STACK
        LOCFRAME PSTACK, 0, STACK
        LOCFRAME XSTACK, 20, STACK
        LOCFRAME IOVERLAY, 0, STATIC
        LOCFRAME DOVERLAY, 0, STATIC
        ARGFRAME ISTACK, 0, STACK
        ARGFRAME PSTACK, 0, STACK
        ARGFRAME XSTACK, 20, STACK
        ARGFRAME IOVERLAY, 0, STATIC
        ARGFRAME DOVERLAY, 0, STATIC
        FUNCALL MT_ZdoActiveEpRequest, MT_BuildAndSendZToolResponse
        LOCFRAME ISTACK, 0, STACK
        LOCFRAME PSTACK, 0, STACK
        LOCFRAME XSTACK, 19, STACK
        LOCFRAME IOVERLAY, 0, STATIC
        LOCFRAME DOVERLAY, 0, STATIC
        ARGFRAME ISTACK, 0, STACK
        ARGFRAME PSTACK, 0, STACK
        ARGFRAME XSTACK, 19, STACK
        ARGFRAME IOVERLAY, 0, STATIC
        ARGFRAME DOVERLAY, 0, STATIC
        REQUIRE ?V0
        MOV     A,#-0x9
        LCALL   ?BANKED_ENTER_XDATA
          CFI DPH0 load(1, XDATA, add(CFA_XSP16, literal(-1)))
          CFI DPL0 load(1, XDATA, add(CFA_XSP16, literal(-2)))
          CFI ?BRET_EXT load(1, XDATA, add(CFA_XSP16, literal(-3)))
          CFI ?RET_HIGH load(1, XDATA, add(CFA_XSP16, literal(-4)))
          CFI ?RET_LOW load(1, XDATA, add(CFA_XSP16, literal(-5)))
          CFI R7 load(1, XDATA, add(CFA_XSP16, literal(-6)))
          CFI V0 load(1, XDATA, add(CFA_XSP16, literal(-7)))
          CFI VB load(1, XDATA, add(CFA_XSP16, literal(-8)))
          CFI R6 load(1, XDATA, add(CFA_XSP16, literal(-9)))
          CFI CFA_SP SP+0
          CFI CFA_XSP16 add(XSP16, 9)
        ; Saved register size: 9
        ; Auto size: 10
        MOV     A,#-0xa
        LCALL   ?ALLOC_XSTACK8
          CFI CFA_XSP16 add(XSP16, 19)
//  536   uint8 cmdId;
//  537   uint8 retValue;
//  538   zAddrType_t destAddr;
//  539   uint16 shortAddr;
//  540 
//  541   /* parse header */
//  542   cmdId = pBuf[MT_RPC_POS_CMD1];
        LCALL   ??Subroutine41_0 & 0xFFFF
//  543   pBuf += MT_RPC_FRAME_HDR_SZ;
??CrossCallReturnLabel_89:
        JNC     ??MT_ZdoActiveEpRequest_0
        INC     R3
//  544 
//  545   /* Dev address */
//  546   destAddr.addrMode = Addr16Bit;
??MT_ZdoActiveEpRequest_0:
        MOV     A,#0x9
        LCALL   ?XSTACK_DISP0_8
        LCALL   ?Subroutine6 & 0xFFFF
//  547   destAddr.addr.shortAddr = BUILD_UINT16( pBuf[0], pBuf[1] );
??CrossCallReturnLabel_3:
        LCALL   ?XSTACK_DISP0_8
        LCALL   ?Subroutine25 & 0xFFFF
//  548   pBuf += 2;
??CrossCallReturnLabel_44:
        JNC     ??MT_ZdoActiveEpRequest_1
        INC     R3
//  549 
//  550   /* Network address of interest */
//  551   shortAddr = BUILD_UINT16( pBuf[0], pBuf[1] );
//  552   pBuf += 2;
//  553 
//  554   retValue = (uint8)ZDP_ActiveEPReq( &destAddr, shortAddr, 0);
??MT_ZdoActiveEpRequest_1:
        ; Setup parameters for call to function ZDP_NWKAddrOfInterestReq
        MOV     ?V0,#0x0
        MOV     R0,#?V0
        LCALL   ?PUSH_XSTACK_I_ONE
          CFI CFA_XSP16 add(XSP16, 20)
        MOV     R1,#0x5
        LJMP    ?Subroutine0 & 0xFFFF
//  555 
//  556   MT_BuildAndSendZToolResponse(((uint8)MT_RPC_CMD_SRSP | (uint8)MT_RPC_SYS_ZDO), cmdId, 1, &retValue);
//  557 }
          CFI EndBlock cfiBlock8

        RSEG BANKED_CODE:CODE:NOROOT(0)
?Subroutine25:
          CFI Block cfiCond9 Using cfiCommon0
          CFI Function MT_ZdoNodeDescRequest
          CFI Conditional ??CrossCallReturnLabel_41
          CFI R6 load(1, XDATA, add(CFA_XSP16, literal(-9)))
          CFI VB load(1, XDATA, add(CFA_XSP16, literal(-8)))
          CFI V0 load(1, XDATA, add(CFA_XSP16, literal(-7)))
          CFI R7 load(1, XDATA, add(CFA_XSP16, literal(-6)))
          CFI ?RET_LOW load(1, XDATA, add(CFA_XSP16, literal(-5)))
          CFI ?RET_HIGH load(1, XDATA, add(CFA_XSP16, literal(-4)))
          CFI ?BRET_EXT load(1, XDATA, add(CFA_XSP16, literal(-3)))
          CFI DPL0 load(1, XDATA, add(CFA_XSP16, literal(-2)))
          CFI DPH0 load(1, XDATA, add(CFA_XSP16, literal(-1)))
          CFI CFA_SP SP+-2
          CFI CFA_XSP16 add(XSP16, 19)
          CFI Block cfiCond10 Using cfiCommon0
          CFI (cfiCond10) Function MT_ZdoPowerDescRequest
          CFI (cfiCond10) Conditional ??CrossCallReturnLabel_42
          CFI (cfiCond10) R6 load(1, XDATA, add(CFA_XSP16, literal(-9)))
          CFI (cfiCond10) VB load(1, XDATA, add(CFA_XSP16, literal(-8)))
          CFI (cfiCond10) V0 load(1, XDATA, add(CFA_XSP16, literal(-7)))
          CFI (cfiCond10) R7 load(1, XDATA, add(CFA_XSP16, literal(-6)))
          CFI (cfiCond10) ?RET_LOW load(1, XDATA, add(CFA_XSP16, literal(-5)))
          CFI (cfiCond10) ?RET_HIGH load(1, XDATA, add(CFA_XSP16, literal(-4)))
          CFI (cfiCond10) ?BRET_EXT load(1, XDATA, add(CFA_XSP16, literal(-3)))
          CFI (cfiCond10) DPL0 load(1, XDATA, add(CFA_XSP16, literal(-2)))
          CFI (cfiCond10) DPH0 load(1, XDATA, add(CFA_XSP16, literal(-1)))
          CFI (cfiCond10) CFA_SP SP+-2
          CFI (cfiCond10) CFA_XSP16 add(XSP16, 19)
          CFI Block cfiCond11 Using cfiCommon0
          CFI (cfiCond11) Function MT_ZdoSimpleDescRequest
          CFI (cfiCond11) Conditional ??CrossCallReturnLabel_43
          CFI (cfiCond11) R6 load(1, XDATA, add(CFA_XSP16, literal(-9)))
          CFI (cfiCond11) VB load(1, XDATA, add(CFA_XSP16, literal(-8)))
          CFI (cfiCond11) V0 load(1, XDATA, add(CFA_XSP16, literal(-7)))
          CFI (cfiCond11) R7 load(1, XDATA, add(CFA_XSP16, literal(-6)))
          CFI (cfiCond11) ?RET_LOW load(1, XDATA, add(CFA_XSP16, literal(-5)))
          CFI (cfiCond11) ?RET_HIGH load(1, XDATA, add(CFA_XSP16, literal(-4)))
          CFI (cfiCond11) ?BRET_EXT load(1, XDATA, add(CFA_XSP16, literal(-3)))
          CFI (cfiCond11) DPL0 load(1, XDATA, add(CFA_XSP16, literal(-2)))
          CFI (cfiCond11) DPH0 load(1, XDATA, add(CFA_XSP16, literal(-1)))
          CFI (cfiCond11) CFA_SP SP+-2
          CFI (cfiCond11) CFA_XSP16 add(XSP16, 19)
          CFI Block cfiCond12 Using cfiCommon0
          CFI (cfiCond12) Function MT_ZdoActiveEpRequest
          CFI (cfiCond12) Conditional ??CrossCallReturnLabel_44
          CFI (cfiCond12) R6 load(1, XDATA, add(CFA_XSP16, literal(-9)))
          CFI (cfiCond12) VB load(1, XDATA, add(CFA_XSP16, literal(-8)))
          CFI (cfiCond12) V0 load(1, XDATA, add(CFA_XSP16, literal(-7)))
          CFI (cfiCond12) R7 load(1, XDATA, add(CFA_XSP16, literal(-6)))
          CFI (cfiCond12) ?RET_LOW load(1, XDATA, add(CFA_XSP16, literal(-5)))
          CFI (cfiCond12) ?RET_HIGH load(1, XDATA, add(CFA_XSP16, literal(-4)))
          CFI (cfiCond12) ?BRET_EXT load(1, XDATA, add(CFA_XSP16, literal(-3)))
          CFI (cfiCond12) DPL0 load(1, XDATA, add(CFA_XSP16, literal(-2)))
          CFI (cfiCond12) DPH0 load(1, XDATA, add(CFA_XSP16, literal(-1)))
          CFI (cfiCond12) CFA_SP SP+-2
          CFI (cfiCond12) CFA_XSP16 add(XSP16, 19)
          CFI Block cfiCond13 Using cfiCommon0
          CFI (cfiCond13) Function MT_ZdoComplexDescRequest
          CFI (cfiCond13) Conditional ??CrossCallReturnLabel_45
          CFI (cfiCond13) R6 load(1, XDATA, add(CFA_XSP16, literal(-9)))
          CFI (cfiCond13) VB load(1, XDATA, add(CFA_XSP16, literal(-8)))
          CFI (cfiCond13) V0 load(1, XDATA, add(CFA_XSP16, literal(-7)))
          CFI (cfiCond13) R7 load(1, XDATA, add(CFA_XSP16, literal(-6)))
          CFI (cfiCond13) ?RET_LOW load(1, XDATA, add(CFA_XSP16, literal(-5)))
          CFI (cfiCond13) ?RET_HIGH load(1, XDATA, add(CFA_XSP16, literal(-4)))
          CFI (cfiCond13) ?BRET_EXT load(1, XDATA, add(CFA_XSP16, literal(-3)))
          CFI (cfiCond13) DPL0 load(1, XDATA, add(CFA_XSP16, literal(-2)))
          CFI (cfiCond13) DPH0 load(1, XDATA, add(CFA_XSP16, literal(-1)))
          CFI (cfiCond13) CFA_SP SP+-2
          CFI (cfiCond13) CFA_XSP16 add(XSP16, 19)
          CFI Block cfiCond14 Using cfiCommon0
          CFI (cfiCond14) Function MT_ZdoUserDescRequest
          CFI (cfiCond14) Conditional ??CrossCallReturnLabel_46
          CFI (cfiCond14) R6 load(1, XDATA, add(CFA_XSP16, literal(-9)))
          CFI (cfiCond14) VB load(1, XDATA, add(CFA_XSP16, literal(-8)))
          CFI (cfiCond14) V0 load(1, XDATA, add(CFA_XSP16, literal(-7)))
          CFI (cfiCond14) R7 load(1, XDATA, add(CFA_XSP16, literal(-6)))
          CFI (cfiCond14) ?RET_LOW load(1, XDATA, add(CFA_XSP16, literal(-5)))
          CFI (cfiCond14) ?RET_HIGH load(1, XDATA, add(CFA_XSP16, literal(-4)))
          CFI (cfiCond14) ?BRET_EXT load(1, XDATA, add(CFA_XSP16, literal(-3)))
          CFI (cfiCond14) DPL0 load(1, XDATA, add(CFA_XSP16, literal(-2)))
          CFI (cfiCond14) DPH0 load(1, XDATA, add(CFA_XSP16, literal(-1)))
          CFI (cfiCond14) CFA_SP SP+-2
          CFI (cfiCond14) CFA_XSP16 add(XSP16, 19)
          CFI Block cfiCond15 Using cfiCommon0
          CFI (cfiCond15) Function MT_ZdoUserDescSet
          CFI (cfiCond15) Conditional ??CrossCallReturnLabel_47
          CFI (cfiCond15) R6 load(1, XDATA, add(CFA_XSP16, literal(-12)))
          CFI (cfiCond15) VB load(1, XDATA, add(CFA_XSP16, literal(-11)))
          CFI (cfiCond15) V0 load(1, XDATA, add(CFA_XSP16, literal(-10)))
          CFI (cfiCond15) V1 load(1, XDATA, add(CFA_XSP16, literal(-9)))
          CFI (cfiCond15) V2 load(1, XDATA, add(CFA_XSP16, literal(-8)))
          CFI (cfiCond15) V3 load(1, XDATA, add(CFA_XSP16, literal(-7)))
          CFI (cfiCond15) R7 load(1, XDATA, add(CFA_XSP16, literal(-6)))
          CFI (cfiCond15) ?RET_LOW load(1, XDATA, add(CFA_XSP16, literal(-5)))
          CFI (cfiCond15) ?RET_HIGH load(1, XDATA, add(CFA_XSP16, literal(-4)))
          CFI (cfiCond15) ?BRET_EXT load(1, XDATA, add(CFA_XSP16, literal(-3)))
          CFI (cfiCond15) DPL0 load(1, XDATA, add(CFA_XSP16, literal(-2)))
          CFI (cfiCond15) DPH0 load(1, XDATA, add(CFA_XSP16, literal(-1)))
          CFI (cfiCond15) CFA_SP SP+-2
          CFI (cfiCond15) CFA_XSP16 add(XSP16, 39)
          CFI Block cfiPicker16 Using cfiCommon1
          CFI (cfiPicker16) NoFunction
          CFI (cfiPicker16) Picker
        MOV     A,R0
        MOVX    @DPTR,A
        INC     DPTR
        MOV     A,R1
        MOVX    @DPTR,A
        MOV     A,R2
        ADD     A,#0x2
        MOV     R2,A
        RET
          CFI (cfiCond9) CFA_SP SP+0
          CFI (cfiCond10) CFA_SP SP+0
          CFI (cfiCond11) CFA_SP SP+0
          CFI (cfiCond12) CFA_SP SP+0
          CFI (cfiCond13) CFA_SP SP+0
          CFI (cfiCond14) CFA_SP SP+0
          CFI (cfiCond15) CFA_SP SP+0
          CFI (cfiPicker16) CFA_SP SP+0
          CFI EndBlock cfiCond9
          CFI EndBlock cfiCond10
          CFI EndBlock cfiCond11
          CFI EndBlock cfiCond12
          CFI EndBlock cfiCond13
          CFI EndBlock cfiCond14
          CFI EndBlock cfiCond15
          CFI EndBlock cfiPicker16

        RSEG BANKED_CODE:CODE:NOROOT(0)
?Subroutine6:
          CFI Block cfiCond17 Using cfiCommon0
          CFI Function MT_ZdoNodeDescRequest
          CFI Conditional ??CrossCallReturnLabel_0
          CFI R6 load(1, XDATA, add(CFA_XSP16, literal(-9)))
          CFI VB load(1, XDATA, add(CFA_XSP16, literal(-8)))
          CFI V0 load(1, XDATA, add(CFA_XSP16, literal(-7)))
          CFI R7 load(1, XDATA, add(CFA_XSP16, literal(-6)))
          CFI ?RET_LOW load(1, XDATA, add(CFA_XSP16, literal(-5)))
          CFI ?RET_HIGH load(1, XDATA, add(CFA_XSP16, literal(-4)))
          CFI ?BRET_EXT load(1, XDATA, add(CFA_XSP16, literal(-3)))
          CFI DPL0 load(1, XDATA, add(CFA_XSP16, literal(-2)))
          CFI DPH0 load(1, XDATA, add(CFA_XSP16, literal(-1)))
          CFI CFA_SP SP+-2
          CFI CFA_XSP16 add(XSP16, 19)
          CFI Block cfiCond18 Using cfiCommon0
          CFI (cfiCond18) Function MT_ZdoPowerDescRequest
          CFI (cfiCond18) Conditional ??CrossCallReturnLabel_1
          CFI (cfiCond18) R6 load(1, XDATA, add(CFA_XSP16, literal(-9)))
          CFI (cfiCond18) VB load(1, XDATA, add(CFA_XSP16, literal(-8)))
          CFI (cfiCond18) V0 load(1, XDATA, add(CFA_XSP16, literal(-7)))
          CFI (cfiCond18) R7 load(1, XDATA, add(CFA_XSP16, literal(-6)))
          CFI (cfiCond18) ?RET_LOW load(1, XDATA, add(CFA_XSP16, literal(-5)))
          CFI (cfiCond18) ?RET_HIGH load(1, XDATA, add(CFA_XSP16, literal(-4)))
          CFI (cfiCond18) ?BRET_EXT load(1, XDATA, add(CFA_XSP16, literal(-3)))
          CFI (cfiCond18) DPL0 load(1, XDATA, add(CFA_XSP16, literal(-2)))
          CFI (cfiCond18) DPH0 load(1, XDATA, add(CFA_XSP16, literal(-1)))
          CFI (cfiCond18) CFA_SP SP+-2
          CFI (cfiCond18) CFA_XSP16 add(XSP16, 19)
          CFI Block cfiCond19 Using cfiCommon0
          CFI (cfiCond19) Function MT_ZdoSimpleDescRequest
          CFI (cfiCond19) Conditional ??CrossCallReturnLabel_2
          CFI (cfiCond19) R6 load(1, XDATA, add(CFA_XSP16, literal(-9)))
          CFI (cfiCond19) VB load(1, XDATA, add(CFA_XSP16, literal(-8)))
          CFI (cfiCond19) V0 load(1, XDATA, add(CFA_XSP16, literal(-7)))
          CFI (cfiCond19) R7 load(1, XDATA, add(CFA_XSP16, literal(-6)))
          CFI (cfiCond19) ?RET_LOW load(1, XDATA, add(CFA_XSP16, literal(-5)))
          CFI (cfiCond19) ?RET_HIGH load(1, XDATA, add(CFA_XSP16, literal(-4)))
          CFI (cfiCond19) ?BRET_EXT load(1, XDATA, add(CFA_XSP16, literal(-3)))
          CFI (cfiCond19) DPL0 load(1, XDATA, add(CFA_XSP16, literal(-2)))
          CFI (cfiCond19) DPH0 load(1, XDATA, add(CFA_XSP16, literal(-1)))
          CFI (cfiCond19) CFA_SP SP+-2
          CFI (cfiCond19) CFA_XSP16 add(XSP16, 19)
          CFI Block cfiCond20 Using cfiCommon0
          CFI (cfiCond20) Function MT_ZdoActiveEpRequest
          CFI (cfiCond20) Conditional ??CrossCallReturnLabel_3
          CFI (cfiCond20) R6 load(1, XDATA, add(CFA_XSP16, literal(-9)))
          CFI (cfiCond20) VB load(1, XDATA, add(CFA_XSP16, literal(-8)))
          CFI (cfiCond20) V0 load(1, XDATA, add(CFA_XSP16, literal(-7)))
          CFI (cfiCond20) R7 load(1, XDATA, add(CFA_XSP16, literal(-6)))
          CFI (cfiCond20) ?RET_LOW load(1, XDATA, add(CFA_XSP16, literal(-5)))
          CFI (cfiCond20) ?RET_HIGH load(1, XDATA, add(CFA_XSP16, literal(-4)))
          CFI (cfiCond20) ?BRET_EXT load(1, XDATA, add(CFA_XSP16, literal(-3)))
          CFI (cfiCond20) DPL0 load(1, XDATA, add(CFA_XSP16, literal(-2)))
          CFI (cfiCond20) DPH0 load(1, XDATA, add(CFA_XSP16, literal(-1)))
          CFI (cfiCond20) CFA_SP SP+-2
          CFI (cfiCond20) CFA_XSP16 add(XSP16, 19)
          CFI Block cfiCond21 Using cfiCommon0
          CFI (cfiCond21) Function MT_ZdoComplexDescRequest
          CFI (cfiCond21) Conditional ??CrossCallReturnLabel_4
          CFI (cfiCond21) R6 load(1, XDATA, add(CFA_XSP16, literal(-9)))
          CFI (cfiCond21) VB load(1, XDATA, add(CFA_XSP16, literal(-8)))
          CFI (cfiCond21) V0 load(1, XDATA, add(CFA_XSP16, literal(-7)))
          CFI (cfiCond21) R7 load(1, XDATA, add(CFA_XSP16, literal(-6)))
          CFI (cfiCond21) ?RET_LOW load(1, XDATA, add(CFA_XSP16, literal(-5)))
          CFI (cfiCond21) ?RET_HIGH load(1, XDATA, add(CFA_XSP16, literal(-4)))
          CFI (cfiCond21) ?BRET_EXT load(1, XDATA, add(CFA_XSP16, literal(-3)))
          CFI (cfiCond21) DPL0 load(1, XDATA, add(CFA_XSP16, literal(-2)))
          CFI (cfiCond21) DPH0 load(1, XDATA, add(CFA_XSP16, literal(-1)))
          CFI (cfiCond21) CFA_SP SP+-2
          CFI (cfiCond21) CFA_XSP16 add(XSP16, 19)
          CFI Block cfiCond22 Using cfiCommon0
          CFI (cfiCond22) Function MT_ZdoUserDescRequest
          CFI (cfiCond22) Conditional ??CrossCallReturnLabel_5
          CFI (cfiCond22) R6 load(1, XDATA, add(CFA_XSP16, literal(-9)))
          CFI (cfiCond22) VB load(1, XDATA, add(CFA_XSP16, literal(-8)))
          CFI (cfiCond22) V0 load(1, XDATA, add(CFA_XSP16, literal(-7)))
          CFI (cfiCond22) R7 load(1, XDATA, add(CFA_XSP16, literal(-6)))
          CFI (cfiCond22) ?RET_LOW load(1, XDATA, add(CFA_XSP16, literal(-5)))
          CFI (cfiCond22) ?RET_HIGH load(1, XDATA, add(CFA_XSP16, literal(-4)))
          CFI (cfiCond22) ?BRET_EXT load(1, XDATA, add(CFA_XSP16, literal(-3)))
          CFI (cfiCond22) DPL0 load(1, XDATA, add(CFA_XSP16, literal(-2)))
          CFI (cfiCond22) DPH0 load(1, XDATA, add(CFA_XSP16, literal(-1)))
          CFI (cfiCond22) CFA_SP SP+-2
          CFI (cfiCond22) CFA_XSP16 add(XSP16, 19)
          CFI Block cfiCond23 Using cfiCommon0
          CFI (cfiCond23) Function MT_ZdoUserDescSet
          CFI (cfiCond23) Conditional ??CrossCallReturnLabel_6
          CFI (cfiCond23) R6 load(1, XDATA, add(CFA_XSP16, literal(-12)))
          CFI (cfiCond23) VB load(1, XDATA, add(CFA_XSP16, literal(-11)))
          CFI (cfiCond23) V0 load(1, XDATA, add(CFA_XSP16, literal(-10)))
          CFI (cfiCond23) V1 load(1, XDATA, add(CFA_XSP16, literal(-9)))
          CFI (cfiCond23) V2 load(1, XDATA, add(CFA_XSP16, literal(-8)))
          CFI (cfiCond23) V3 load(1, XDATA, add(CFA_XSP16, literal(-7)))
          CFI (cfiCond23) R7 load(1, XDATA, add(CFA_XSP16, literal(-6)))
          CFI (cfiCond23) ?RET_LOW load(1, XDATA, add(CFA_XSP16, literal(-5)))
          CFI (cfiCond23) ?RET_HIGH load(1, XDATA, add(CFA_XSP16, literal(-4)))
          CFI (cfiCond23) ?BRET_EXT load(1, XDATA, add(CFA_XSP16, literal(-3)))
          CFI (cfiCond23) DPL0 load(1, XDATA, add(CFA_XSP16, literal(-2)))
          CFI (cfiCond23) DPH0 load(1, XDATA, add(CFA_XSP16, literal(-1)))
          CFI (cfiCond23) CFA_SP SP+-2
          CFI (cfiCond23) CFA_XSP16 add(XSP16, 39)
          CFI Block cfiPicker24 Using cfiCommon1
          CFI (cfiPicker24) NoFunction
          CFI (cfiPicker24) Picker
        MOV     A,#0x2
        MOVX    @DPTR,A
        MOV     DPL,R2
        MOV     DPH,R3
        MOVX    A,@DPTR
        MOV     R4,A
        INC     DPTR
        MOVX    A,@DPTR
        MOV     R1,A
        MOV     A,R4
        MOV     R0,A
        MOV     A,#0x1
        RET
          CFI (cfiCond17) CFA_SP SP+0
          CFI (cfiCond18) CFA_SP SP+0
          CFI (cfiCond19) CFA_SP SP+0
          CFI (cfiCond20) CFA_SP SP+0
          CFI (cfiCond21) CFA_SP SP+0
          CFI (cfiCond22) CFA_SP SP+0
          CFI (cfiCond23) CFA_SP SP+0
          CFI (cfiPicker24) CFA_SP SP+0
          CFI EndBlock cfiCond17
          CFI EndBlock cfiCond18
          CFI EndBlock cfiCond19
          CFI EndBlock cfiCond20
          CFI EndBlock cfiCond21
          CFI EndBlock cfiCond22
          CFI EndBlock cfiCond23
          CFI EndBlock cfiPicker24
//  558 
//  559 /***************************************************************************************************
//  560  * @fn      MT_ZdoMatchDescRequest
//  561  *
//  562  * @brief   Handle a Match Descriptor request.
//  563  *
//  564  * @param   pBuf  - MT message data
//  565  *
//  566  * @return  void
//  567  ***************************************************************************************************/

        RSEG BANKED_CODE:CODE:NOROOT(0)
//  568 void MT_ZdoMatchDescRequest(uint8 *pBuf)
MT_ZdoMatchDescRequest:
          CFI Block cfiBlock25 Using cfiCommon0
          CFI Function MT_ZdoMatchDescRequest
        CODE
//  569 {
        FUNCALL MT_ZdoMatchDescRequest, ZDP_MatchDescReq
        LOCFRAME ISTACK, 0, STACK
        LOCFRAME PSTACK, 0, STACK
        LOCFRAME XSTACK, 96, STACK
        LOCFRAME IOVERLAY, 0, STATIC
        LOCFRAME DOVERLAY, 0, STATIC
        ARGFRAME ISTACK, 0, STACK
        ARGFRAME PSTACK, 0, STACK
        ARGFRAME XSTACK, 96, STACK
        ARGFRAME IOVERLAY, 0, STATIC
        ARGFRAME DOVERLAY, 0, STATIC
        FUNCALL MT_ZdoMatchDescRequest, MT_BuildAndSendZToolResponse
        LOCFRAME ISTACK, 0, STACK
        LOCFRAME PSTACK, 0, STACK
        LOCFRAME XSTACK, 88, STACK
        LOCFRAME IOVERLAY, 0, STATIC
        LOCFRAME DOVERLAY, 0, STATIC
        ARGFRAME ISTACK, 0, STACK
        ARGFRAME PSTACK, 0, STACK
        ARGFRAME XSTACK, 88, STACK
        ARGFRAME IOVERLAY, 0, STATIC
        ARGFRAME DOVERLAY, 0, STATIC
        REQUIRE ?V0
        REQUIRE ?V1
        REQUIRE ?V2
        REQUIRE ?V3
        REQUIRE ?V4
        REQUIRE ?V5
        MOV     A,#-0xe
        LCALL   ?BANKED_ENTER_XDATA
          CFI DPH0 load(1, XDATA, add(CFA_XSP16, literal(-1)))
          CFI DPL0 load(1, XDATA, add(CFA_XSP16, literal(-2)))
          CFI ?BRET_EXT load(1, XDATA, add(CFA_XSP16, literal(-3)))
          CFI ?RET_HIGH load(1, XDATA, add(CFA_XSP16, literal(-4)))
          CFI ?RET_LOW load(1, XDATA, add(CFA_XSP16, literal(-5)))
          CFI R7 load(1, XDATA, add(CFA_XSP16, literal(-6)))
          CFI V5 load(1, XDATA, add(CFA_XSP16, literal(-7)))
          CFI V4 load(1, XDATA, add(CFA_XSP16, literal(-8)))
          CFI V3 load(1, XDATA, add(CFA_XSP16, literal(-9)))
          CFI V2 load(1, XDATA, add(CFA_XSP16, literal(-10)))
          CFI V1 load(1, XDATA, add(CFA_XSP16, literal(-11)))
          CFI V0 load(1, XDATA, add(CFA_XSP16, literal(-12)))
          CFI VB load(1, XDATA, add(CFA_XSP16, literal(-13)))
          CFI R6 load(1, XDATA, add(CFA_XSP16, literal(-14)))
          CFI CFA_SP SP+0
          CFI CFA_XSP16 add(XSP16, 14)
        ; Saved register size: 14
        ; Auto size: 74
        MOV     A,#-0x4a
        LCALL   ?ALLOC_XSTACK8
          CFI CFA_XSP16 add(XSP16, 88)
        MOV     A,R2
        MOV     R0,A
        MOV     A,R3
        MOV     R1,A
//  570   uint8 cmdId;
//  571   uint8 retValue = 0;
        MOV     DPL,?XSP + 0
        MOV     DPH,?XSP + 1
        CLR     A
        LCALL   ?Subroutine27 & 0xFFFF
//  572   uint8 i, numInClusters, numOutClusters;
//  573   uint16 profileId;
//  574   zAddrType_t destAddr;
//  575   uint16 shortAddr;
//  576   uint16 inClusters[MTZDO_MAX_MATCH_CLUSTERS], outClusters[MTZDO_MAX_MATCH_CLUSTERS];
//  577 
//  578   /* parse header */
//  579   cmdId = pBuf[MT_RPC_POS_CMD1];
??CrossCallReturnLabel_48:
        INC     DPTR
        MOVX    A,@DPTR
        MOV     R6,A
//  580   pBuf += MT_RPC_FRAME_HDR_SZ;
        MOV     A,R0
        ADD     A,#0x3
        MOV     R0,A
        JNC     ??MT_ZdoMatchDescRequest_0
        INC     R1
//  581 
//  582   /* Dev address */
//  583   destAddr.addrMode = Addr16Bit;
??MT_ZdoMatchDescRequest_0:
        MOV     A,#0x9
        LCALL   ?XSTACK_DISP0_8
        MOV     A,#0x2
        MOVX    @DPTR,A
//  584   destAddr.addr.shortAddr = BUILD_UINT16( pBuf[0], pBuf[1] );
        MOV     DPL,R0
        MOV     DPH,R1
        MOVX    A,@DPTR
        MOV     R4,A
        INC     DPTR
        MOVX    A,@DPTR
        MOV     R3,A
        MOV     A,R4
        MOV     R2,A
        MOV     A,#0x1
        LCALL   ?XSTACK_DISP0_8
        MOV     A,R2
        MOVX    @DPTR,A
        INC     DPTR
        MOV     A,R3
        MOVX    @DPTR,A
//  585   pBuf += 2;
        MOV     A,R0
        ADD     A,#0x2
        MOV     R0,A
        JNC     ??MT_ZdoMatchDescRequest_1
        INC     R1
//  586 
//  587   /* Network address of interest */
//  588   shortAddr = BUILD_UINT16( pBuf[0], pBuf[1] );
??MT_ZdoMatchDescRequest_1:
        MOV     DPL,R0
        MOV     DPH,R1
        LCALL   ?Subroutine14 & 0xFFFF
//  589   pBuf += 2;
??CrossCallReturnLabel_18:
        MOV     A,R0
        ADD     A,#0x2
        MOV     R0,A
        JNC     ??MT_ZdoMatchDescRequest_2
        INC     R1
//  590 
//  591   /* Profile ID */
//  592   profileId = BUILD_UINT16( pBuf[0], pBuf[1] );
??MT_ZdoMatchDescRequest_2:
        MOV     DPL,R0
        MOV     DPH,R1
        LCALL   ?Subroutine15 & 0xFFFF
//  593   pBuf += 2;
//  594 
//  595   /* NumInClusters */
//  596   numInClusters = *pBuf++;
??CrossCallReturnLabel_20:
        MOV     DPL,R0
        MOV     DPH,R1
        INC     DPTR
        INC     DPTR
        MOVX    A,@DPTR
        MOV     R7,A
        MOV     A,R0
        ADD     A,#0x3
        MOV     R0,A
        JNC     ??MT_ZdoMatchDescRequest_3
        INC     R1
//  597   if ( numInClusters <= MTZDO_MAX_MATCH_CLUSTERS )
??MT_ZdoMatchDescRequest_3:
        MOV     A,R7
        CLR     C
        SUBB    A,#0x11
        JNC     ??MT_ZdoMatchDescRequest_4
//  598   {
//  599     /* IN clusters */
//  600     for ( i = 0; i < numInClusters; i++ )
        MOV     ?V3,#0x0
??MT_ZdoMatchDescRequest_5:
        MOV     A,?V3
        CLR     C
        SUBB    A,R7
        JNC     ??MT_ZdoMatchDescRequest_6
//  601     {
//  602       inClusters[i] = BUILD_UINT16( pBuf[0], pBuf[1]);
        MOV     DPL,R0
        MOV     DPH,R1
        MOVX    A,@DPTR
        MOV     ?V4,A
        INC     DPTR
        MOVX    A,@DPTR
        MOV     ?V1,A
        MOV     A,?V4
        ADD     A,#0x0
        CLR     A
        ADDC    A,?V1
        MOV     ?V5,A
        LCALL   ?Subroutine30 & 0xFFFF
//  603       pBuf += 2;
//  604     }
??CrossCallReturnLabel_57:
        MOV     A,#0x2a
        LCALL   ?XSTACK_DISP0_8
        LCALL   ?Subroutine21 & 0xFFFF
??CrossCallReturnLabel_32:
        JNC     ??MT_ZdoMatchDescRequest_7
        INC     R1
??MT_ZdoMatchDescRequest_7:
        INC     ?V3
        SJMP    ??MT_ZdoMatchDescRequest_5
//  605   }
//  606   else
//  607   {
//  608     retValue = ZDP_INVALID_REQTYPE;
??MT_ZdoMatchDescRequest_4:
        MOV     DPL,?XSP + 0
        MOV     DPH,?XSP + 1
        MOV     A,#-0x80
        MOVX    @DPTR,A
//  609   }
//  610 
//  611   /* NumOutClusters */
//  612   numOutClusters = *pBuf++;
??MT_ZdoMatchDescRequest_6:
        MOV     DPL,R0
        MOV     DPH,R1
        MOVX    A,@DPTR
        MOV     ?V2,A
        INC     DPTR
        MOV     R0,DPL
        MOV     R1,DPH
//  613   if ( numOutClusters <= MTZDO_MAX_MATCH_CLUSTERS )
        CLR     C
        SUBB    A,#0x11
        JNC     ??MT_ZdoMatchDescRequest_8
//  614   {
//  615     /* OUT Clusters */
//  616     for ( i = 0; i < numOutClusters; i++ )
        MOV     ?V3,#0x0
??MT_ZdoMatchDescRequest_9:
        MOV     A,?V3
        CLR     C
        SUBB    A,?V2
        JNC     ??MT_ZdoMatchDescRequest_10
//  617     {
//  618       outClusters[i] = BUILD_UINT16( pBuf[0], pBuf[1]);
        MOV     DPL,R0
        MOV     DPH,R1
        LCALL   ?Subroutine33 & 0xFFFF
//  619       pBuf += 2;
//  620     }
??CrossCallReturnLabel_64:
        LCALL   ?Subroutine30 & 0xFFFF
??CrossCallReturnLabel_58:
        MOV     A,#0xa
        LCALL   ?XSTACK_DISP0_8
        LCALL   ?Subroutine21 & 0xFFFF
??CrossCallReturnLabel_33:
        JNC     ??MT_ZdoMatchDescRequest_11
        INC     R1
??MT_ZdoMatchDescRequest_11:
        INC     ?V3
        SJMP    ??MT_ZdoMatchDescRequest_9
//  621   }
//  622   else
//  623   {
//  624     retValue = ZDP_INVALID_REQTYPE;
??MT_ZdoMatchDescRequest_8:
        MOV     DPL,?XSP + 0
        MOV     DPH,?XSP + 1
        MOV     A,#-0x80
        SJMP    ??MT_ZdoMatchDescRequest_12
//  625   }
//  626 
//  627   if ( retValue == 0 )
??MT_ZdoMatchDescRequest_10:
        MOV     DPL,?XSP + 0
        MOV     DPH,?XSP + 1
        MOVX    A,@DPTR
        JNZ     ??MT_ZdoMatchDescRequest_13
//  628   {
//  629     retValue = (uint8)ZDP_MatchDescReq( &destAddr, shortAddr, profileId, numInClusters,
//  630                                        inClusters, numOutClusters, outClusters, 0);
        ; Setup parameters for call to function ZDP_MatchDescReq
        MOV     ?V0,#0x0
        MOV     R0,#?V0
        LCALL   ?PUSH_XSTACK_I_ONE
          CFI CFA_XSP16 add(XSP16, 89)
        MOV     A,#0xb
        LCALL   ?XSTACK_DISP100_8
        MOV     ?V0,R0
        MOV     ?V1,R1
        MOV     R0,#?V0
        LCALL   ?PUSH_XSTACK_I_TWO
          CFI CFA_XSP16 add(XSP16, 91)
        MOV     A,?V2
        MOV     ?V0,A
        MOV     R0,#?V0
        LCALL   ?PUSH_XSTACK_I_ONE
          CFI CFA_XSP16 add(XSP16, 92)
        MOV     A,#0x2e
        LCALL   ?XSTACK_DISP100_8
        MOV     ?V0,R0
        MOV     ?V1,R1
        MOV     R0,#?V0
        LCALL   ?PUSH_XSTACK_I_TWO
          CFI CFA_XSP16 add(XSP16, 94)
        MOV     ?V0,R2
        MOV     ?V1,R3
        MOV     R0,#?V0
        LCALL   ?PUSH_XSTACK_I_TWO
          CFI CFA_XSP16 add(XSP16, 96)
        MOV     A,R7
        MOV     R1,A
        MOV     A,#0x9
        LCALL   ?XSTACK_DISP101_8
        LCALL   `??ZDP_MatchDescReq::?relay`; Banked call to: ZDP_MatchDescReq
        MOV     A,#0x8
        LCALL   ?DEALLOC_XSTACK8
          CFI CFA_XSP16 add(XSP16, 88)
        MOV     A,R1
        MOV     DPL,?XSP + 0
        MOV     DPH,?XSP + 1
??MT_ZdoMatchDescRequest_12:
        MOVX    @DPTR,A
//  631   }
//  632 
//  633   MT_BuildAndSendZToolResponse(((uint8)MT_RPC_CMD_SRSP | (uint8)MT_RPC_SYS_ZDO), cmdId, 1, &retValue);
??MT_ZdoMatchDescRequest_13:
        ; Setup parameters for call to function MT_BuildAndSendZToolResponse
        MOV     R4,?XSP + 0
        MOV     R5,?XSP + 1
        MOV     R3,#0x1
        MOV     A,R6
        MOV     R2,A
        MOV     R1,#0x65
        LCALL   `??MT_BuildAndSendZToolResponse::?relay`; Banked call to: MT_BuildAndSendZToolResponse
//  634 }
        MOV     A,#0x4a
          CFI EndBlock cfiBlock25
        REQUIRE ?Subroutine2
        ; // Fall through to label ?Subroutine2

        RSEG BANKED_CODE:CODE:NOROOT(0)
?Subroutine2:
          CFI Block cfiBlock26 Using cfiCommon0
          CFI NoFunction
          CFI CFA_SP SP+0
          CFI CFA_XSP16 add(XSP16, 88)
          CFI VB load(1, XDATA, add(CFA_XSP16, literal(-13)))
          CFI DPL0 load(1, XDATA, add(CFA_XSP16, literal(-2)))
          CFI DPH0 load(1, XDATA, add(CFA_XSP16, literal(-1)))
          CFI R6 load(1, XDATA, add(CFA_XSP16, literal(-14)))
          CFI R7 load(1, XDATA, add(CFA_XSP16, literal(-6)))
          CFI V0 load(1, XDATA, add(CFA_XSP16, literal(-12)))
          CFI V1 load(1, XDATA, add(CFA_XSP16, literal(-11)))
          CFI V2 load(1, XDATA, add(CFA_XSP16, literal(-10)))
          CFI V3 load(1, XDATA, add(CFA_XSP16, literal(-9)))
          CFI V4 load(1, XDATA, add(CFA_XSP16, literal(-8)))
          CFI V5 load(1, XDATA, add(CFA_XSP16, literal(-7)))
          CFI ?BRET_EXT load(1, XDATA, add(CFA_XSP16, literal(-3)))
          CFI ?RET_HIGH load(1, XDATA, add(CFA_XSP16, literal(-4)))
          CFI ?RET_LOW load(1, XDATA, add(CFA_XSP16, literal(-5)))
          CFI Invalid
        LCALL   ?DEALLOC_XSTACK8
          CFI CFA_XSP16 add(XSP16, 14)
          CFI Valid
        MOV     R7,#0x6
        LJMP    ?BANKED_LEAVE_XDATA
          CFI CFA_SP SP+-3
          CFI CFA_XSP16 XSP16+0
          CFI VB SameValue
          CFI DPL0 SameValue
          CFI DPH0 SameValue
          CFI R6 SameValue
          CFI R7 SameValue
          CFI V0 SameValue
          CFI V1 SameValue
          CFI V2 SameValue
          CFI V3 SameValue
          CFI V4 SameValue
          CFI V5 SameValue
          CFI ?BRET_EXT Frame(CFA_SP, 3)
          CFI ?RET_HIGH Frame(CFA_SP, 2)
          CFI ?RET_LOW Frame(CFA_SP, 1)
          CFI EndBlock cfiBlock26

        RSEG BANKED_CODE:CODE:NOROOT(0)
?Subroutine30:
          CFI Block cfiCond27 Using cfiCommon0
          CFI Function MT_ZdoMatchDescRequest
          CFI Conditional ??CrossCallReturnLabel_57
          CFI R6 load(1, XDATA, add(CFA_XSP16, literal(-14)))
          CFI VB load(1, XDATA, add(CFA_XSP16, literal(-13)))
          CFI V0 load(1, XDATA, add(CFA_XSP16, literal(-12)))
          CFI V1 load(1, XDATA, add(CFA_XSP16, literal(-11)))
          CFI V2 load(1, XDATA, add(CFA_XSP16, literal(-10)))
          CFI V3 load(1, XDATA, add(CFA_XSP16, literal(-9)))
          CFI V4 load(1, XDATA, add(CFA_XSP16, literal(-8)))
          CFI V5 load(1, XDATA, add(CFA_XSP16, literal(-7)))
          CFI R7 load(1, XDATA, add(CFA_XSP16, literal(-6)))
          CFI ?RET_LOW load(1, XDATA, add(CFA_XSP16, literal(-5)))
          CFI ?RET_HIGH load(1, XDATA, add(CFA_XSP16, literal(-4)))
          CFI ?BRET_EXT load(1, XDATA, add(CFA_XSP16, literal(-3)))
          CFI DPL0 load(1, XDATA, add(CFA_XSP16, literal(-2)))
          CFI DPH0 load(1, XDATA, add(CFA_XSP16, literal(-1)))
          CFI CFA_SP SP+-2
          CFI CFA_XSP16 add(XSP16, 88)
          CFI Block cfiCond28 Using cfiCommon0
          CFI (cfiCond28) Function MT_ZdoMatchDescRequest
          CFI (cfiCond28) Conditional ??CrossCallReturnLabel_58
          CFI (cfiCond28) R6 load(1, XDATA, add(CFA_XSP16, literal(-14)))
          CFI (cfiCond28) VB load(1, XDATA, add(CFA_XSP16, literal(-13)))
          CFI (cfiCond28) V0 load(1, XDATA, add(CFA_XSP16, literal(-12)))
          CFI (cfiCond28) V1 load(1, XDATA, add(CFA_XSP16, literal(-11)))
          CFI (cfiCond28) V2 load(1, XDATA, add(CFA_XSP16, literal(-10)))
          CFI (cfiCond28) V3 load(1, XDATA, add(CFA_XSP16, literal(-9)))
          CFI (cfiCond28) V4 load(1, XDATA, add(CFA_XSP16, literal(-8)))
          CFI (cfiCond28) V5 load(1, XDATA, add(CFA_XSP16, literal(-7)))
          CFI (cfiCond28) R7 load(1, XDATA, add(CFA_XSP16, literal(-6)))
          CFI (cfiCond28) ?RET_LOW load(1, XDATA, add(CFA_XSP16, literal(-5)))
          CFI (cfiCond28) ?RET_HIGH load(1, XDATA, add(CFA_XSP16, literal(-4)))
          CFI (cfiCond28) ?BRET_EXT load(1, XDATA, add(CFA_XSP16, literal(-3)))
          CFI (cfiCond28) DPL0 load(1, XDATA, add(CFA_XSP16, literal(-2)))
          CFI (cfiCond28) DPH0 load(1, XDATA, add(CFA_XSP16, literal(-1)))
          CFI (cfiCond28) CFA_SP SP+-2
          CFI (cfiCond28) CFA_XSP16 add(XSP16, 88)
          CFI Block cfiPicker29 Using cfiCommon1
          CFI (cfiPicker29) NoFunction
          CFI (cfiPicker29) Picker
        MOV     ?V0,?V3
        LCALL   ?Subroutine38 & 0xFFFF
??CrossCallReturnLabel_75:
        RET
          CFI (cfiCond27) CFA_SP SP+0
          CFI (cfiCond28) CFA_SP SP+0
          CFI (cfiPicker29) CFA_SP SP+0
          CFI EndBlock cfiCond27
          CFI EndBlock cfiCond28
          CFI EndBlock cfiPicker29

        RSEG BANKED_CODE:CODE:NOROOT(0)
?Subroutine21:
          CFI Block cfiCond30 Using cfiCommon0
          CFI Function MT_ZdoMatchDescRequest
          CFI Conditional ??CrossCallReturnLabel_32
          CFI R6 load(1, XDATA, add(CFA_XSP16, literal(-14)))
          CFI VB load(1, XDATA, add(CFA_XSP16, literal(-13)))
          CFI V0 load(1, XDATA, add(CFA_XSP16, literal(-12)))
          CFI V1 load(1, XDATA, add(CFA_XSP16, literal(-11)))
          CFI V2 load(1, XDATA, add(CFA_XSP16, literal(-10)))
          CFI V3 load(1, XDATA, add(CFA_XSP16, literal(-9)))
          CFI V4 load(1, XDATA, add(CFA_XSP16, literal(-8)))
          CFI V5 load(1, XDATA, add(CFA_XSP16, literal(-7)))
          CFI R7 load(1, XDATA, add(CFA_XSP16, literal(-6)))
          CFI ?RET_LOW load(1, XDATA, add(CFA_XSP16, literal(-5)))
          CFI ?RET_HIGH load(1, XDATA, add(CFA_XSP16, literal(-4)))
          CFI ?BRET_EXT load(1, XDATA, add(CFA_XSP16, literal(-3)))
          CFI DPL0 load(1, XDATA, add(CFA_XSP16, literal(-2)))
          CFI DPH0 load(1, XDATA, add(CFA_XSP16, literal(-1)))
          CFI CFA_SP SP+-2
          CFI CFA_XSP16 add(XSP16, 88)
          CFI Block cfiCond31 Using cfiCommon0
          CFI (cfiCond31) Function MT_ZdoMatchDescRequest
          CFI (cfiCond31) Conditional ??CrossCallReturnLabel_33
          CFI (cfiCond31) R6 load(1, XDATA, add(CFA_XSP16, literal(-14)))
          CFI (cfiCond31) VB load(1, XDATA, add(CFA_XSP16, literal(-13)))
          CFI (cfiCond31) V0 load(1, XDATA, add(CFA_XSP16, literal(-12)))
          CFI (cfiCond31) V1 load(1, XDATA, add(CFA_XSP16, literal(-11)))
          CFI (cfiCond31) V2 load(1, XDATA, add(CFA_XSP16, literal(-10)))
          CFI (cfiCond31) V3 load(1, XDATA, add(CFA_XSP16, literal(-9)))
          CFI (cfiCond31) V4 load(1, XDATA, add(CFA_XSP16, literal(-8)))
          CFI (cfiCond31) V5 load(1, XDATA, add(CFA_XSP16, literal(-7)))
          CFI (cfiCond31) R7 load(1, XDATA, add(CFA_XSP16, literal(-6)))
          CFI (cfiCond31) ?RET_LOW load(1, XDATA, add(CFA_XSP16, literal(-5)))
          CFI (cfiCond31) ?RET_HIGH load(1, XDATA, add(CFA_XSP16, literal(-4)))
          CFI (cfiCond31) ?BRET_EXT load(1, XDATA, add(CFA_XSP16, literal(-3)))
          CFI (cfiCond31) DPL0 load(1, XDATA, add(CFA_XSP16, literal(-2)))
          CFI (cfiCond31) DPH0 load(1, XDATA, add(CFA_XSP16, literal(-1)))
          CFI (cfiCond31) CFA_SP SP+-2
          CFI (cfiCond31) CFA_XSP16 add(XSP16, 88)
          CFI Block cfiPicker32 Using cfiCommon1
          CFI (cfiPicker32) NoFunction
          CFI (cfiPicker32) Picker
        LCALL   ?Subroutine34 & 0xFFFF
??CrossCallReturnLabel_66:
        MOV     A,R0
        ADD     A,#0x2
        MOV     R0,A
        RET
          CFI (cfiCond30) CFA_SP SP+0
          CFI (cfiCond31) CFA_SP SP+0
          CFI (cfiPicker32) CFA_SP SP+0
          CFI EndBlock cfiCond30
          CFI EndBlock cfiCond31
          CFI EndBlock cfiPicker32

        RSEG BANKED_CODE:CODE:NOROOT(0)
?Subroutine15:
          CFI Block cfiCond33 Using cfiCommon0
          CFI Function MT_ZdoIEEEAddrRequest
          CFI Conditional ??CrossCallReturnLabel_19
          CFI R6 load(1, XDATA, add(CFA_XSP16, literal(-10)))
          CFI VB load(1, XDATA, add(CFA_XSP16, literal(-9)))
          CFI V0 load(1, XDATA, add(CFA_XSP16, literal(-8)))
          CFI V1 load(1, XDATA, add(CFA_XSP16, literal(-7)))
          CFI R7 load(1, XDATA, add(CFA_XSP16, literal(-6)))
          CFI ?RET_LOW load(1, XDATA, add(CFA_XSP16, literal(-5)))
          CFI ?RET_HIGH load(1, XDATA, add(CFA_XSP16, literal(-4)))
          CFI ?BRET_EXT load(1, XDATA, add(CFA_XSP16, literal(-3)))
          CFI DPL0 load(1, XDATA, add(CFA_XSP16, literal(-2)))
          CFI DPH0 load(1, XDATA, add(CFA_XSP16, literal(-1)))
          CFI CFA_SP SP+-2
          CFI CFA_XSP16 add(XSP16, 11)
          CFI Block cfiCond34 Using cfiCommon0
          CFI (cfiCond34) Function MT_ZdoMatchDescRequest
          CFI (cfiCond34) Conditional ??CrossCallReturnLabel_20
          CFI (cfiCond34) R6 load(1, XDATA, add(CFA_XSP16, literal(-14)))
          CFI (cfiCond34) VB load(1, XDATA, add(CFA_XSP16, literal(-13)))
          CFI (cfiCond34) V0 load(1, XDATA, add(CFA_XSP16, literal(-12)))
          CFI (cfiCond34) V1 load(1, XDATA, add(CFA_XSP16, literal(-11)))
          CFI (cfiCond34) V2 load(1, XDATA, add(CFA_XSP16, literal(-10)))
          CFI (cfiCond34) V3 load(1, XDATA, add(CFA_XSP16, literal(-9)))
          CFI (cfiCond34) V4 load(1, XDATA, add(CFA_XSP16, literal(-8)))
          CFI (cfiCond34) V5 load(1, XDATA, add(CFA_XSP16, literal(-7)))
          CFI (cfiCond34) R7 load(1, XDATA, add(CFA_XSP16, literal(-6)))
          CFI (cfiCond34) ?RET_LOW load(1, XDATA, add(CFA_XSP16, literal(-5)))
          CFI (cfiCond34) ?RET_HIGH load(1, XDATA, add(CFA_XSP16, literal(-4)))
          CFI (cfiCond34) ?BRET_EXT load(1, XDATA, add(CFA_XSP16, literal(-3)))
          CFI (cfiCond34) DPL0 load(1, XDATA, add(CFA_XSP16, literal(-2)))
          CFI (cfiCond34) DPH0 load(1, XDATA, add(CFA_XSP16, literal(-1)))
          CFI (cfiCond34) CFA_SP SP+-2
          CFI (cfiCond34) CFA_XSP16 add(XSP16, 88)
          CFI Block cfiCond35 Using cfiCommon0
          CFI (cfiCond35) Function MT_ZdoEndDevBindRequest
          CFI (cfiCond35) Conditional ??CrossCallReturnLabel_21
          CFI (cfiCond35) R6 load(1, XDATA, add(CFA_XSP16, literal(-15)))
          CFI (cfiCond35) VB load(1, XDATA, add(CFA_XSP16, literal(-14)))
          CFI (cfiCond35) V0 load(1, XDATA, add(CFA_XSP16, literal(-13)))
          CFI (cfiCond35) V1 load(1, XDATA, add(CFA_XSP16, literal(-12)))
          CFI (cfiCond35) V2 load(1, XDATA, add(CFA_XSP16, literal(-11)))
          CFI (cfiCond35) V3 load(1, XDATA, add(CFA_XSP16, literal(-10)))
          CFI (cfiCond35) V4 load(1, XDATA, add(CFA_XSP16, literal(-9)))
          CFI (cfiCond35) V5 load(1, XDATA, add(CFA_XSP16, literal(-8)))
          CFI (cfiCond35) V6 load(1, XDATA, add(CFA_XSP16, literal(-7)))
          CFI (cfiCond35) R7 load(1, XDATA, add(CFA_XSP16, literal(-6)))
          CFI (cfiCond35) ?RET_LOW load(1, XDATA, add(CFA_XSP16, literal(-5)))
          CFI (cfiCond35) ?RET_HIGH load(1, XDATA, add(CFA_XSP16, literal(-4)))
          CFI (cfiCond35) ?BRET_EXT load(1, XDATA, add(CFA_XSP16, literal(-3)))
          CFI (cfiCond35) DPL0 load(1, XDATA, add(CFA_XSP16, literal(-2)))
          CFI (cfiCond35) DPH0 load(1, XDATA, add(CFA_XSP16, literal(-1)))
          CFI (cfiCond35) CFA_SP SP+-2
          CFI (cfiCond35) CFA_XSP16 add(XSP16, 85)
          CFI Block cfiPicker36 Using cfiCommon1
          CFI (cfiPicker36) NoFunction
          CFI (cfiPicker36) Picker
        LCALL   ?Subroutine39 & 0xFFFF
??CrossCallReturnLabel_78:
        MOV     R3,A
        MOV     R2,?V0
        RET
          CFI (cfiCond33) CFA_SP SP+0
          CFI (cfiCond34) CFA_SP SP+0
          CFI (cfiCond35) CFA_SP SP+0
          CFI (cfiPicker36) CFA_SP SP+0
          CFI EndBlock cfiCond33
          CFI EndBlock cfiCond34
          CFI EndBlock cfiCond35
          CFI EndBlock cfiPicker36

        RSEG BANKED_CODE:CODE:NOROOT(0)
?Subroutine14:
          CFI Block cfiCond37 Using cfiCommon0
          CFI Function MT_ZdoNodeDescRequest
          CFI Conditional ??CrossCallReturnLabel_17
          CFI R6 load(1, XDATA, add(CFA_XSP16, literal(-9)))
          CFI VB load(1, XDATA, add(CFA_XSP16, literal(-8)))
          CFI V0 load(1, XDATA, add(CFA_XSP16, literal(-7)))
          CFI R7 load(1, XDATA, add(CFA_XSP16, literal(-6)))
          CFI ?RET_LOW load(1, XDATA, add(CFA_XSP16, literal(-5)))
          CFI ?RET_HIGH load(1, XDATA, add(CFA_XSP16, literal(-4)))
          CFI ?BRET_EXT load(1, XDATA, add(CFA_XSP16, literal(-3)))
          CFI DPL0 load(1, XDATA, add(CFA_XSP16, literal(-2)))
          CFI DPH0 load(1, XDATA, add(CFA_XSP16, literal(-1)))
          CFI CFA_SP SP+-2
          CFI CFA_XSP16 add(XSP16, 20)
          CFI Block cfiCond38 Using cfiCommon0
          CFI (cfiCond38) Function MT_ZdoMatchDescRequest
          CFI (cfiCond38) Conditional ??CrossCallReturnLabel_18
          CFI (cfiCond38) R6 load(1, XDATA, add(CFA_XSP16, literal(-14)))
          CFI (cfiCond38) VB load(1, XDATA, add(CFA_XSP16, literal(-13)))
          CFI (cfiCond38) V0 load(1, XDATA, add(CFA_XSP16, literal(-12)))
          CFI (cfiCond38) V1 load(1, XDATA, add(CFA_XSP16, literal(-11)))
          CFI (cfiCond38) V2 load(1, XDATA, add(CFA_XSP16, literal(-10)))
          CFI (cfiCond38) V3 load(1, XDATA, add(CFA_XSP16, literal(-9)))
          CFI (cfiCond38) V4 load(1, XDATA, add(CFA_XSP16, literal(-8)))
          CFI (cfiCond38) V5 load(1, XDATA, add(CFA_XSP16, literal(-7)))
          CFI (cfiCond38) R7 load(1, XDATA, add(CFA_XSP16, literal(-6)))
          CFI (cfiCond38) ?RET_LOW load(1, XDATA, add(CFA_XSP16, literal(-5)))
          CFI (cfiCond38) ?RET_HIGH load(1, XDATA, add(CFA_XSP16, literal(-4)))
          CFI (cfiCond38) ?BRET_EXT load(1, XDATA, add(CFA_XSP16, literal(-3)))
          CFI (cfiCond38) DPL0 load(1, XDATA, add(CFA_XSP16, literal(-2)))
          CFI (cfiCond38) DPH0 load(1, XDATA, add(CFA_XSP16, literal(-1)))
          CFI (cfiCond38) CFA_SP SP+-2
          CFI (cfiCond38) CFA_XSP16 add(XSP16, 88)
          CFI Block cfiPicker39 Using cfiCommon1
          CFI (cfiPicker39) NoFunction
          CFI (cfiPicker39) Picker
        LCALL   ?Subroutine32 & 0xFFFF
??CrossCallReturnLabel_63:
        RET
          CFI (cfiCond37) CFA_SP SP+0
          CFI (cfiCond38) CFA_SP SP+0
          CFI (cfiPicker39) CFA_SP SP+0
          CFI EndBlock cfiCond37
          CFI EndBlock cfiCond38
          CFI EndBlock cfiPicker39

        RSEG BANKED_CODE:CODE:NOROOT(0)
?Subroutine32:
          CFI Block cfiCond40 Using cfiCommon0
          CFI Function MT_ZdoNodeDescRequest
          CFI Conditional ??CrossCallReturnLabel_63, ??CrossCallReturnLabel_17
          CFI R6 load(1, XDATA, add(CFA_XSP16, literal(-9)))
          CFI VB load(1, XDATA, add(CFA_XSP16, literal(-8)))
          CFI V0 load(1, XDATA, add(CFA_XSP16, literal(-7)))
          CFI R7 load(1, XDATA, add(CFA_XSP16, literal(-6)))
          CFI ?RET_LOW load(1, XDATA, add(CFA_XSP16, literal(-5)))
          CFI ?RET_HIGH load(1, XDATA, add(CFA_XSP16, literal(-4)))
          CFI ?BRET_EXT load(1, XDATA, add(CFA_XSP16, literal(-3)))
          CFI DPL0 load(1, XDATA, add(CFA_XSP16, literal(-2)))
          CFI DPH0 load(1, XDATA, add(CFA_XSP16, literal(-1)))
          CFI CFA_SP SP+-4
          CFI CFA_XSP16 add(XSP16, 20)
          CFI Block cfiCond41 Using cfiCommon0
          CFI (cfiCond41) Function MT_ZdoMatchDescRequest
          CFI (cfiCond41) Conditional ??CrossCallReturnLabel_63, ??CrossCallReturnLabel_18
          CFI (cfiCond41) R6 load(1, XDATA, add(CFA_XSP16, literal(-14)))
          CFI (cfiCond41) VB load(1, XDATA, add(CFA_XSP16, literal(-13)))
          CFI (cfiCond41) V0 load(1, XDATA, add(CFA_XSP16, literal(-12)))
          CFI (cfiCond41) V1 load(1, XDATA, add(CFA_XSP16, literal(-11)))
          CFI (cfiCond41) V2 load(1, XDATA, add(CFA_XSP16, literal(-10)))
          CFI (cfiCond41) V3 load(1, XDATA, add(CFA_XSP16, literal(-9)))
          CFI (cfiCond41) V4 load(1, XDATA, add(CFA_XSP16, literal(-8)))
          CFI (cfiCond41) V5 load(1, XDATA, add(CFA_XSP16, literal(-7)))
          CFI (cfiCond41) R7 load(1, XDATA, add(CFA_XSP16, literal(-6)))
          CFI (cfiCond41) ?RET_LOW load(1, XDATA, add(CFA_XSP16, literal(-5)))
          CFI (cfiCond41) ?RET_HIGH load(1, XDATA, add(CFA_XSP16, literal(-4)))
          CFI (cfiCond41) ?BRET_EXT load(1, XDATA, add(CFA_XSP16, literal(-3)))
          CFI (cfiCond41) DPL0 load(1, XDATA, add(CFA_XSP16, literal(-2)))
          CFI (cfiCond41) DPH0 load(1, XDATA, add(CFA_XSP16, literal(-1)))
          CFI (cfiCond41) CFA_SP SP+-4
          CFI (cfiCond41) CFA_XSP16 add(XSP16, 88)
          CFI Block cfiCond42 Using cfiCommon0
          CFI (cfiCond42) Function MT_ZdoSimpleDescRequest
          CFI (cfiCond42) Conditional ??CrossCallReturnLabel_62, ??CrossCallReturnLabel_15
          CFI (cfiCond42) R6 load(1, XDATA, add(CFA_XSP16, literal(-9)))
          CFI (cfiCond42) VB load(1, XDATA, add(CFA_XSP16, literal(-8)))
          CFI (cfiCond42) V0 load(1, XDATA, add(CFA_XSP16, literal(-7)))
          CFI (cfiCond42) R7 load(1, XDATA, add(CFA_XSP16, literal(-6)))
          CFI (cfiCond42) ?RET_LOW load(1, XDATA, add(CFA_XSP16, literal(-5)))
          CFI (cfiCond42) ?RET_HIGH load(1, XDATA, add(CFA_XSP16, literal(-4)))
          CFI (cfiCond42) ?BRET_EXT load(1, XDATA, add(CFA_XSP16, literal(-3)))
          CFI (cfiCond42) DPL0 load(1, XDATA, add(CFA_XSP16, literal(-2)))
          CFI (cfiCond42) DPH0 load(1, XDATA, add(CFA_XSP16, literal(-1)))
          CFI (cfiCond42) CFA_SP SP+-4
          CFI (cfiCond42) CFA_XSP16 add(XSP16, 20)
          CFI Block cfiCond43 Using cfiCommon0
          CFI (cfiCond43) Function MT_ZdoPowerDescRequest
          CFI (cfiCond43) Conditional ??CrossCallReturnLabel_62, ??CrossCallReturnLabel_16
          CFI (cfiCond43) R6 load(1, XDATA, add(CFA_XSP16, literal(-9)))
          CFI (cfiCond43) VB load(1, XDATA, add(CFA_XSP16, literal(-8)))
          CFI (cfiCond43) V0 load(1, XDATA, add(CFA_XSP16, literal(-7)))
          CFI (cfiCond43) R7 load(1, XDATA, add(CFA_XSP16, literal(-6)))
          CFI (cfiCond43) ?RET_LOW load(1, XDATA, add(CFA_XSP16, literal(-5)))
          CFI (cfiCond43) ?RET_HIGH load(1, XDATA, add(CFA_XSP16, literal(-4)))
          CFI (cfiCond43) ?BRET_EXT load(1, XDATA, add(CFA_XSP16, literal(-3)))
          CFI (cfiCond43) DPL0 load(1, XDATA, add(CFA_XSP16, literal(-2)))
          CFI (cfiCond43) DPH0 load(1, XDATA, add(CFA_XSP16, literal(-1)))
          CFI (cfiCond43) CFA_SP SP+-4
          CFI (cfiCond43) CFA_XSP16 add(XSP16, 20)
          CFI Block cfiCond44 Using cfiCommon0
          CFI (cfiCond44) Function MT_ZdoActiveEpRequest
          CFI (cfiCond44) Conditional ??CrossCallReturnLabel_62, ??CrossCallReturnLabel_16
          CFI (cfiCond44) R6 load(1, XDATA, add(CFA_XSP16, literal(-9)))
          CFI (cfiCond44) VB load(1, XDATA, add(CFA_XSP16, literal(-8)))
          CFI (cfiCond44) V0 load(1, XDATA, add(CFA_XSP16, literal(-7)))
          CFI (cfiCond44) R7 load(1, XDATA, add(CFA_XSP16, literal(-6)))
          CFI (cfiCond44) ?RET_LOW load(1, XDATA, add(CFA_XSP16, literal(-5)))
          CFI (cfiCond44) ?RET_HIGH load(1, XDATA, add(CFA_XSP16, literal(-4)))
          CFI (cfiCond44) ?BRET_EXT load(1, XDATA, add(CFA_XSP16, literal(-3)))
          CFI (cfiCond44) DPL0 load(1, XDATA, add(CFA_XSP16, literal(-2)))
          CFI (cfiCond44) DPH0 load(1, XDATA, add(CFA_XSP16, literal(-1)))
          CFI (cfiCond44) CFA_SP SP+-4
          CFI (cfiCond44) CFA_XSP16 add(XSP16, 20)
          CFI Block cfiCond45 Using cfiCommon0
          CFI (cfiCond45) Function MT_ZdoComplexDescRequest
          CFI (cfiCond45) Conditional ??CrossCallReturnLabel_62, ??CrossCallReturnLabel_16
          CFI (cfiCond45) R6 load(1, XDATA, add(CFA_XSP16, literal(-9)))
          CFI (cfiCond45) VB load(1, XDATA, add(CFA_XSP16, literal(-8)))
          CFI (cfiCond45) V0 load(1, XDATA, add(CFA_XSP16, literal(-7)))
          CFI (cfiCond45) R7 load(1, XDATA, add(CFA_XSP16, literal(-6)))
          CFI (cfiCond45) ?RET_LOW load(1, XDATA, add(CFA_XSP16, literal(-5)))
          CFI (cfiCond45) ?RET_HIGH load(1, XDATA, add(CFA_XSP16, literal(-4)))
          CFI (cfiCond45) ?BRET_EXT load(1, XDATA, add(CFA_XSP16, literal(-3)))
          CFI (cfiCond45) DPL0 load(1, XDATA, add(CFA_XSP16, literal(-2)))
          CFI (cfiCond45) DPH0 load(1, XDATA, add(CFA_XSP16, literal(-1)))
          CFI (cfiCond45) CFA_SP SP+-4
          CFI (cfiCond45) CFA_XSP16 add(XSP16, 20)
          CFI Block cfiCond46 Using cfiCommon0
          CFI (cfiCond46) Function MT_ZdoUserDescRequest
          CFI (cfiCond46) Conditional ??CrossCallReturnLabel_62, ??CrossCallReturnLabel_16
          CFI (cfiCond46) R6 load(1, XDATA, add(CFA_XSP16, literal(-9)))
          CFI (cfiCond46) VB load(1, XDATA, add(CFA_XSP16, literal(-8)))
          CFI (cfiCond46) V0 load(1, XDATA, add(CFA_XSP16, literal(-7)))
          CFI (cfiCond46) R7 load(1, XDATA, add(CFA_XSP16, literal(-6)))
          CFI (cfiCond46) ?RET_LOW load(1, XDATA, add(CFA_XSP16, literal(-5)))
          CFI (cfiCond46) ?RET_HIGH load(1, XDATA, add(CFA_XSP16, literal(-4)))
          CFI (cfiCond46) ?BRET_EXT load(1, XDATA, add(CFA_XSP16, literal(-3)))
          CFI (cfiCond46) DPL0 load(1, XDATA, add(CFA_XSP16, literal(-2)))
          CFI (cfiCond46) DPH0 load(1, XDATA, add(CFA_XSP16, literal(-1)))
          CFI (cfiCond46) CFA_SP SP+-4
          CFI (cfiCond46) CFA_XSP16 add(XSP16, 20)
          CFI Block cfiPicker47 Using cfiCommon1
          CFI (cfiPicker47) NoFunction
          CFI (cfiPicker47) Picker
        MOVX    A,@DPTR
        MOV     R4,A
        INC     DPTR
        MOVX    A,@DPTR
        MOV     R2,A
        CLR     A
        XCH     A,R2
        MOV     R3,A
        MOV     A,R4
        ADD     A,R2
        CLR     A
        ADDC    A,R3
        MOV     R5,A
        RET
          CFI (cfiCond40) CFA_SP SP+-2
          CFI (cfiCond41) CFA_SP SP+-2
          CFI (cfiCond42) CFA_SP SP+-2
          CFI (cfiCond43) CFA_SP SP+-2
          CFI (cfiCond44) CFA_SP SP+-2
          CFI (cfiCond45) CFA_SP SP+-2
          CFI (cfiCond46) CFA_SP SP+-2
          CFI (cfiPicker47) CFA_SP SP+0
          CFI EndBlock cfiCond40
          CFI EndBlock cfiCond41
          CFI EndBlock cfiCond42
          CFI EndBlock cfiCond43
          CFI EndBlock cfiCond44
          CFI EndBlock cfiCond45
          CFI EndBlock cfiCond46
          CFI EndBlock cfiPicker47
//  635 
//  636 /***************************************************************************************************
//  637  * @fn      MT_ZdoComplexDescRequest
//  638  *
//  639  * @brief   Handle a Complex Descriptor request.
//  640  *
//  641  * @param   pBuf  - MT message data
//  642  *
//  643  * @return  void
//  644  ***************************************************************************************************/

        RSEG BANKED_CODE:CODE:NOROOT(0)
//  645 void MT_ZdoComplexDescRequest(uint8 *pBuf)
MT_ZdoComplexDescRequest:
          CFI Block cfiBlock48 Using cfiCommon0
          CFI Function MT_ZdoComplexDescRequest
        CODE
//  646 {
        FUNCALL MT_ZdoComplexDescRequest, ZDP_NWKAddrOfInterestReq
        LOCFRAME ISTACK, 0, STACK
        LOCFRAME PSTACK, 0, STACK
        LOCFRAME XSTACK, 20, STACK
        LOCFRAME IOVERLAY, 0, STATIC
        LOCFRAME DOVERLAY, 0, STATIC
        ARGFRAME ISTACK, 0, STACK
        ARGFRAME PSTACK, 0, STACK
        ARGFRAME XSTACK, 20, STACK
        ARGFRAME IOVERLAY, 0, STATIC
        ARGFRAME DOVERLAY, 0, STATIC
        FUNCALL MT_ZdoComplexDescRequest, MT_BuildAndSendZToolResponse
        LOCFRAME ISTACK, 0, STACK
        LOCFRAME PSTACK, 0, STACK
        LOCFRAME XSTACK, 19, STACK
        LOCFRAME IOVERLAY, 0, STATIC
        LOCFRAME DOVERLAY, 0, STATIC
        ARGFRAME ISTACK, 0, STACK
        ARGFRAME PSTACK, 0, STACK
        ARGFRAME XSTACK, 19, STACK
        ARGFRAME IOVERLAY, 0, STATIC
        ARGFRAME DOVERLAY, 0, STATIC
        REQUIRE ?V0
        MOV     A,#-0x9
        LCALL   ?BANKED_ENTER_XDATA
          CFI DPH0 load(1, XDATA, add(CFA_XSP16, literal(-1)))
          CFI DPL0 load(1, XDATA, add(CFA_XSP16, literal(-2)))
          CFI ?BRET_EXT load(1, XDATA, add(CFA_XSP16, literal(-3)))
          CFI ?RET_HIGH load(1, XDATA, add(CFA_XSP16, literal(-4)))
          CFI ?RET_LOW load(1, XDATA, add(CFA_XSP16, literal(-5)))
          CFI R7 load(1, XDATA, add(CFA_XSP16, literal(-6)))
          CFI V0 load(1, XDATA, add(CFA_XSP16, literal(-7)))
          CFI VB load(1, XDATA, add(CFA_XSP16, literal(-8)))
          CFI R6 load(1, XDATA, add(CFA_XSP16, literal(-9)))
          CFI CFA_SP SP+0
          CFI CFA_XSP16 add(XSP16, 9)
        ; Saved register size: 9
        ; Auto size: 10
        MOV     A,#-0xa
        LCALL   ?ALLOC_XSTACK8
          CFI CFA_XSP16 add(XSP16, 19)
//  647   uint8 cmdId;
//  648   uint8 retValue;
//  649   zAddrType_t destAddr;
//  650   uint16 shortAddr;
//  651 
//  652   /* parse header */
//  653   cmdId = pBuf[MT_RPC_POS_CMD1];
        LCALL   ??Subroutine41_0 & 0xFFFF
//  654   pBuf += MT_RPC_FRAME_HDR_SZ;
??CrossCallReturnLabel_90:
        JNC     ??MT_ZdoComplexDescRequest_0
        INC     R3
//  655 
//  656   /* Dev address */
//  657   destAddr.addrMode = Addr16Bit;
??MT_ZdoComplexDescRequest_0:
        MOV     A,#0x9
        LCALL   ?XSTACK_DISP0_8
        LCALL   ?Subroutine6 & 0xFFFF
//  658   destAddr.addr.shortAddr = BUILD_UINT16( pBuf[0], pBuf[1] );
??CrossCallReturnLabel_4:
        LCALL   ?XSTACK_DISP0_8
        LCALL   ?Subroutine25 & 0xFFFF
//  659   pBuf += 2;
??CrossCallReturnLabel_45:
        JNC     ??MT_ZdoComplexDescRequest_1
        INC     R3
//  660 
//  661   /* Network address of interest */
//  662   shortAddr = BUILD_UINT16( pBuf[0], pBuf[1] );
//  663   pBuf += 2;
//  664 
//  665   retValue = (uint8)ZDP_ComplexDescReq( &destAddr, shortAddr, 0);
??MT_ZdoComplexDescRequest_1:
        ; Setup parameters for call to function ZDP_NWKAddrOfInterestReq
        MOV     ?V0,#0x0
        MOV     R0,#?V0
        LCALL   ?PUSH_XSTACK_I_ONE
          CFI CFA_XSP16 add(XSP16, 20)
        MOV     R1,#0x10
        LJMP    ?Subroutine0 & 0xFFFF
//  666 
//  667   MT_BuildAndSendZToolResponse(((uint8)MT_RPC_CMD_SRSP | (uint8)MT_RPC_SYS_ZDO), cmdId, 1, &retValue);
//  668 }
          CFI EndBlock cfiBlock48

        RSEG BANKED_CODE:CODE:NOROOT(0)
?Subroutine8:
          CFI Block cfiCond49 Using cfiCommon0
          CFI Function MT_ZdoRegisterForZDOMsg
          CFI Conditional ??CrossCallReturnLabel_83
          CFI R6 load(1, XDATA, add(CFA_XSP16, literal(-9)))
          CFI VB load(1, XDATA, add(CFA_XSP16, literal(-8)))
          CFI V0 load(1, XDATA, add(CFA_XSP16, literal(-7)))
          CFI R7 load(1, XDATA, add(CFA_XSP16, literal(-6)))
          CFI ?RET_LOW load(1, XDATA, add(CFA_XSP16, literal(-5)))
          CFI ?RET_HIGH load(1, XDATA, add(CFA_XSP16, literal(-4)))
          CFI ?BRET_EXT load(1, XDATA, add(CFA_XSP16, literal(-3)))
          CFI DPL0 load(1, XDATA, add(CFA_XSP16, literal(-2)))
          CFI DPH0 load(1, XDATA, add(CFA_XSP16, literal(-1)))
          CFI CFA_SP SP+-2
          CFI CFA_XSP16 add(XSP16, 10)
          CFI Block cfiCond50 Using cfiCommon0
          CFI (cfiCond50) Function MT_ZdoRemoveRegisteredCB
          CFI (cfiCond50) Conditional ??CrossCallReturnLabel_84
          CFI (cfiCond50) R6 load(1, XDATA, add(CFA_XSP16, literal(-9)))
          CFI (cfiCond50) VB load(1, XDATA, add(CFA_XSP16, literal(-8)))
          CFI (cfiCond50) V0 load(1, XDATA, add(CFA_XSP16, literal(-7)))
          CFI (cfiCond50) R7 load(1, XDATA, add(CFA_XSP16, literal(-6)))
          CFI (cfiCond50) ?RET_LOW load(1, XDATA, add(CFA_XSP16, literal(-5)))
          CFI (cfiCond50) ?RET_HIGH load(1, XDATA, add(CFA_XSP16, literal(-4)))
          CFI (cfiCond50) ?BRET_EXT load(1, XDATA, add(CFA_XSP16, literal(-3)))
          CFI (cfiCond50) DPL0 load(1, XDATA, add(CFA_XSP16, literal(-2)))
          CFI (cfiCond50) DPH0 load(1, XDATA, add(CFA_XSP16, literal(-1)))
          CFI (cfiCond50) CFA_SP SP+-2
          CFI (cfiCond50) CFA_XSP16 add(XSP16, 10)
          CFI Block cfiPicker51 Using cfiCommon1
          CFI (cfiPicker51) NoFunction
          CFI (cfiPicker51) Picker
        MOV     DPL,R2
        MOV     DPH,R3
        INC     DPTR
        MOVX    A,@DPTR
        MOV     R7,A
          CFI EndBlock cfiCond49
          CFI EndBlock cfiCond50
          CFI EndBlock cfiPicker51
        REQUIRE ??Subroutine41_0
        ; // Fall through to label ??Subroutine41_0

        RSEG BANKED_CODE:CODE:NOROOT(0)
??Subroutine41_0:
          CFI Block cfiCond52 Using cfiCommon0
          CFI Function MT_ZdoIEEEAddrRequest
          CFI Conditional ??CrossCallReturnLabel_85
          CFI R6 load(1, XDATA, add(CFA_XSP16, literal(-10)))
          CFI VB load(1, XDATA, add(CFA_XSP16, literal(-9)))
          CFI V0 load(1, XDATA, add(CFA_XSP16, literal(-8)))
          CFI V1 load(1, XDATA, add(CFA_XSP16, literal(-7)))
          CFI R7 load(1, XDATA, add(CFA_XSP16, literal(-6)))
          CFI ?RET_LOW load(1, XDATA, add(CFA_XSP16, literal(-5)))
          CFI ?RET_HIGH load(1, XDATA, add(CFA_XSP16, literal(-4)))
          CFI ?BRET_EXT load(1, XDATA, add(CFA_XSP16, literal(-3)))
          CFI DPL0 load(1, XDATA, add(CFA_XSP16, literal(-2)))
          CFI DPH0 load(1, XDATA, add(CFA_XSP16, literal(-1)))
          CFI CFA_SP SP+-2
          CFI CFA_XSP16 add(XSP16, 11)
          CFI Block cfiCond53 Using cfiCommon0
          CFI (cfiCond53) Function MT_ZdoNodeDescRequest
          CFI (cfiCond53) Conditional ??CrossCallReturnLabel_86
          CFI (cfiCond53) R6 load(1, XDATA, add(CFA_XSP16, literal(-9)))
          CFI (cfiCond53) VB load(1, XDATA, add(CFA_XSP16, literal(-8)))
          CFI (cfiCond53) V0 load(1, XDATA, add(CFA_XSP16, literal(-7)))
          CFI (cfiCond53) R7 load(1, XDATA, add(CFA_XSP16, literal(-6)))
          CFI (cfiCond53) ?RET_LOW load(1, XDATA, add(CFA_XSP16, literal(-5)))
          CFI (cfiCond53) ?RET_HIGH load(1, XDATA, add(CFA_XSP16, literal(-4)))
          CFI (cfiCond53) ?BRET_EXT load(1, XDATA, add(CFA_XSP16, literal(-3)))
          CFI (cfiCond53) DPL0 load(1, XDATA, add(CFA_XSP16, literal(-2)))
          CFI (cfiCond53) DPH0 load(1, XDATA, add(CFA_XSP16, literal(-1)))
          CFI (cfiCond53) CFA_SP SP+-2
          CFI (cfiCond53) CFA_XSP16 add(XSP16, 19)
          CFI Block cfiCond54 Using cfiCommon0
          CFI (cfiCond54) Function MT_ZdoPowerDescRequest
          CFI (cfiCond54) Conditional ??CrossCallReturnLabel_87
          CFI (cfiCond54) R6 load(1, XDATA, add(CFA_XSP16, literal(-9)))
          CFI (cfiCond54) VB load(1, XDATA, add(CFA_XSP16, literal(-8)))
          CFI (cfiCond54) V0 load(1, XDATA, add(CFA_XSP16, literal(-7)))
          CFI (cfiCond54) R7 load(1, XDATA, add(CFA_XSP16, literal(-6)))
          CFI (cfiCond54) ?RET_LOW load(1, XDATA, add(CFA_XSP16, literal(-5)))
          CFI (cfiCond54) ?RET_HIGH load(1, XDATA, add(CFA_XSP16, literal(-4)))
          CFI (cfiCond54) ?BRET_EXT load(1, XDATA, add(CFA_XSP16, literal(-3)))
          CFI (cfiCond54) DPL0 load(1, XDATA, add(CFA_XSP16, literal(-2)))
          CFI (cfiCond54) DPH0 load(1, XDATA, add(CFA_XSP16, literal(-1)))
          CFI (cfiCond54) CFA_SP SP+-2
          CFI (cfiCond54) CFA_XSP16 add(XSP16, 19)
          CFI Block cfiCond55 Using cfiCommon0
          CFI (cfiCond55) Function MT_ZdoSimpleDescRequest
          CFI (cfiCond55) Conditional ??CrossCallReturnLabel_88
          CFI (cfiCond55) R6 load(1, XDATA, add(CFA_XSP16, literal(-9)))
          CFI (cfiCond55) VB load(1, XDATA, add(CFA_XSP16, literal(-8)))
          CFI (cfiCond55) V0 load(1, XDATA, add(CFA_XSP16, literal(-7)))
          CFI (cfiCond55) R7 load(1, XDATA, add(CFA_XSP16, literal(-6)))
          CFI (cfiCond55) ?RET_LOW load(1, XDATA, add(CFA_XSP16, literal(-5)))
          CFI (cfiCond55) ?RET_HIGH load(1, XDATA, add(CFA_XSP16, literal(-4)))
          CFI (cfiCond55) ?BRET_EXT load(1, XDATA, add(CFA_XSP16, literal(-3)))
          CFI (cfiCond55) DPL0 load(1, XDATA, add(CFA_XSP16, literal(-2)))
          CFI (cfiCond55) DPH0 load(1, XDATA, add(CFA_XSP16, literal(-1)))
          CFI (cfiCond55) CFA_SP SP+-2
          CFI (cfiCond55) CFA_XSP16 add(XSP16, 19)
          CFI Block cfiCond56 Using cfiCommon0
          CFI (cfiCond56) Function MT_ZdoActiveEpRequest
          CFI (cfiCond56) Conditional ??CrossCallReturnLabel_89
          CFI (cfiCond56) R6 load(1, XDATA, add(CFA_XSP16, literal(-9)))
          CFI (cfiCond56) VB load(1, XDATA, add(CFA_XSP16, literal(-8)))
          CFI (cfiCond56) V0 load(1, XDATA, add(CFA_XSP16, literal(-7)))
          CFI (cfiCond56) R7 load(1, XDATA, add(CFA_XSP16, literal(-6)))
          CFI (cfiCond56) ?RET_LOW load(1, XDATA, add(CFA_XSP16, literal(-5)))
          CFI (cfiCond56) ?RET_HIGH load(1, XDATA, add(CFA_XSP16, literal(-4)))
          CFI (cfiCond56) ?BRET_EXT load(1, XDATA, add(CFA_XSP16, literal(-3)))
          CFI (cfiCond56) DPL0 load(1, XDATA, add(CFA_XSP16, literal(-2)))
          CFI (cfiCond56) DPH0 load(1, XDATA, add(CFA_XSP16, literal(-1)))
          CFI (cfiCond56) CFA_SP SP+-2
          CFI (cfiCond56) CFA_XSP16 add(XSP16, 19)
          CFI Block cfiCond57 Using cfiCommon0
          CFI (cfiCond57) Function MT_ZdoComplexDescRequest
          CFI (cfiCond57) Conditional ??CrossCallReturnLabel_90
          CFI (cfiCond57) R6 load(1, XDATA, add(CFA_XSP16, literal(-9)))
          CFI (cfiCond57) VB load(1, XDATA, add(CFA_XSP16, literal(-8)))
          CFI (cfiCond57) V0 load(1, XDATA, add(CFA_XSP16, literal(-7)))
          CFI (cfiCond57) R7 load(1, XDATA, add(CFA_XSP16, literal(-6)))
          CFI (cfiCond57) ?RET_LOW load(1, XDATA, add(CFA_XSP16, literal(-5)))
          CFI (cfiCond57) ?RET_HIGH load(1, XDATA, add(CFA_XSP16, literal(-4)))
          CFI (cfiCond57) ?BRET_EXT load(1, XDATA, add(CFA_XSP16, literal(-3)))
          CFI (cfiCond57) DPL0 load(1, XDATA, add(CFA_XSP16, literal(-2)))
          CFI (cfiCond57) DPH0 load(1, XDATA, add(CFA_XSP16, literal(-1)))
          CFI (cfiCond57) CFA_SP SP+-2
          CFI (cfiCond57) CFA_XSP16 add(XSP16, 19)
          CFI Block cfiCond58 Using cfiCommon0
          CFI (cfiCond58) Function MT_ZdoUserDescRequest
          CFI (cfiCond58) Conditional ??CrossCallReturnLabel_91
          CFI (cfiCond58) R6 load(1, XDATA, add(CFA_XSP16, literal(-9)))
          CFI (cfiCond58) VB load(1, XDATA, add(CFA_XSP16, literal(-8)))
          CFI (cfiCond58) V0 load(1, XDATA, add(CFA_XSP16, literal(-7)))
          CFI (cfiCond58) R7 load(1, XDATA, add(CFA_XSP16, literal(-6)))
          CFI (cfiCond58) ?RET_LOW load(1, XDATA, add(CFA_XSP16, literal(-5)))
          CFI (cfiCond58) ?RET_HIGH load(1, XDATA, add(CFA_XSP16, literal(-4)))
          CFI (cfiCond58) ?BRET_EXT load(1, XDATA, add(CFA_XSP16, literal(-3)))
          CFI (cfiCond58) DPL0 load(1, XDATA, add(CFA_XSP16, literal(-2)))
          CFI (cfiCond58) DPH0 load(1, XDATA, add(CFA_XSP16, literal(-1)))
          CFI (cfiCond58) CFA_SP SP+-2
          CFI (cfiCond58) CFA_XSP16 add(XSP16, 19)
          CFI Block cfiCond59 Using cfiCommon0
          CFI (cfiCond59) Function MT_ZdoServiceDiscRequest
          CFI (cfiCond59) Conditional ??CrossCallReturnLabel_92
          CFI (cfiCond59) R6 load(1, XDATA, add(CFA_XSP16, literal(-9)))
          CFI (cfiCond59) VB load(1, XDATA, add(CFA_XSP16, literal(-8)))
          CFI (cfiCond59) V0 load(1, XDATA, add(CFA_XSP16, literal(-7)))
          CFI (cfiCond59) R7 load(1, XDATA, add(CFA_XSP16, literal(-6)))
          CFI (cfiCond59) ?RET_LOW load(1, XDATA, add(CFA_XSP16, literal(-5)))
          CFI (cfiCond59) ?RET_HIGH load(1, XDATA, add(CFA_XSP16, literal(-4)))
          CFI (cfiCond59) ?BRET_EXT load(1, XDATA, add(CFA_XSP16, literal(-3)))
          CFI (cfiCond59) DPL0 load(1, XDATA, add(CFA_XSP16, literal(-2)))
          CFI (cfiCond59) DPH0 load(1, XDATA, add(CFA_XSP16, literal(-1)))
          CFI (cfiCond59) CFA_SP SP+-2
          CFI (cfiCond59) CFA_XSP16 add(XSP16, 10)
          CFI Block cfiCond60 Using cfiCommon0
          CFI (cfiCond60) Function MT_ZdoRemoveLinkKey
          CFI (cfiCond60) Conditional ??CrossCallReturnLabel_93
          CFI (cfiCond60) R6 load(1, XDATA, add(CFA_XSP16, literal(-9)))
          CFI (cfiCond60) VB load(1, XDATA, add(CFA_XSP16, literal(-8)))
          CFI (cfiCond60) V0 load(1, XDATA, add(CFA_XSP16, literal(-7)))
          CFI (cfiCond60) R7 load(1, XDATA, add(CFA_XSP16, literal(-6)))
          CFI (cfiCond60) ?RET_LOW load(1, XDATA, add(CFA_XSP16, literal(-5)))
          CFI (cfiCond60) ?RET_HIGH load(1, XDATA, add(CFA_XSP16, literal(-4)))
          CFI (cfiCond60) ?BRET_EXT load(1, XDATA, add(CFA_XSP16, literal(-3)))
          CFI (cfiCond60) DPL0 load(1, XDATA, add(CFA_XSP16, literal(-2)))
          CFI (cfiCond60) DPH0 load(1, XDATA, add(CFA_XSP16, literal(-1)))
          CFI (cfiCond60) CFA_SP SP+-2
          CFI (cfiCond60) CFA_XSP16 add(XSP16, 10)
          CFI Block cfiCond61 Using cfiCommon0
          CFI (cfiCond61) Function MT_ZdoRegisterForZDOMsg
          CFI (cfiCond61) Conditional ??CrossCallReturnLabel_83
          CFI (cfiCond61) R6 load(1, XDATA, add(CFA_XSP16, literal(-9)))
          CFI (cfiCond61) VB load(1, XDATA, add(CFA_XSP16, literal(-8)))
          CFI (cfiCond61) V0 load(1, XDATA, add(CFA_XSP16, literal(-7)))
          CFI (cfiCond61) R7 load(1, XDATA, add(CFA_XSP16, literal(-6)))
          CFI (cfiCond61) ?RET_LOW load(1, XDATA, add(CFA_XSP16, literal(-5)))
          CFI (cfiCond61) ?RET_HIGH load(1, XDATA, add(CFA_XSP16, literal(-4)))
          CFI (cfiCond61) ?BRET_EXT load(1, XDATA, add(CFA_XSP16, literal(-3)))
          CFI (cfiCond61) DPL0 load(1, XDATA, add(CFA_XSP16, literal(-2)))
          CFI (cfiCond61) DPH0 load(1, XDATA, add(CFA_XSP16, literal(-1)))
          CFI (cfiCond61) CFA_SP SP+-2
          CFI (cfiCond61) CFA_XSP16 add(XSP16, 10)
          CFI Block cfiCond62 Using cfiCommon0
          CFI (cfiCond62) Function MT_ZdoRemoveRegisteredCB
          CFI (cfiCond62) Conditional ??CrossCallReturnLabel_84
          CFI (cfiCond62) R6 load(1, XDATA, add(CFA_XSP16, literal(-9)))
          CFI (cfiCond62) VB load(1, XDATA, add(CFA_XSP16, literal(-8)))
          CFI (cfiCond62) V0 load(1, XDATA, add(CFA_XSP16, literal(-7)))
          CFI (cfiCond62) R7 load(1, XDATA, add(CFA_XSP16, literal(-6)))
          CFI (cfiCond62) ?RET_LOW load(1, XDATA, add(CFA_XSP16, literal(-5)))
          CFI (cfiCond62) ?RET_HIGH load(1, XDATA, add(CFA_XSP16, literal(-4)))
          CFI (cfiCond62) ?BRET_EXT load(1, XDATA, add(CFA_XSP16, literal(-3)))
          CFI (cfiCond62) DPL0 load(1, XDATA, add(CFA_XSP16, literal(-2)))
          CFI (cfiCond62) DPH0 load(1, XDATA, add(CFA_XSP16, literal(-1)))
          CFI (cfiCond62) CFA_SP SP+-2
          CFI (cfiCond62) CFA_XSP16 add(XSP16, 10)
          CFI Block cfiPicker63 Using cfiCommon1
          CFI (cfiPicker63) NoFunction
          CFI (cfiPicker63) Picker
        MOV     DPL,R2
        MOV     DPH,R3
        INC     DPTR
        INC     DPTR
        MOVX    A,@DPTR
        MOV     R6,A
        ; Setup parameters for call to function ZDSecMgrDeviceRemoveByExtAddr
        MOV     A,R2
        ADD     A,#0x3
        MOV     R2,A
        RET
          CFI (cfiCond52) CFA_SP SP+0
          CFI (cfiCond53) CFA_SP SP+0
          CFI (cfiCond54) CFA_SP SP+0
          CFI (cfiCond55) CFA_SP SP+0
          CFI (cfiCond56) CFA_SP SP+0
          CFI (cfiCond57) CFA_SP SP+0
          CFI (cfiCond58) CFA_SP SP+0
          CFI (cfiCond59) CFA_SP SP+0
          CFI (cfiCond60) CFA_SP SP+0
          CFI (cfiCond61) CFA_SP SP+0
          CFI (cfiCond62) CFA_SP SP+0
          CFI (cfiPicker63) CFA_SP SP+0
          CFI EndBlock cfiCond52
          CFI EndBlock cfiCond53
          CFI EndBlock cfiCond54
          CFI EndBlock cfiCond55
          CFI EndBlock cfiCond56
          CFI EndBlock cfiCond57
          CFI EndBlock cfiCond58
          CFI EndBlock cfiCond59
          CFI EndBlock cfiCond60
          CFI EndBlock cfiCond61
          CFI EndBlock cfiCond62
          CFI EndBlock cfiPicker63
//  669 
//  670 /***************************************************************************************************
//  671  * @fn      MT_ZdoUserDescRequest
//  672  *
//  673  * @brief   Handle a User Descriptor request.
//  674  *
//  675  * @param   pBuf  - MT message data
//  676  *
//  677  * @return  void
//  678  ***************************************************************************************************/

        RSEG BANKED_CODE:CODE:NOROOT(0)
//  679 void MT_ZdoUserDescRequest(uint8 *pBuf)
MT_ZdoUserDescRequest:
          CFI Block cfiBlock64 Using cfiCommon0
          CFI Function MT_ZdoUserDescRequest
        CODE
//  680 {
        FUNCALL MT_ZdoUserDescRequest, ZDP_NWKAddrOfInterestReq
        LOCFRAME ISTACK, 0, STACK
        LOCFRAME PSTACK, 0, STACK
        LOCFRAME XSTACK, 20, STACK
        LOCFRAME IOVERLAY, 0, STATIC
        LOCFRAME DOVERLAY, 0, STATIC
        ARGFRAME ISTACK, 0, STACK
        ARGFRAME PSTACK, 0, STACK
        ARGFRAME XSTACK, 20, STACK
        ARGFRAME IOVERLAY, 0, STATIC
        ARGFRAME DOVERLAY, 0, STATIC
        FUNCALL MT_ZdoUserDescRequest, MT_BuildAndSendZToolResponse
        LOCFRAME ISTACK, 0, STACK
        LOCFRAME PSTACK, 0, STACK
        LOCFRAME XSTACK, 19, STACK
        LOCFRAME IOVERLAY, 0, STATIC
        LOCFRAME DOVERLAY, 0, STATIC
        ARGFRAME ISTACK, 0, STACK
        ARGFRAME PSTACK, 0, STACK
        ARGFRAME XSTACK, 19, STACK
        ARGFRAME IOVERLAY, 0, STATIC
        ARGFRAME DOVERLAY, 0, STATIC
        REQUIRE ?V0
        MOV     A,#-0x9
        LCALL   ?BANKED_ENTER_XDATA
          CFI DPH0 load(1, XDATA, add(CFA_XSP16, literal(-1)))
          CFI DPL0 load(1, XDATA, add(CFA_XSP16, literal(-2)))
          CFI ?BRET_EXT load(1, XDATA, add(CFA_XSP16, literal(-3)))
          CFI ?RET_HIGH load(1, XDATA, add(CFA_XSP16, literal(-4)))
          CFI ?RET_LOW load(1, XDATA, add(CFA_XSP16, literal(-5)))
          CFI R7 load(1, XDATA, add(CFA_XSP16, literal(-6)))
          CFI V0 load(1, XDATA, add(CFA_XSP16, literal(-7)))
          CFI VB load(1, XDATA, add(CFA_XSP16, literal(-8)))
          CFI R6 load(1, XDATA, add(CFA_XSP16, literal(-9)))
          CFI CFA_SP SP+0
          CFI CFA_XSP16 add(XSP16, 9)
        ; Saved register size: 9
        ; Auto size: 10
        MOV     A,#-0xa
        LCALL   ?ALLOC_XSTACK8
          CFI CFA_XSP16 add(XSP16, 19)
//  681   uint8 cmdId;
//  682   uint8 retValue;
//  683   zAddrType_t destAddr;
//  684   uint16 shortAddr;
//  685 
//  686   /* parse header */
//  687   cmdId = pBuf[MT_RPC_POS_CMD1];
        LCALL   ??Subroutine41_0 & 0xFFFF
//  688   pBuf += MT_RPC_FRAME_HDR_SZ;
??CrossCallReturnLabel_91:
        JNC     ??MT_ZdoUserDescRequest_0
        INC     R3
//  689 
//  690   /* Dev address */
//  691   destAddr.addrMode = Addr16Bit;
??MT_ZdoUserDescRequest_0:
        MOV     A,#0x9
        LCALL   ?XSTACK_DISP0_8
        LCALL   ?Subroutine6 & 0xFFFF
//  692   destAddr.addr.shortAddr = BUILD_UINT16( pBuf[0], pBuf[1]);
??CrossCallReturnLabel_5:
        LCALL   ?XSTACK_DISP0_8
        LCALL   ?Subroutine25 & 0xFFFF
//  693   pBuf += 2;
??CrossCallReturnLabel_46:
        JNC     ??MT_ZdoUserDescRequest_1
        INC     R3
//  694 
//  695   /* Network address of interest */
//  696   shortAddr = BUILD_UINT16( pBuf[0], pBuf[1]);
//  697   pBuf += 2;
//  698 
//  699   retValue = (uint8)ZDP_UserDescReq( &destAddr, shortAddr, 0);
??MT_ZdoUserDescRequest_1:
        ; Setup parameters for call to function ZDP_NWKAddrOfInterestReq
        MOV     ?V0,#0x0
        MOV     R0,#?V0
        LCALL   ?PUSH_XSTACK_I_ONE
          CFI CFA_XSP16 add(XSP16, 20)
        MOV     R1,#0x11
        SJMP    ?Subroutine0
//  700 
//  701   MT_BuildAndSendZToolResponse(((uint8)MT_RPC_CMD_SRSP | (uint8)MT_RPC_SYS_ZDO), cmdId, 1, &retValue);
//  702 }
          CFI EndBlock cfiBlock64
//  703 
//  704 /***************************************************************************************************
//  705  * @fn      MT_ZdoEndDevAnnce
//  706  *
//  707  * @brief   Handle a End Device Announce Descriptor request.
//  708  *
//  709  * @param   pBuf  - MT message data
//  710  *
//  711  * @return  void
//  712  ***************************************************************************************************/

        RSEG BANKED_CODE:CODE:NOROOT(0)
//  713 void MT_ZdoEndDevAnnce(uint8 *pBuf)
MT_ZdoEndDevAnnce:
          CFI Block cfiBlock65 Using cfiCommon0
          CFI Function MT_ZdoEndDevAnnce
        CODE
//  714 {
        FUNCALL MT_ZdoEndDevAnnce, ZDP_DeviceAnnce
        LOCFRAME ISTACK, 0, STACK
        LOCFRAME PSTACK, 0, STACK
        LOCFRAME XSTACK, 11, STACK
        LOCFRAME IOVERLAY, 0, STATIC
        LOCFRAME DOVERLAY, 0, STATIC
        ARGFRAME ISTACK, 0, STACK
        ARGFRAME PSTACK, 0, STACK
        ARGFRAME XSTACK, 11, STACK
        ARGFRAME IOVERLAY, 0, STATIC
        ARGFRAME DOVERLAY, 0, STATIC
        FUNCALL MT_ZdoEndDevAnnce, MT_BuildAndSendZToolResponse
        LOCFRAME ISTACK, 0, STACK
        LOCFRAME PSTACK, 0, STACK
        LOCFRAME XSTACK, 10, STACK
        LOCFRAME IOVERLAY, 0, STATIC
        LOCFRAME DOVERLAY, 0, STATIC
        ARGFRAME ISTACK, 0, STACK
        ARGFRAME PSTACK, 0, STACK
        ARGFRAME XSTACK, 10, STACK
        ARGFRAME IOVERLAY, 0, STATIC
        ARGFRAME DOVERLAY, 0, STATIC
        REQUIRE ?V0
        MOV     A,#-0x9
        LCALL   ?BANKED_ENTER_XDATA
          CFI DPH0 load(1, XDATA, add(CFA_XSP16, literal(-1)))
          CFI DPL0 load(1, XDATA, add(CFA_XSP16, literal(-2)))
          CFI ?BRET_EXT load(1, XDATA, add(CFA_XSP16, literal(-3)))
          CFI ?RET_HIGH load(1, XDATA, add(CFA_XSP16, literal(-4)))
          CFI ?RET_LOW load(1, XDATA, add(CFA_XSP16, literal(-5)))
          CFI R7 load(1, XDATA, add(CFA_XSP16, literal(-6)))
          CFI V0 load(1, XDATA, add(CFA_XSP16, literal(-7)))
          CFI VB load(1, XDATA, add(CFA_XSP16, literal(-8)))
          CFI R6 load(1, XDATA, add(CFA_XSP16, literal(-9)))
          CFI CFA_SP SP+0
          CFI CFA_XSP16 add(XSP16, 9)
        ; Saved register size: 9
        ; Auto size: 1
        MOV     A,#-0x1
        LCALL   ?ALLOC_XSTACK8
          CFI CFA_XSP16 add(XSP16, 10)
        MOV     A,R2
        MOV     R4,A
        MOV     A,R3
        MOV     R5,A
//  715   uint8 cmdId;
//  716   uint8 retValue;
//  717   uint16 shortAddr;
//  718   uint8 *pIEEEAddr;
//  719 
//  720   /* parse header */
//  721   cmdId = pBuf[MT_RPC_POS_CMD1];
        MOV     DPL,R4
        MOV     DPH,R5
        INC     DPTR
        INC     DPTR
        MOVX    A,@DPTR
        MOV     R6,A
//  722   pBuf += MT_RPC_FRAME_HDR_SZ;
        MOV     A,R4
        ADD     A,#0x3
        MOV     R4,A
        JNC     ??MT_ZdoEndDevAnnce_0
        INC     R5
//  723 
//  724   /* network address */
//  725   shortAddr = BUILD_UINT16( pBuf[0], pBuf[1] );
??MT_ZdoEndDevAnnce_0:
        LCALL   ?Subroutine11 & 0xFFFF
//  726   pBuf += 2;
??CrossCallReturnLabel_13:
        JNC     ??MT_ZdoEndDevAnnce_1
        INC     R5
//  727 
//  728   /* extended address */
//  729   pIEEEAddr = pBuf;
//  730   pBuf += Z_EXTADDR_LEN;
//  731 
//  732   retValue = (uint8)ZDP_DeviceAnnce( shortAddr, pIEEEAddr, *pBuf, 0);
??MT_ZdoEndDevAnnce_1:
        ; Setup parameters for call to function ZDP_DeviceAnnce
        MOV     ?V0,R0
        MOV     R0,#?V0
        LCALL   ?PUSH_XSTACK_I_ONE
          CFI CFA_XSP16 add(XSP16, 11)
        MOV     DPL,R4
        MOV     DPH,R5
        INC     DPTR
        INC     DPTR
        INC     DPTR
        INC     DPTR
        INC     DPTR
        INC     DPTR
        INC     DPTR
        INC     DPTR
        MOVX    A,@DPTR
        MOV     R1,A
        LCALL   `??ZDP_DeviceAnnce::?relay`; Banked call to: ZDP_DeviceAnnce
        MOV     A,#0x1
        LCALL   ?DEALLOC_XSTACK8
          CFI CFA_XSP16 add(XSP16, 10)
        LJMP    ?Subroutine5 & 0xFFFF
//  733 
//  734   MT_BuildAndSendZToolResponse(((uint8)MT_RPC_CMD_SRSP | (uint8)MT_RPC_SYS_ZDO), cmdId, 1, &retValue);
//  735 }
          CFI EndBlock cfiBlock65

        RSEG BANKED_CODE:CODE:NOROOT(0)
?Subroutine0:
          CFI Block cfiBlock66 Using cfiCommon0
          CFI NoFunction
          CFI CFA_SP SP+0
          CFI CFA_XSP16 add(XSP16, 20)
          CFI VB load(1, XDATA, add(CFA_XSP16, literal(-8)))
          CFI DPL0 load(1, XDATA, add(CFA_XSP16, literal(-2)))
          CFI DPH0 load(1, XDATA, add(CFA_XSP16, literal(-1)))
          CFI R6 load(1, XDATA, add(CFA_XSP16, literal(-9)))
          CFI R7 load(1, XDATA, add(CFA_XSP16, literal(-6)))
          CFI V0 load(1, XDATA, add(CFA_XSP16, literal(-7)))
          CFI ?BRET_EXT load(1, XDATA, add(CFA_XSP16, literal(-3)))
          CFI ?RET_HIGH load(1, XDATA, add(CFA_XSP16, literal(-4)))
          CFI ?RET_LOW load(1, XDATA, add(CFA_XSP16, literal(-5)))
        LCALL   ?Subroutine12 & 0xFFFF
??CrossCallReturnLabel_16:
          CFI EndBlock cfiBlock66
        REQUIRE ??Subroutine42_0
        ; // Fall through to label ??Subroutine42_0

        RSEG BANKED_CODE:CODE:NOROOT(0)
??Subroutine42_0:
          CFI Block cfiBlock67 Using cfiCommon0
          CFI NoFunction
          CFI CFA_SP SP+0
          CFI CFA_XSP16 add(XSP16, 20)
          CFI VB load(1, XDATA, add(CFA_XSP16, literal(-8)))
          CFI DPL0 load(1, XDATA, add(CFA_XSP16, literal(-2)))
          CFI DPH0 load(1, XDATA, add(CFA_XSP16, literal(-1)))
          CFI R6 load(1, XDATA, add(CFA_XSP16, literal(-9)))
          CFI R7 load(1, XDATA, add(CFA_XSP16, literal(-6)))
          CFI V0 load(1, XDATA, add(CFA_XSP16, literal(-7)))
          CFI ?BRET_EXT load(1, XDATA, add(CFA_XSP16, literal(-3)))
          CFI ?RET_HIGH load(1, XDATA, add(CFA_XSP16, literal(-4)))
          CFI ?RET_LOW load(1, XDATA, add(CFA_XSP16, literal(-5)))
        LCALL   ?XSTACK_DISP101_8
        LCALL   `??ZDP_NWKAddrOfInterestReq::?relay`; Banked call to: ZDP_NWKAddrOfInterestReq
          CFI EndBlock cfiBlock67
        REQUIRE ??Subroutine43_0
        ; // Fall through to label ??Subroutine43_0

        RSEG BANKED_CODE:CODE:NOROOT(0)
??Subroutine43_0:
          CFI Block cfiBlock68 Using cfiCommon0
          CFI NoFunction
          CFI CFA_SP SP+0
          CFI CFA_XSP16 add(XSP16, 20)
          CFI VB load(1, XDATA, add(CFA_XSP16, literal(-8)))
          CFI DPL0 load(1, XDATA, add(CFA_XSP16, literal(-2)))
          CFI DPH0 load(1, XDATA, add(CFA_XSP16, literal(-1)))
          CFI R6 load(1, XDATA, add(CFA_XSP16, literal(-9)))
          CFI R7 load(1, XDATA, add(CFA_XSP16, literal(-6)))
          CFI V0 load(1, XDATA, add(CFA_XSP16, literal(-7)))
          CFI ?BRET_EXT load(1, XDATA, add(CFA_XSP16, literal(-3)))
          CFI ?RET_HIGH load(1, XDATA, add(CFA_XSP16, literal(-4)))
          CFI ?RET_LOW load(1, XDATA, add(CFA_XSP16, literal(-5)))
        MOV     A,#0x1
        LCALL   ?DEALLOC_XSTACK8
          CFI CFA_XSP16 add(XSP16, 19)
        LCALL   ?Subroutine26 & 0xFFFF
??CrossCallReturnLabel_95:
        LCALL   `??MT_BuildAndSendZToolResponse::?relay`; Banked call to: MT_BuildAndSendZToolResponse
        MOV     A,#0xa
          CFI EndBlock cfiBlock68
        REQUIRE ??Subroutine44_0
        ; // Fall through to label ??Subroutine44_0

        RSEG BANKED_CODE:CODE:NOROOT(0)
??Subroutine44_0:
          CFI Block cfiBlock69 Using cfiCommon0
          CFI NoFunction
          CFI CFA_SP SP+0
          CFI CFA_XSP16 add(XSP16, 10)
          CFI VB load(1, XDATA, add(CFA_XSP16, literal(-8)))
          CFI DPL0 load(1, XDATA, add(CFA_XSP16, literal(-2)))
          CFI DPH0 load(1, XDATA, add(CFA_XSP16, literal(-1)))
          CFI R6 load(1, XDATA, add(CFA_XSP16, literal(-9)))
          CFI R7 load(1, XDATA, add(CFA_XSP16, literal(-6)))
          CFI V0 load(1, XDATA, add(CFA_XSP16, literal(-7)))
          CFI ?BRET_EXT load(1, XDATA, add(CFA_XSP16, literal(-3)))
          CFI ?RET_HIGH load(1, XDATA, add(CFA_XSP16, literal(-4)))
          CFI ?RET_LOW load(1, XDATA, add(CFA_XSP16, literal(-5)))
          CFI Invalid
        LCALL   ?DEALLOC_XSTACK8
          CFI CFA_XSP16 add(XSP16, 9)
          CFI Valid
          CFI EndBlock cfiBlock69
        REQUIRE ??Subroutine45_0
        ; // Fall through to label ??Subroutine45_0

        RSEG BANKED_CODE:CODE:NOROOT(0)
??Subroutine45_0:
          CFI Block cfiBlock70 Using cfiCommon0
          CFI NoFunction
          CFI CFA_SP SP+0
          CFI CFA_XSP16 add(XSP16, 9)
          CFI VB load(1, XDATA, add(CFA_XSP16, literal(-8)))
          CFI DPL0 load(1, XDATA, add(CFA_XSP16, literal(-2)))
          CFI DPH0 load(1, XDATA, add(CFA_XSP16, literal(-1)))
          CFI R6 load(1, XDATA, add(CFA_XSP16, literal(-9)))
          CFI R7 load(1, XDATA, add(CFA_XSP16, literal(-6)))
          CFI V0 load(1, XDATA, add(CFA_XSP16, literal(-7)))
          CFI ?BRET_EXT load(1, XDATA, add(CFA_XSP16, literal(-3)))
          CFI ?RET_HIGH load(1, XDATA, add(CFA_XSP16, literal(-4)))
          CFI ?RET_LOW load(1, XDATA, add(CFA_XSP16, literal(-5)))
        MOV     R7,#0x1
        LJMP    ?BANKED_LEAVE_XDATA
          CFI CFA_SP SP+-3
          CFI CFA_XSP16 XSP16+0
          CFI VB SameValue
          CFI DPL0 SameValue
          CFI DPH0 SameValue
          CFI R6 SameValue
          CFI R7 SameValue
          CFI V0 SameValue
          CFI ?BRET_EXT Frame(CFA_SP, 3)
          CFI ?RET_HIGH Frame(CFA_SP, 2)
          CFI ?RET_LOW Frame(CFA_SP, 1)
          CFI EndBlock cfiBlock70

        RSEG BANKED_CODE:CODE:NOROOT(0)
?Subroutine26:
          CFI Block cfiCond71 Using cfiCommon0
          CFI Function MT_ZdoNWKAddressRequest
          CFI Conditional ??CrossCallReturnLabel_94
          CFI R6 load(1, XDATA, add(CFA_XSP16, literal(-10)))
          CFI VB load(1, XDATA, add(CFA_XSP16, literal(-9)))
          CFI V0 load(1, XDATA, add(CFA_XSP16, literal(-8)))
          CFI V1 load(1, XDATA, add(CFA_XSP16, literal(-7)))
          CFI R7 load(1, XDATA, add(CFA_XSP16, literal(-6)))
          CFI ?RET_LOW load(1, XDATA, add(CFA_XSP16, literal(-5)))
          CFI ?RET_HIGH load(1, XDATA, add(CFA_XSP16, literal(-4)))
          CFI ?BRET_EXT load(1, XDATA, add(CFA_XSP16, literal(-3)))
          CFI DPL0 load(1, XDATA, add(CFA_XSP16, literal(-2)))
          CFI DPH0 load(1, XDATA, add(CFA_XSP16, literal(-1)))
          CFI CFA_SP SP+-2
          CFI CFA_XSP16 add(XSP16, 11)
          CFI Block cfiCond72 Using cfiCommon0
          CFI (cfiCond72) Function MT_ZdoIEEEAddrRequest
          CFI (cfiCond72) Conditional ??CrossCallReturnLabel_94
          CFI (cfiCond72) R6 load(1, XDATA, add(CFA_XSP16, literal(-10)))
          CFI (cfiCond72) VB load(1, XDATA, add(CFA_XSP16, literal(-9)))
          CFI (cfiCond72) V0 load(1, XDATA, add(CFA_XSP16, literal(-8)))
          CFI (cfiCond72) V1 load(1, XDATA, add(CFA_XSP16, literal(-7)))
          CFI (cfiCond72) R7 load(1, XDATA, add(CFA_XSP16, literal(-6)))
          CFI (cfiCond72) ?RET_LOW load(1, XDATA, add(CFA_XSP16, literal(-5)))
          CFI (cfiCond72) ?RET_HIGH load(1, XDATA, add(CFA_XSP16, literal(-4)))
          CFI (cfiCond72) ?BRET_EXT load(1, XDATA, add(CFA_XSP16, literal(-3)))
          CFI (cfiCond72) DPL0 load(1, XDATA, add(CFA_XSP16, literal(-2)))
          CFI (cfiCond72) DPH0 load(1, XDATA, add(CFA_XSP16, literal(-1)))
          CFI (cfiCond72) CFA_SP SP+-2
          CFI (cfiCond72) CFA_XSP16 add(XSP16, 11)
          CFI Block cfiCond73 Using cfiCommon0
          CFI (cfiCond73) Function MT_ZdoSetLinkKey
          CFI (cfiCond73) Conditional ??CrossCallReturnLabel_94
          CFI (cfiCond73) R6 load(1, XDATA, add(CFA_XSP16, literal(-10)))
          CFI (cfiCond73) VB load(1, XDATA, add(CFA_XSP16, literal(-9)))
          CFI (cfiCond73) V0 load(1, XDATA, add(CFA_XSP16, literal(-8)))
          CFI (cfiCond73) V1 load(1, XDATA, add(CFA_XSP16, literal(-7)))
          CFI (cfiCond73) R7 load(1, XDATA, add(CFA_XSP16, literal(-6)))
          CFI (cfiCond73) ?RET_LOW load(1, XDATA, add(CFA_XSP16, literal(-5)))
          CFI (cfiCond73) ?RET_HIGH load(1, XDATA, add(CFA_XSP16, literal(-4)))
          CFI (cfiCond73) ?BRET_EXT load(1, XDATA, add(CFA_XSP16, literal(-3)))
          CFI (cfiCond73) DPL0 load(1, XDATA, add(CFA_XSP16, literal(-2)))
          CFI (cfiCond73) DPH0 load(1, XDATA, add(CFA_XSP16, literal(-1)))
          CFI (cfiCond73) CFA_SP SP+-2
          CFI (cfiCond73) CFA_XSP16 add(XSP16, 11)
          CFI Block cfiCond74 Using cfiCommon0
          CFI (cfiCond74) Function MT_ZdoPowerDescRequest
          CFI (cfiCond74) Conditional ??CrossCallReturnLabel_95
          CFI (cfiCond74) R6 load(1, XDATA, add(CFA_XSP16, literal(-9)))
          CFI (cfiCond74) VB load(1, XDATA, add(CFA_XSP16, literal(-8)))
          CFI (cfiCond74) V0 load(1, XDATA, add(CFA_XSP16, literal(-7)))
          CFI (cfiCond74) R7 load(1, XDATA, add(CFA_XSP16, literal(-6)))
          CFI (cfiCond74) ?RET_LOW load(1, XDATA, add(CFA_XSP16, literal(-5)))
          CFI (cfiCond74) ?RET_HIGH load(1, XDATA, add(CFA_XSP16, literal(-4)))
          CFI (cfiCond74) ?BRET_EXT load(1, XDATA, add(CFA_XSP16, literal(-3)))
          CFI (cfiCond74) DPL0 load(1, XDATA, add(CFA_XSP16, literal(-2)))
          CFI (cfiCond74) DPH0 load(1, XDATA, add(CFA_XSP16, literal(-1)))
          CFI (cfiCond74) CFA_SP SP+-2
          CFI (cfiCond74) CFA_XSP16 add(XSP16, 19)
          CFI Block cfiCond75 Using cfiCommon0
          CFI (cfiCond75) Function MT_ZdoActiveEpRequest
          CFI (cfiCond75) Conditional ??CrossCallReturnLabel_95
          CFI (cfiCond75) R6 load(1, XDATA, add(CFA_XSP16, literal(-9)))
          CFI (cfiCond75) VB load(1, XDATA, add(CFA_XSP16, literal(-8)))
          CFI (cfiCond75) V0 load(1, XDATA, add(CFA_XSP16, literal(-7)))
          CFI (cfiCond75) R7 load(1, XDATA, add(CFA_XSP16, literal(-6)))
          CFI (cfiCond75) ?RET_LOW load(1, XDATA, add(CFA_XSP16, literal(-5)))
          CFI (cfiCond75) ?RET_HIGH load(1, XDATA, add(CFA_XSP16, literal(-4)))
          CFI (cfiCond75) ?BRET_EXT load(1, XDATA, add(CFA_XSP16, literal(-3)))
          CFI (cfiCond75) DPL0 load(1, XDATA, add(CFA_XSP16, literal(-2)))
          CFI (cfiCond75) DPH0 load(1, XDATA, add(CFA_XSP16, literal(-1)))
          CFI (cfiCond75) CFA_SP SP+-2
          CFI (cfiCond75) CFA_XSP16 add(XSP16, 19)
          CFI Block cfiCond76 Using cfiCommon0
          CFI (cfiCond76) Function MT_ZdoComplexDescRequest
          CFI (cfiCond76) Conditional ??CrossCallReturnLabel_95
          CFI (cfiCond76) R6 load(1, XDATA, add(CFA_XSP16, literal(-9)))
          CFI (cfiCond76) VB load(1, XDATA, add(CFA_XSP16, literal(-8)))
          CFI (cfiCond76) V0 load(1, XDATA, add(CFA_XSP16, literal(-7)))
          CFI (cfiCond76) R7 load(1, XDATA, add(CFA_XSP16, literal(-6)))
          CFI (cfiCond76) ?RET_LOW load(1, XDATA, add(CFA_XSP16, literal(-5)))
          CFI (cfiCond76) ?RET_HIGH load(1, XDATA, add(CFA_XSP16, literal(-4)))
          CFI (cfiCond76) ?BRET_EXT load(1, XDATA, add(CFA_XSP16, literal(-3)))
          CFI (cfiCond76) DPL0 load(1, XDATA, add(CFA_XSP16, literal(-2)))
          CFI (cfiCond76) DPH0 load(1, XDATA, add(CFA_XSP16, literal(-1)))
          CFI (cfiCond76) CFA_SP SP+-2
          CFI (cfiCond76) CFA_XSP16 add(XSP16, 19)
          CFI Block cfiCond77 Using cfiCommon0
          CFI (cfiCond77) Function MT_ZdoUserDescRequest
          CFI (cfiCond77) Conditional ??CrossCallReturnLabel_95
          CFI (cfiCond77) R6 load(1, XDATA, add(CFA_XSP16, literal(-9)))
          CFI (cfiCond77) VB load(1, XDATA, add(CFA_XSP16, literal(-8)))
          CFI (cfiCond77) V0 load(1, XDATA, add(CFA_XSP16, literal(-7)))
          CFI (cfiCond77) R7 load(1, XDATA, add(CFA_XSP16, literal(-6)))
          CFI (cfiCond77) ?RET_LOW load(1, XDATA, add(CFA_XSP16, literal(-5)))
          CFI (cfiCond77) ?RET_HIGH load(1, XDATA, add(CFA_XSP16, literal(-4)))
          CFI (cfiCond77) ?BRET_EXT load(1, XDATA, add(CFA_XSP16, literal(-3)))
          CFI (cfiCond77) DPL0 load(1, XDATA, add(CFA_XSP16, literal(-2)))
          CFI (cfiCond77) DPH0 load(1, XDATA, add(CFA_XSP16, literal(-1)))
          CFI (cfiCond77) CFA_SP SP+-2
          CFI (cfiCond77) CFA_XSP16 add(XSP16, 19)
          CFI Block cfiCond78 Using cfiCommon0
          CFI (cfiCond78) Function MT_ZdoNodeDescRequest
          CFI (cfiCond78) Conditional ??CrossCallReturnLabel_95
          CFI (cfiCond78) R6 load(1, XDATA, add(CFA_XSP16, literal(-9)))
          CFI (cfiCond78) VB load(1, XDATA, add(CFA_XSP16, literal(-8)))
          CFI (cfiCond78) V0 load(1, XDATA, add(CFA_XSP16, literal(-7)))
          CFI (cfiCond78) R7 load(1, XDATA, add(CFA_XSP16, literal(-6)))
          CFI (cfiCond78) ?RET_LOW load(1, XDATA, add(CFA_XSP16, literal(-5)))
          CFI (cfiCond78) ?RET_HIGH load(1, XDATA, add(CFA_XSP16, literal(-4)))
          CFI (cfiCond78) ?BRET_EXT load(1, XDATA, add(CFA_XSP16, literal(-3)))
          CFI (cfiCond78) DPL0 load(1, XDATA, add(CFA_XSP16, literal(-2)))
          CFI (cfiCond78) DPH0 load(1, XDATA, add(CFA_XSP16, literal(-1)))
          CFI (cfiCond78) CFA_SP SP+-2
          CFI (cfiCond78) CFA_XSP16 add(XSP16, 19)
          CFI Block cfiCond79 Using cfiCommon0
          CFI (cfiCond79) Function MT_ZdoSimpleDescRequest
          CFI (cfiCond79) Conditional ??CrossCallReturnLabel_95
          CFI (cfiCond79) R6 load(1, XDATA, add(CFA_XSP16, literal(-9)))
          CFI (cfiCond79) VB load(1, XDATA, add(CFA_XSP16, literal(-8)))
          CFI (cfiCond79) V0 load(1, XDATA, add(CFA_XSP16, literal(-7)))
          CFI (cfiCond79) R7 load(1, XDATA, add(CFA_XSP16, literal(-6)))
          CFI (cfiCond79) ?RET_LOW load(1, XDATA, add(CFA_XSP16, literal(-5)))
          CFI (cfiCond79) ?RET_HIGH load(1, XDATA, add(CFA_XSP16, literal(-4)))
          CFI (cfiCond79) ?BRET_EXT load(1, XDATA, add(CFA_XSP16, literal(-3)))
          CFI (cfiCond79) DPL0 load(1, XDATA, add(CFA_XSP16, literal(-2)))
          CFI (cfiCond79) DPH0 load(1, XDATA, add(CFA_XSP16, literal(-1)))
          CFI (cfiCond79) CFA_SP SP+-2
          CFI (cfiCond79) CFA_XSP16 add(XSP16, 19)
          CFI Block cfiCond80 Using cfiCommon0
          CFI (cfiCond80) Function MT_ZdoEndDevAnnce
          CFI (cfiCond80) Conditional ??CrossCallReturnLabel_96
          CFI (cfiCond80) R6 load(1, XDATA, add(CFA_XSP16, literal(-9)))
          CFI (cfiCond80) VB load(1, XDATA, add(CFA_XSP16, literal(-8)))
          CFI (cfiCond80) V0 load(1, XDATA, add(CFA_XSP16, literal(-7)))
          CFI (cfiCond80) R7 load(1, XDATA, add(CFA_XSP16, literal(-6)))
          CFI (cfiCond80) ?RET_LOW load(1, XDATA, add(CFA_XSP16, literal(-5)))
          CFI (cfiCond80) ?RET_HIGH load(1, XDATA, add(CFA_XSP16, literal(-4)))
          CFI (cfiCond80) ?BRET_EXT load(1, XDATA, add(CFA_XSP16, literal(-3)))
          CFI (cfiCond80) DPL0 load(1, XDATA, add(CFA_XSP16, literal(-2)))
          CFI (cfiCond80) DPH0 load(1, XDATA, add(CFA_XSP16, literal(-1)))
          CFI (cfiCond80) CFA_SP SP+-2
          CFI (cfiCond80) CFA_XSP16 add(XSP16, 10)
          CFI Block cfiCond81 Using cfiCommon0
          CFI (cfiCond81) Function MT_ZdoServiceDiscRequest
          CFI (cfiCond81) Conditional ??CrossCallReturnLabel_96
          CFI (cfiCond81) R6 load(1, XDATA, add(CFA_XSP16, literal(-9)))
          CFI (cfiCond81) VB load(1, XDATA, add(CFA_XSP16, literal(-8)))
          CFI (cfiCond81) V0 load(1, XDATA, add(CFA_XSP16, literal(-7)))
          CFI (cfiCond81) R7 load(1, XDATA, add(CFA_XSP16, literal(-6)))
          CFI (cfiCond81) ?RET_LOW load(1, XDATA, add(CFA_XSP16, literal(-5)))
          CFI (cfiCond81) ?RET_HIGH load(1, XDATA, add(CFA_XSP16, literal(-4)))
          CFI (cfiCond81) ?BRET_EXT load(1, XDATA, add(CFA_XSP16, literal(-3)))
          CFI (cfiCond81) DPL0 load(1, XDATA, add(CFA_XSP16, literal(-2)))
          CFI (cfiCond81) DPH0 load(1, XDATA, add(CFA_XSP16, literal(-1)))
          CFI (cfiCond81) CFA_SP SP+-2
          CFI (cfiCond81) CFA_XSP16 add(XSP16, 10)
          CFI Block cfiCond82 Using cfiCommon0
          CFI (cfiCond82) Function MT_ZdoRemoveLinkKey
          CFI (cfiCond82) Conditional ??CrossCallReturnLabel_96
          CFI (cfiCond82) R6 load(1, XDATA, add(CFA_XSP16, literal(-9)))
          CFI (cfiCond82) VB load(1, XDATA, add(CFA_XSP16, literal(-8)))
          CFI (cfiCond82) V0 load(1, XDATA, add(CFA_XSP16, literal(-7)))
          CFI (cfiCond82) R7 load(1, XDATA, add(CFA_XSP16, literal(-6)))
          CFI (cfiCond82) ?RET_LOW load(1, XDATA, add(CFA_XSP16, literal(-5)))
          CFI (cfiCond82) ?RET_HIGH load(1, XDATA, add(CFA_XSP16, literal(-4)))
          CFI (cfiCond82) ?BRET_EXT load(1, XDATA, add(CFA_XSP16, literal(-3)))
          CFI (cfiCond82) DPL0 load(1, XDATA, add(CFA_XSP16, literal(-2)))
          CFI (cfiCond82) DPH0 load(1, XDATA, add(CFA_XSP16, literal(-1)))
          CFI (cfiCond82) CFA_SP SP+-2
          CFI (cfiCond82) CFA_XSP16 add(XSP16, 10)
          CFI Block cfiPicker83 Using cfiCommon1
          CFI (cfiPicker83) NoFunction
          CFI (cfiPicker83) Picker
        MOV     A,R1
        MOV     DPL,?XSP + 0
        MOV     DPH,?XSP + 1
        MOVX    @DPTR,A
        ; Setup parameters for call to function MT_BuildAndSendZToolResponse
        ; Setup parameters for call to function MT_BuildAndSendZToolResponse
        ; Setup parameters for call to function MT_BuildAndSendZToolResponse
        ; Setup parameters for call to function MT_BuildAndSendZToolResponse
        ; Setup parameters for call to function MT_BuildAndSendZToolResponse
        ; Setup parameters for call to function MT_BuildAndSendZToolResponse
        ; Setup parameters for call to function MT_BuildAndSendZToolResponse
        ; Setup parameters for call to function MT_BuildAndSendZToolResponse
        ; Setup parameters for call to function MT_BuildAndSendZToolResponse
        ; Setup parameters for call to function MT_BuildAndSendZToolResponse
        ; Setup parameters for call to function MT_BuildAndSendZToolResponse
        ; Setup parameters for call to function MT_BuildAndSendZToolResponse
        MOV     R4,?XSP + 0
        MOV     R5,?XSP + 1
        MOV     R3,#0x1
        MOV     A,R6
        MOV     R2,A
        MOV     R1,#0x65
        RET
          CFI (cfiCond71) CFA_SP SP+0
          CFI (cfiCond72) CFA_SP SP+0
          CFI (cfiCond73) CFA_SP SP+0
          CFI (cfiCond74) CFA_SP SP+0
          CFI (cfiCond75) CFA_SP SP+0
          CFI (cfiCond76) CFA_SP SP+0
          CFI (cfiCond77) CFA_SP SP+0
          CFI (cfiCond78) CFA_SP SP+0
          CFI (cfiCond79) CFA_SP SP+0
          CFI (cfiCond80) CFA_SP SP+0
          CFI (cfiCond81) CFA_SP SP+0
          CFI (cfiCond82) CFA_SP SP+0
          CFI (cfiPicker83) CFA_SP SP+0
          CFI EndBlock cfiCond71
          CFI EndBlock cfiCond72
          CFI EndBlock cfiCond73
          CFI EndBlock cfiCond74
          CFI EndBlock cfiCond75
          CFI EndBlock cfiCond76
          CFI EndBlock cfiCond77
          CFI EndBlock cfiCond78
          CFI EndBlock cfiCond79
          CFI EndBlock cfiCond80
          CFI EndBlock cfiCond81
          CFI EndBlock cfiCond82
          CFI EndBlock cfiPicker83

        RSEG BANKED_CODE:CODE:NOROOT(0)
?Subroutine12:
          CFI Block cfiCond84 Using cfiCommon0
          CFI Function MT_ZdoSimpleDescRequest
          CFI Conditional ??CrossCallReturnLabel_15
          CFI R6 load(1, XDATA, add(CFA_XSP16, literal(-9)))
          CFI VB load(1, XDATA, add(CFA_XSP16, literal(-8)))
          CFI V0 load(1, XDATA, add(CFA_XSP16, literal(-7)))
          CFI R7 load(1, XDATA, add(CFA_XSP16, literal(-6)))
          CFI ?RET_LOW load(1, XDATA, add(CFA_XSP16, literal(-5)))
          CFI ?RET_HIGH load(1, XDATA, add(CFA_XSP16, literal(-4)))
          CFI ?BRET_EXT load(1, XDATA, add(CFA_XSP16, literal(-3)))
          CFI DPL0 load(1, XDATA, add(CFA_XSP16, literal(-2)))
          CFI DPH0 load(1, XDATA, add(CFA_XSP16, literal(-1)))
          CFI CFA_SP SP+-2
          CFI CFA_XSP16 add(XSP16, 20)
          CFI Block cfiCond85 Using cfiCommon0
          CFI (cfiCond85) Function MT_ZdoPowerDescRequest
          CFI (cfiCond85) Conditional ??CrossCallReturnLabel_16
          CFI (cfiCond85) R6 load(1, XDATA, add(CFA_XSP16, literal(-9)))
          CFI (cfiCond85) VB load(1, XDATA, add(CFA_XSP16, literal(-8)))
          CFI (cfiCond85) V0 load(1, XDATA, add(CFA_XSP16, literal(-7)))
          CFI (cfiCond85) R7 load(1, XDATA, add(CFA_XSP16, literal(-6)))
          CFI (cfiCond85) ?RET_LOW load(1, XDATA, add(CFA_XSP16, literal(-5)))
          CFI (cfiCond85) ?RET_HIGH load(1, XDATA, add(CFA_XSP16, literal(-4)))
          CFI (cfiCond85) ?BRET_EXT load(1, XDATA, add(CFA_XSP16, literal(-3)))
          CFI (cfiCond85) DPL0 load(1, XDATA, add(CFA_XSP16, literal(-2)))
          CFI (cfiCond85) DPH0 load(1, XDATA, add(CFA_XSP16, literal(-1)))
          CFI (cfiCond85) CFA_SP SP+-2
          CFI (cfiCond85) CFA_XSP16 add(XSP16, 20)
          CFI Block cfiCond86 Using cfiCommon0
          CFI (cfiCond86) Function MT_ZdoActiveEpRequest
          CFI (cfiCond86) Conditional ??CrossCallReturnLabel_16
          CFI (cfiCond86) R6 load(1, XDATA, add(CFA_XSP16, literal(-9)))
          CFI (cfiCond86) VB load(1, XDATA, add(CFA_XSP16, literal(-8)))
          CFI (cfiCond86) V0 load(1, XDATA, add(CFA_XSP16, literal(-7)))
          CFI (cfiCond86) R7 load(1, XDATA, add(CFA_XSP16, literal(-6)))
          CFI (cfiCond86) ?RET_LOW load(1, XDATA, add(CFA_XSP16, literal(-5)))
          CFI (cfiCond86) ?RET_HIGH load(1, XDATA, add(CFA_XSP16, literal(-4)))
          CFI (cfiCond86) ?BRET_EXT load(1, XDATA, add(CFA_XSP16, literal(-3)))
          CFI (cfiCond86) DPL0 load(1, XDATA, add(CFA_XSP16, literal(-2)))
          CFI (cfiCond86) DPH0 load(1, XDATA, add(CFA_XSP16, literal(-1)))
          CFI (cfiCond86) CFA_SP SP+-2
          CFI (cfiCond86) CFA_XSP16 add(XSP16, 20)
          CFI Block cfiCond87 Using cfiCommon0
          CFI (cfiCond87) Function MT_ZdoComplexDescRequest
          CFI (cfiCond87) Conditional ??CrossCallReturnLabel_16
          CFI (cfiCond87) R6 load(1, XDATA, add(CFA_XSP16, literal(-9)))
          CFI (cfiCond87) VB load(1, XDATA, add(CFA_XSP16, literal(-8)))
          CFI (cfiCond87) V0 load(1, XDATA, add(CFA_XSP16, literal(-7)))
          CFI (cfiCond87) R7 load(1, XDATA, add(CFA_XSP16, literal(-6)))
          CFI (cfiCond87) ?RET_LOW load(1, XDATA, add(CFA_XSP16, literal(-5)))
          CFI (cfiCond87) ?RET_HIGH load(1, XDATA, add(CFA_XSP16, literal(-4)))
          CFI (cfiCond87) ?BRET_EXT load(1, XDATA, add(CFA_XSP16, literal(-3)))
          CFI (cfiCond87) DPL0 load(1, XDATA, add(CFA_XSP16, literal(-2)))
          CFI (cfiCond87) DPH0 load(1, XDATA, add(CFA_XSP16, literal(-1)))
          CFI (cfiCond87) CFA_SP SP+-2
          CFI (cfiCond87) CFA_XSP16 add(XSP16, 20)
          CFI Block cfiCond88 Using cfiCommon0
          CFI (cfiCond88) Function MT_ZdoUserDescRequest
          CFI (cfiCond88) Conditional ??CrossCallReturnLabel_16
          CFI (cfiCond88) R6 load(1, XDATA, add(CFA_XSP16, literal(-9)))
          CFI (cfiCond88) VB load(1, XDATA, add(CFA_XSP16, literal(-8)))
          CFI (cfiCond88) V0 load(1, XDATA, add(CFA_XSP16, literal(-7)))
          CFI (cfiCond88) R7 load(1, XDATA, add(CFA_XSP16, literal(-6)))
          CFI (cfiCond88) ?RET_LOW load(1, XDATA, add(CFA_XSP16, literal(-5)))
          CFI (cfiCond88) ?RET_HIGH load(1, XDATA, add(CFA_XSP16, literal(-4)))
          CFI (cfiCond88) ?BRET_EXT load(1, XDATA, add(CFA_XSP16, literal(-3)))
          CFI (cfiCond88) DPL0 load(1, XDATA, add(CFA_XSP16, literal(-2)))
          CFI (cfiCond88) DPH0 load(1, XDATA, add(CFA_XSP16, literal(-1)))
          CFI (cfiCond88) CFA_SP SP+-2
          CFI (cfiCond88) CFA_XSP16 add(XSP16, 20)
          CFI Block cfiPicker89 Using cfiCommon1
          CFI (cfiPicker89) NoFunction
          CFI (cfiPicker89) Picker
        MOV     DPL,R2
        MOV     DPH,R3
        LCALL   ?Subroutine32 & 0xFFFF
??CrossCallReturnLabel_62:
        MOV     A,#0x2
        RET
          CFI (cfiCond84) CFA_SP SP+0
          CFI (cfiCond85) CFA_SP SP+0
          CFI (cfiCond86) CFA_SP SP+0
          CFI (cfiCond87) CFA_SP SP+0
          CFI (cfiCond88) CFA_SP SP+0
          CFI (cfiPicker89) CFA_SP SP+0
          CFI EndBlock cfiCond84
          CFI EndBlock cfiCond85
          CFI EndBlock cfiCond86
          CFI EndBlock cfiCond87
          CFI EndBlock cfiCond88
          CFI EndBlock cfiPicker89
//  736 
//  737 /***************************************************************************************************
//  738  * @fn      MT_ZdoUserDescSet
//  739  *
//  740  * @brief   Handle a User Descriptor Set.
//  741  *
//  742  * @param   pBuf  - MT message data
//  743  *
//  744  * @return  void
//  745  ***************************************************************************************************/

        RSEG BANKED_CODE:CODE:NOROOT(0)
//  746 void MT_ZdoUserDescSet(uint8 *pBuf)
MT_ZdoUserDescSet:
          CFI Block cfiBlock90 Using cfiCommon0
          CFI Function MT_ZdoUserDescSet
        CODE
//  747 {
        FUNCALL MT_ZdoUserDescSet, osal_memcpy
        LOCFRAME ISTACK, 0, STACK
        LOCFRAME PSTACK, 0, STACK
        LOCFRAME XSTACK, 42, STACK
        LOCFRAME IOVERLAY, 0, STATIC
        LOCFRAME DOVERLAY, 0, STATIC
        ARGFRAME ISTACK, 0, STACK
        ARGFRAME PSTACK, 0, STACK
        ARGFRAME XSTACK, 42, STACK
        ARGFRAME IOVERLAY, 0, STATIC
        ARGFRAME DOVERLAY, 0, STATIC
        FUNCALL MT_ZdoUserDescSet, ZDP_UserDescSet
        LOCFRAME ISTACK, 0, STACK
        LOCFRAME PSTACK, 0, STACK
        LOCFRAME XSTACK, 41, STACK
        LOCFRAME IOVERLAY, 0, STATIC
        LOCFRAME DOVERLAY, 0, STATIC
        ARGFRAME ISTACK, 0, STACK
        ARGFRAME PSTACK, 0, STACK
        ARGFRAME XSTACK, 41, STACK
        ARGFRAME IOVERLAY, 0, STATIC
        ARGFRAME DOVERLAY, 0, STATIC
        FUNCALL MT_ZdoUserDescSet, MT_BuildAndSendZToolResponse
        LOCFRAME ISTACK, 0, STACK
        LOCFRAME PSTACK, 0, STACK
        LOCFRAME XSTACK, 39, STACK
        LOCFRAME IOVERLAY, 0, STATIC
        LOCFRAME DOVERLAY, 0, STATIC
        ARGFRAME ISTACK, 0, STACK
        ARGFRAME PSTACK, 0, STACK
        ARGFRAME XSTACK, 39, STACK
        ARGFRAME IOVERLAY, 0, STATIC
        ARGFRAME DOVERLAY, 0, STATIC
        REQUIRE ?V0
        REQUIRE ?V1
        REQUIRE ?V2
        REQUIRE ?V3
        MOV     A,#-0xc
        LCALL   ?BANKED_ENTER_XDATA
          CFI DPH0 load(1, XDATA, add(CFA_XSP16, literal(-1)))
          CFI DPL0 load(1, XDATA, add(CFA_XSP16, literal(-2)))
          CFI ?BRET_EXT load(1, XDATA, add(CFA_XSP16, literal(-3)))
          CFI ?RET_HIGH load(1, XDATA, add(CFA_XSP16, literal(-4)))
          CFI ?RET_LOW load(1, XDATA, add(CFA_XSP16, literal(-5)))
          CFI R7 load(1, XDATA, add(CFA_XSP16, literal(-6)))
          CFI V3 load(1, XDATA, add(CFA_XSP16, literal(-7)))
          CFI V2 load(1, XDATA, add(CFA_XSP16, literal(-8)))
          CFI V1 load(1, XDATA, add(CFA_XSP16, literal(-9)))
          CFI V0 load(1, XDATA, add(CFA_XSP16, literal(-10)))
          CFI VB load(1, XDATA, add(CFA_XSP16, literal(-11)))
          CFI R6 load(1, XDATA, add(CFA_XSP16, literal(-12)))
          CFI CFA_SP SP+0
          CFI CFA_XSP16 add(XSP16, 12)
        ; Saved register size: 12
        ; Auto size: 27
        MOV     A,#-0x1b
        LCALL   ?ALLOC_XSTACK8
          CFI CFA_XSP16 add(XSP16, 39)
//  748   uint8 cmdId;
//  749   uint8 retValue;
//  750   zAddrType_t destAddr;
//  751   uint16 shortAddr;
//  752   UserDescriptorFormat_t userDesc;
//  753 
//  754   /* parse header */
//  755   cmdId = pBuf[MT_RPC_POS_CMD1];
        MOV     DPL,R2
        MOV     DPH,R3
        INC     DPTR
        INC     DPTR
        MOVX    A,@DPTR
        MOV     ?V3,A
//  756   pBuf += MT_RPC_FRAME_HDR_SZ;
        MOV     A,R2
        ADD     A,#0x3
        MOV     R2,A
        JNC     ??MT_ZdoUserDescSet_0
        INC     R3
//  757 
//  758   /* Dev address */
//  759   destAddr.addrMode = Addr16Bit;
??MT_ZdoUserDescSet_0:
        MOV     A,#0x9
        LCALL   ?XSTACK_DISP0_8
        LCALL   ?Subroutine6 & 0xFFFF
//  760   destAddr.addr.shortAddr = BUILD_UINT16( pBuf[0], pBuf[1] );
??CrossCallReturnLabel_6:
        LCALL   ?XSTACK_DISP0_8
        LCALL   ?Subroutine25 & 0xFFFF
//  761   pBuf += 2;
??CrossCallReturnLabel_47:
        JNC     ??MT_ZdoUserDescSet_1
        INC     R3
//  762 
//  763   /* Network address of interest */
//  764   shortAddr = BUILD_UINT16( pBuf[0], pBuf[1] );
??MT_ZdoUserDescSet_1:
        LCALL   ?Subroutine36 & 0xFFFF
??CrossCallReturnLabel_70:
        MOV     R6,A
        CLR     A
        ADDC    A,R1
        MOV     R7,A
//  765   pBuf += 2;
//  766 
//  767   /* User descriptor */
//  768   userDesc.len = *pBuf++;
        MOV     DPL,R2
        MOV     DPH,R3
        INC     DPTR
        INC     DPTR
        MOVX    A,@DPTR
        PUSH    A
          CFI CFA_SP SP+-1
        MOV     A,#0xa
        LCALL   ?XSTACK_DISP0_8
        POP     A
          CFI CFA_SP SP+0
        MOVX    @DPTR,A
//  769   osal_memcpy( userDesc.desc, pBuf, userDesc.len );
        ; Setup parameters for call to function osal_memcpy
        MOV     DPL,R2
        MOV     DPH,R3
        INC     DPTR
        INC     DPTR
        INC     DPTR
        MOV     R1,DPL
        MOV     R2,DPH
        MOV     ?V0,R1
        MOV     ?V1,R2
        MOV     ?V2,R0
        MOV     R0,#?V0
        LCALL   ?PUSH_XSTACK_I_THREE
          CFI CFA_XSP16 add(XSP16, 42)
        MOV     A,#0xd
        LCALL   ?XSTACK_DISP0_8
        MOVX    A,@DPTR
        MOV     R4,A
        MOV     R5,#0x0
        MOV     A,#0xe
        LCALL   ?XSTACK_DISP0_8
        MOV     R2,DPL
        MOV     R3,DPH
        LCALL   `??osal_memcpy::?relay`; Banked call to: osal_memcpy
        MOV     A,#0x3
        LCALL   ?DEALLOC_XSTACK8
          CFI CFA_XSP16 add(XSP16, 39)
//  770   pBuf += 16;
//  771 
//  772   retValue = (uint8)ZDP_UserDescSet( &destAddr, shortAddr, &userDesc, 0);
        ; Setup parameters for call to function ZDP_UserDescSet
        MOV     A,#0xa
        LCALL   ?XSTACK_DISP100_8
        MOV     ?V0,R0
        MOV     ?V1,R1
        MOV     R0,#?V0
        LCALL   ?PUSH_XSTACK_I_TWO
          CFI CFA_XSP16 add(XSP16, 41)
        MOV     R1,#0x0
        MOV     A,R6
        MOV     R4,A
        MOV     A,R7
        MOV     R5,A
        MOV     A,#0x3
        LCALL   ?XSTACK_DISP101_8
        LCALL   `??ZDP_UserDescSet::?relay`; Banked call to: ZDP_UserDescSet
        MOV     A,#0x2
        LCALL   ?DEALLOC_XSTACK8
          CFI CFA_XSP16 add(XSP16, 39)
        LCALL   ?Subroutine28 & 0xFFFF
//  773 
//  774   MT_BuildAndSendZToolResponse(((uint8)MT_RPC_CMD_SRSP | (uint8)MT_RPC_SYS_ZDO), cmdId, 1, &retValue);
??CrossCallReturnLabel_52:
        LCALL   `??MT_BuildAndSendZToolResponse::?relay`; Banked call to: MT_BuildAndSendZToolResponse
//  775 }
        MOV     A,#0x1b
        LCALL   ?DEALLOC_XSTACK8
          CFI CFA_XSP16 add(XSP16, 12)
        MOV     R7,#0x4
        LJMP    ?BANKED_LEAVE_XDATA
          CFI R6 SameValue
          CFI VB SameValue
          CFI V0 SameValue
          CFI V1 SameValue
          CFI V2 SameValue
          CFI V3 SameValue
          CFI R7 SameValue
          CFI ?RET_LOW Frame(CFA_SP, 1)
          CFI ?RET_HIGH Frame(CFA_SP, 2)
          CFI ?BRET_EXT Frame(CFA_SP, 3)
          CFI DPL0 SameValue
          CFI DPH0 SameValue
          CFI CFA_SP SP+-3
          CFI CFA_XSP16 XSP16+0
          CFI EndBlock cfiBlock90
//  776 
//  777 /***************************************************************************************************
//  778  * @fn      MT_ZdoServiceDiscRequest
//  779  *
//  780  * @brief   Handle a Server Discovery request.
//  781  *
//  782  * @param   pBuf  - MT message data
//  783  *
//  784  * @return  void
//  785  ***************************************************************************************************/

        RSEG BANKED_CODE:CODE:NOROOT(0)
//  786 void MT_ZdoServiceDiscRequest(uint8 *pBuf)
MT_ZdoServiceDiscRequest:
          CFI Block cfiBlock91 Using cfiCommon0
          CFI Function MT_ZdoServiceDiscRequest
        CODE
//  787 {
        FUNCALL MT_ZdoServiceDiscRequest, ZDP_ServerDiscReq
        LOCFRAME ISTACK, 0, STACK
        LOCFRAME PSTACK, 0, STACK
        LOCFRAME XSTACK, 10, STACK
        LOCFRAME IOVERLAY, 0, STATIC
        LOCFRAME DOVERLAY, 0, STATIC
        ARGFRAME ISTACK, 0, STACK
        ARGFRAME PSTACK, 0, STACK
        ARGFRAME XSTACK, 10, STACK
        ARGFRAME IOVERLAY, 0, STATIC
        ARGFRAME DOVERLAY, 0, STATIC
        FUNCALL MT_ZdoServiceDiscRequest, MT_BuildAndSendZToolResponse
        LOCFRAME ISTACK, 0, STACK
        LOCFRAME PSTACK, 0, STACK
        LOCFRAME XSTACK, 10, STACK
        LOCFRAME IOVERLAY, 0, STATIC
        LOCFRAME DOVERLAY, 0, STATIC
        ARGFRAME ISTACK, 0, STACK
        ARGFRAME PSTACK, 0, STACK
        ARGFRAME XSTACK, 10, STACK
        ARGFRAME IOVERLAY, 0, STATIC
        ARGFRAME DOVERLAY, 0, STATIC
        MOV     A,#-0x9
        LCALL   ?BANKED_ENTER_XDATA
          CFI DPH0 load(1, XDATA, add(CFA_XSP16, literal(-1)))
          CFI DPL0 load(1, XDATA, add(CFA_XSP16, literal(-2)))
          CFI ?BRET_EXT load(1, XDATA, add(CFA_XSP16, literal(-3)))
          CFI ?RET_HIGH load(1, XDATA, add(CFA_XSP16, literal(-4)))
          CFI ?RET_LOW load(1, XDATA, add(CFA_XSP16, literal(-5)))
          CFI R7 load(1, XDATA, add(CFA_XSP16, literal(-6)))
          CFI V0 load(1, XDATA, add(CFA_XSP16, literal(-7)))
          CFI VB load(1, XDATA, add(CFA_XSP16, literal(-8)))
          CFI R6 load(1, XDATA, add(CFA_XSP16, literal(-9)))
          CFI CFA_SP SP+0
          CFI CFA_XSP16 add(XSP16, 9)
        ; Saved register size: 9
        ; Auto size: 1
        MOV     A,#-0x1
        LCALL   ?ALLOC_XSTACK8
          CFI CFA_XSP16 add(XSP16, 10)
//  788   uint8 cmdId;
//  789   uint8 retValue;
//  790   uint16 serviceMask;
//  791 
//  792   /* parse header */
//  793   cmdId = pBuf[MT_RPC_POS_CMD1];
        LCALL   ??Subroutine41_0 & 0xFFFF
//  794   pBuf += MT_RPC_FRAME_HDR_SZ;
??CrossCallReturnLabel_92:
        JNC     ??MT_ZdoServiceDiscRequest_0
        INC     R3
//  795 
//  796   /* Service Mask */
//  797   serviceMask = BUILD_UINT16( pBuf[0], pBuf[1]);
//  798   pBuf += 2;
//  799 
//  800   retValue = (uint8)ZDP_ServerDiscReq( serviceMask, 0);
??MT_ZdoServiceDiscRequest_0:
        ; Setup parameters for call to function ZDP_ServerDiscReq
        MOV     R1,#0x0
        MOV     DPL,R2
        MOV     DPH,R3
        MOVX    A,@DPTR
        MOV     R4,A
        INC     DPTR
        MOVX    A,@DPTR
        MOV     R3,A
        MOV     A,R4
        MOV     R2,A
        LCALL   `??ZDP_ServerDiscReq::?relay`; Banked call to: ZDP_ServerDiscReq
        LJMP    ?Subroutine5 & 0xFFFF
//  801 
//  802   MT_BuildAndSendZToolResponse(((uint8)MT_RPC_CMD_SRSP | (uint8)MT_RPC_SYS_ZDO), cmdId, 1, &retValue);
//  803 }
          CFI EndBlock cfiBlock91
//  804 
//  805 /***************************************************************************************************
//  806  * @fn      MT_ZdoEndDevBindRequest
//  807  *
//  808  * @brief   Handle a End Device Bind request.
//  809  *
//  810  * @param   pBuf  - MT message data
//  811  *
//  812  * @return  void
//  813  ***************************************************************************************************/

        RSEG BANKED_CODE:CODE:NOROOT(0)
//  814 void MT_ZdoEndDevBindRequest(uint8 *pBuf)
MT_ZdoEndDevBindRequest:
          CFI Block cfiBlock92 Using cfiCommon0
          CFI Function MT_ZdoEndDevBindRequest
        CODE
//  815 {
        FUNCALL MT_ZdoEndDevBindRequest, ZDP_EndDeviceBindReq
        LOCFRAME ISTACK, 0, STACK
        LOCFRAME PSTACK, 0, STACK
        LOCFRAME XSTACK, 94, STACK
        LOCFRAME IOVERLAY, 0, STATIC
        LOCFRAME DOVERLAY, 0, STATIC
        ARGFRAME ISTACK, 0, STACK
        ARGFRAME PSTACK, 0, STACK
        ARGFRAME XSTACK, 94, STACK
        ARGFRAME IOVERLAY, 0, STATIC
        ARGFRAME DOVERLAY, 0, STATIC
        FUNCALL MT_ZdoEndDevBindRequest, MT_BuildAndSendZToolResponse
        LOCFRAME ISTACK, 0, STACK
        LOCFRAME PSTACK, 0, STACK
        LOCFRAME XSTACK, 85, STACK
        LOCFRAME IOVERLAY, 0, STATIC
        LOCFRAME DOVERLAY, 0, STATIC
        ARGFRAME ISTACK, 0, STACK
        ARGFRAME PSTACK, 0, STACK
        ARGFRAME XSTACK, 85, STACK
        ARGFRAME IOVERLAY, 0, STATIC
        ARGFRAME DOVERLAY, 0, STATIC
        REQUIRE ?V0
        REQUIRE ?V1
        REQUIRE ?V2
        REQUIRE ?V3
        REQUIRE ?V4
        REQUIRE ?V5
        REQUIRE ?V6
        MOV     A,#-0xf
        LCALL   ?BANKED_ENTER_XDATA
          CFI DPH0 load(1, XDATA, add(CFA_XSP16, literal(-1)))
          CFI DPL0 load(1, XDATA, add(CFA_XSP16, literal(-2)))
          CFI ?BRET_EXT load(1, XDATA, add(CFA_XSP16, literal(-3)))
          CFI ?RET_HIGH load(1, XDATA, add(CFA_XSP16, literal(-4)))
          CFI ?RET_LOW load(1, XDATA, add(CFA_XSP16, literal(-5)))
          CFI R7 load(1, XDATA, add(CFA_XSP16, literal(-6)))
          CFI V6 load(1, XDATA, add(CFA_XSP16, literal(-7)))
          CFI V5 load(1, XDATA, add(CFA_XSP16, literal(-8)))
          CFI V4 load(1, XDATA, add(CFA_XSP16, literal(-9)))
          CFI V3 load(1, XDATA, add(CFA_XSP16, literal(-10)))
          CFI V2 load(1, XDATA, add(CFA_XSP16, literal(-11)))
          CFI V1 load(1, XDATA, add(CFA_XSP16, literal(-12)))
          CFI V0 load(1, XDATA, add(CFA_XSP16, literal(-13)))
          CFI VB load(1, XDATA, add(CFA_XSP16, literal(-14)))
          CFI R6 load(1, XDATA, add(CFA_XSP16, literal(-15)))
          CFI CFA_SP SP+0
          CFI CFA_XSP16 add(XSP16, 15)
        ; Saved register size: 15
        ; Auto size: 70
        MOV     A,#-0x46
        LCALL   ?ALLOC_XSTACK8
          CFI CFA_XSP16 add(XSP16, 85)
        MOV     A,R2
        MOV     R6,A
        MOV     A,R3
        MOV     R7,A
//  816   uint8 cmdId;
//  817   uint8 retValue = 0;
        MOV     DPL,?XSP + 0
        MOV     DPH,?XSP + 1
        CLR     A
        MOVX    @DPTR,A
//  818   uint8 i, epInt, numInClusters, numOutClusters;
//  819   zAddrType_t destAddr;
//  820   uint16 shortAddr;
//  821   uint16 profileID, inClusters[MTZDO_MAX_ED_BIND_CLUSTERS], outClusters[MTZDO_MAX_ED_BIND_CLUSTERS];
//  822 
//  823   /* parse header */
//  824   cmdId = pBuf[MT_RPC_POS_CMD1];
        MOV     DPL,R6
        MOV     DPH,R7
        INC     DPTR
        INC     DPTR
        MOVX    A,@DPTR
        MOV     ?V6,A
//  825   pBuf += MT_RPC_FRAME_HDR_SZ;
        MOV     A,R6
        ADD     A,#0x3
        MOV     R6,A
        JNC     ??MT_ZdoEndDevBindRequest_0
        INC     R7
//  826 
//  827   /* Dev address */
//  828   destAddr.addrMode = Addr16Bit;
??MT_ZdoEndDevBindRequest_0:
        MOV     A,#0x9
        LCALL   ?XSTACK_DISP0_8
        MOV     A,#0x2
        MOVX    @DPTR,A
//  829   destAddr.addr.shortAddr = BUILD_UINT16( pBuf[0], pBuf[1] );
        MOV     DPL,R6
        MOV     DPH,R7
        LCALL   ??Subroutine46_0 & 0xFFFF
??CrossCallReturnLabel_97:
        LCALL   ?XSTACK_DISP0_8
        MOV     A,R0
        MOVX    @DPTR,A
        INC     DPTR
        MOV     A,R1
        MOVX    @DPTR,A
//  830   pBuf += 2;
        MOV     A,R6
        ADD     A,#0x2
        MOV     R6,A
        JNC     ??MT_ZdoEndDevBindRequest_1
        INC     R7
//  831 
//  832   /* Local coordinator of the binding */
//  833   shortAddr = BUILD_UINT16( pBuf[0], pBuf[1] );
??MT_ZdoEndDevBindRequest_1:
        MOV     DPL,R6
        MOV     DPH,R7
        LCALL   ?Subroutine31 & 0xFFFF
??CrossCallReturnLabel_59:
        MOV     R4,A
        CLR     A
        ADDC    A,R1
        MOV     R5,A
//  834   pBuf += 2;
//  835   
//  836   /* For now, skip past the extended address */
//  837   pBuf += Z_EXTADDR_LEN;
//  838 
//  839   /* Endpoint */
//  840   epInt = *pBuf++;
        MOV     DPL,R6
        MOV     DPH,R7
        INC     DPTR
        INC     DPTR
        INC     DPTR
        INC     DPTR
        INC     DPTR
        INC     DPTR
        INC     DPTR
        INC     DPTR
        INC     DPTR
        INC     DPTR
        MOVX    A,@DPTR
        MOV     R1,A
        MOV     A,R6
        ADD     A,#0xb
        MOV     R6,A
        JNC     ??MT_ZdoEndDevBindRequest_2
        INC     R7
//  841 
//  842   /* Profile ID */
//  843   profileID = BUILD_UINT16( pBuf[0], pBuf[1] );
??MT_ZdoEndDevBindRequest_2:
        MOV     DPL,R6
        MOV     DPH,R7
        LCALL   ?Subroutine15 & 0xFFFF
//  844   pBuf += 2;
//  845 
//  846   /* NumInClusters */
//  847   numInClusters = *pBuf++;
??CrossCallReturnLabel_21:
        MOV     DPL,R6
        MOV     DPH,R7
        INC     DPTR
        INC     DPTR
        MOVX    A,@DPTR
        MOV     ?V2,A
        MOV     A,R6
        ADD     A,#0x3
        MOV     R6,A
        JNC     ??MT_ZdoEndDevBindRequest_3
        INC     R7
//  848   if ( numInClusters <= MTZDO_MAX_ED_BIND_CLUSTERS )
??MT_ZdoEndDevBindRequest_3:
        MOV     A,?V2
        CLR     C
        SUBB    A,#0x10
        JNC     ??MT_ZdoEndDevBindRequest_4
//  849   {
//  850     for ( i = 0; i < numInClusters; i++ )
        MOV     R0,#0x0
??MT_ZdoEndDevBindRequest_5:
        MOV     A,R0
        CLR     C
        SUBB    A,?V2
        JNC     ??MT_ZdoEndDevBindRequest_6
//  851     {
//  852       inClusters[i] = BUILD_UINT16(pBuf[0], pBuf[1]);
        LCALL   ?Subroutine9 & 0xFFFF
//  853       pBuf += 2;
//  854     }
??CrossCallReturnLabel_9:
        MOV     A,#0x28
        LCALL   ?XSTACK_DISP0_8
        LCALL   ?Subroutine22 & 0xFFFF
??CrossCallReturnLabel_34:
        JNC     ??MT_ZdoEndDevBindRequest_7
        INC     R7
??MT_ZdoEndDevBindRequest_7:
        INC     R0
        SJMP    ??MT_ZdoEndDevBindRequest_5
//  855   }
//  856   else
//  857     retValue = ZDP_INVALID_REQTYPE;
??MT_ZdoEndDevBindRequest_4:
        MOV     DPL,?XSP + 0
        MOV     DPH,?XSP + 1
        MOV     A,#-0x80
        MOVX    @DPTR,A
//  858 
//  859   /* NumOutClusters */
//  860   numOutClusters = *pBuf++;
??MT_ZdoEndDevBindRequest_6:
        MOV     DPL,R6
        MOV     DPH,R7
        MOVX    A,@DPTR
        MOV     ?V3,A
        INC     DPTR
        MOV     R6,DPL
        MOV     R7,DPH
//  861   if ( numOutClusters <= MTZDO_MAX_ED_BIND_CLUSTERS )
        CLR     C
        SUBB    A,#0x10
        JNC     ??MT_ZdoEndDevBindRequest_8
//  862   {
//  863     for ( i = 0; i < numOutClusters; i++ )
        MOV     R0,#0x0
??MT_ZdoEndDevBindRequest_9:
        MOV     A,R0
        CLR     C
        SUBB    A,?V3
        JNC     ??MT_ZdoEndDevBindRequest_10
//  864     {
//  865       outClusters[i] = BUILD_UINT16(pBuf[0], pBuf[1]);
        LCALL   ?Subroutine9 & 0xFFFF
//  866       pBuf += 2;
//  867     }
??CrossCallReturnLabel_10:
        MOV     A,#0xa
        LCALL   ?XSTACK_DISP0_8
        LCALL   ?Subroutine22 & 0xFFFF
??CrossCallReturnLabel_35:
        JNC     ??MT_ZdoEndDevBindRequest_11
        INC     R7
??MT_ZdoEndDevBindRequest_11:
        INC     R0
        SJMP    ??MT_ZdoEndDevBindRequest_9
//  868   }
//  869   else
//  870     retValue = ZDP_INVALID_REQTYPE;
??MT_ZdoEndDevBindRequest_8:
        MOV     DPL,?XSP + 0
        MOV     DPH,?XSP + 1
        MOV     A,#-0x80
        SJMP    ??MT_ZdoEndDevBindRequest_12
//  871   
//  872   if ( retValue == 0 )
??MT_ZdoEndDevBindRequest_10:
        MOV     DPL,?XSP + 0
        MOV     DPH,?XSP + 1
        MOVX    A,@DPTR
        JNZ     ??MT_ZdoEndDevBindRequest_13
//  873   {
//  874     retValue = (uint8)ZDP_EndDeviceBindReq( &destAddr, shortAddr, epInt, profileID,
//  875                                           numInClusters, inClusters, numOutClusters, outClusters, 0);
        ; Setup parameters for call to function ZDP_EndDeviceBindReq
        MOV     ?V0,#0x0
        MOV     R0,#?V0
        LCALL   ?PUSH_XSTACK_I_ONE
          CFI CFA_XSP16 add(XSP16, 86)
        MOV     A,#0xb
        LCALL   ?XSTACK_DISP103_8
        MOV     ?V0,R6
        MOV     ?V1,R7
        MOV     R0,#?V0
        LCALL   ?PUSH_XSTACK_I_TWO
          CFI CFA_XSP16 add(XSP16, 88)
        MOV     A,?V3
        MOV     ?V0,A
        MOV     R0,#?V0
        LCALL   ?PUSH_XSTACK_I_ONE
          CFI CFA_XSP16 add(XSP16, 89)
        MOV     A,#0x2c
        LCALL   ?XSTACK_DISP103_8
        MOV     ?V0,R6
        MOV     ?V1,R7
        MOV     R0,#?V0
        LCALL   ?PUSH_XSTACK_I_TWO
          CFI CFA_XSP16 add(XSP16, 91)
        MOV     A,?V2
        MOV     ?V0,A
        MOV     R0,#?V0
        LCALL   ?PUSH_XSTACK_I_ONE
          CFI CFA_XSP16 add(XSP16, 92)
        MOV     ?V0,R2
        MOV     ?V1,R3
        MOV     R0,#?V0
        LCALL   ?PUSH_XSTACK_I_TWO
          CFI CFA_XSP16 add(XSP16, 94)
        MOV     A,#0xa
        LCALL   ?XSTACK_DISP101_8
        LCALL   `??ZDP_EndDeviceBindReq::?relay`; Banked call to: ZDP_EndDeviceBindReq
        MOV     A,#0x9
        LCALL   ?DEALLOC_XSTACK8
          CFI CFA_XSP16 add(XSP16, 85)
        MOV     A,R1
        MOV     DPL,?XSP + 0
        MOV     DPH,?XSP + 1
??MT_ZdoEndDevBindRequest_12:
        MOVX    @DPTR,A
//  876   }
//  877 
//  878   MT_BuildAndSendZToolResponse(((uint8)MT_RPC_CMD_SRSP | (uint8)MT_RPC_SYS_ZDO), cmdId, 1, &retValue);
??MT_ZdoEndDevBindRequest_13:
        ; Setup parameters for call to function MT_BuildAndSendZToolResponse
        MOV     R4,?XSP + 0
        MOV     R5,?XSP + 1
        MOV     R3,#0x1
        MOV     R2,?V6
        MOV     R1,#0x65
        LCALL   `??MT_BuildAndSendZToolResponse::?relay`; Banked call to: MT_BuildAndSendZToolResponse
//  879 }
        MOV     A,#0x46
        LCALL   ?DEALLOC_XSTACK8
          CFI CFA_XSP16 add(XSP16, 15)
          CFI EndBlock cfiBlock92
        REQUIRE ?Subroutine3
        ; // Fall through to label ?Subroutine3

        RSEG BANKED_CODE:CODE:NOROOT(0)
?Subroutine3:
          CFI Block cfiBlock93 Using cfiCommon0
          CFI NoFunction
          CFI CFA_SP SP+0
          CFI CFA_XSP16 add(XSP16, 15)
          CFI VB load(1, XDATA, add(CFA_XSP16, literal(-14)))
          CFI DPL0 load(1, XDATA, add(CFA_XSP16, literal(-2)))
          CFI DPH0 load(1, XDATA, add(CFA_XSP16, literal(-1)))
          CFI R6 load(1, XDATA, add(CFA_XSP16, literal(-15)))
          CFI R7 load(1, XDATA, add(CFA_XSP16, literal(-6)))
          CFI V0 load(1, XDATA, add(CFA_XSP16, literal(-13)))
          CFI V1 load(1, XDATA, add(CFA_XSP16, literal(-12)))
          CFI V2 load(1, XDATA, add(CFA_XSP16, literal(-11)))
          CFI V3 load(1, XDATA, add(CFA_XSP16, literal(-10)))
          CFI V4 load(1, XDATA, add(CFA_XSP16, literal(-9)))
          CFI V5 load(1, XDATA, add(CFA_XSP16, literal(-8)))
          CFI V6 load(1, XDATA, add(CFA_XSP16, literal(-7)))
          CFI ?BRET_EXT load(1, XDATA, add(CFA_XSP16, literal(-3)))
          CFI ?RET_HIGH load(1, XDATA, add(CFA_XSP16, literal(-4)))
          CFI ?RET_LOW load(1, XDATA, add(CFA_XSP16, literal(-5)))
        MOV     R7,#0x7
        LJMP    ?BANKED_LEAVE_XDATA
          CFI CFA_SP SP+-3
          CFI CFA_XSP16 XSP16+0
          CFI VB SameValue
          CFI DPL0 SameValue
          CFI DPH0 SameValue
          CFI R6 SameValue
          CFI R7 SameValue
          CFI V0 SameValue
          CFI V1 SameValue
          CFI V2 SameValue
          CFI V3 SameValue
          CFI V4 SameValue
          CFI V5 SameValue
          CFI V6 SameValue
          CFI ?BRET_EXT Frame(CFA_SP, 3)
          CFI ?RET_HIGH Frame(CFA_SP, 2)
          CFI ?RET_LOW Frame(CFA_SP, 1)
          CFI EndBlock cfiBlock93

        RSEG BANKED_CODE:CODE:NOROOT(0)
?Subroutine22:
          CFI Block cfiCond94 Using cfiCommon0
          CFI Function MT_ZdoEndDevBindRequest
          CFI Conditional ??CrossCallReturnLabel_34
          CFI R6 load(1, XDATA, add(CFA_XSP16, literal(-15)))
          CFI VB load(1, XDATA, add(CFA_XSP16, literal(-14)))
          CFI V0 load(1, XDATA, add(CFA_XSP16, literal(-13)))
          CFI V1 load(1, XDATA, add(CFA_XSP16, literal(-12)))
          CFI V2 load(1, XDATA, add(CFA_XSP16, literal(-11)))
          CFI V3 load(1, XDATA, add(CFA_XSP16, literal(-10)))
          CFI V4 load(1, XDATA, add(CFA_XSP16, literal(-9)))
          CFI V5 load(1, XDATA, add(CFA_XSP16, literal(-8)))
          CFI V6 load(1, XDATA, add(CFA_XSP16, literal(-7)))
          CFI R7 load(1, XDATA, add(CFA_XSP16, literal(-6)))
          CFI ?RET_LOW load(1, XDATA, add(CFA_XSP16, literal(-5)))
          CFI ?RET_HIGH load(1, XDATA, add(CFA_XSP16, literal(-4)))
          CFI ?BRET_EXT load(1, XDATA, add(CFA_XSP16, literal(-3)))
          CFI DPL0 load(1, XDATA, add(CFA_XSP16, literal(-2)))
          CFI DPH0 load(1, XDATA, add(CFA_XSP16, literal(-1)))
          CFI CFA_SP SP+-2
          CFI CFA_XSP16 add(XSP16, 85)
          CFI Block cfiCond95 Using cfiCommon0
          CFI (cfiCond95) Function MT_ZdoEndDevBindRequest
          CFI (cfiCond95) Conditional ??CrossCallReturnLabel_35
          CFI (cfiCond95) R6 load(1, XDATA, add(CFA_XSP16, literal(-15)))
          CFI (cfiCond95) VB load(1, XDATA, add(CFA_XSP16, literal(-14)))
          CFI (cfiCond95) V0 load(1, XDATA, add(CFA_XSP16, literal(-13)))
          CFI (cfiCond95) V1 load(1, XDATA, add(CFA_XSP16, literal(-12)))
          CFI (cfiCond95) V2 load(1, XDATA, add(CFA_XSP16, literal(-11)))
          CFI (cfiCond95) V3 load(1, XDATA, add(CFA_XSP16, literal(-10)))
          CFI (cfiCond95) V4 load(1, XDATA, add(CFA_XSP16, literal(-9)))
          CFI (cfiCond95) V5 load(1, XDATA, add(CFA_XSP16, literal(-8)))
          CFI (cfiCond95) V6 load(1, XDATA, add(CFA_XSP16, literal(-7)))
          CFI (cfiCond95) R7 load(1, XDATA, add(CFA_XSP16, literal(-6)))
          CFI (cfiCond95) ?RET_LOW load(1, XDATA, add(CFA_XSP16, literal(-5)))
          CFI (cfiCond95) ?RET_HIGH load(1, XDATA, add(CFA_XSP16, literal(-4)))
          CFI (cfiCond95) ?BRET_EXT load(1, XDATA, add(CFA_XSP16, literal(-3)))
          CFI (cfiCond95) DPL0 load(1, XDATA, add(CFA_XSP16, literal(-2)))
          CFI (cfiCond95) DPH0 load(1, XDATA, add(CFA_XSP16, literal(-1)))
          CFI (cfiCond95) CFA_SP SP+-2
          CFI (cfiCond95) CFA_XSP16 add(XSP16, 85)
          CFI Block cfiPicker96 Using cfiCommon1
          CFI (cfiPicker96) NoFunction
          CFI (cfiPicker96) Picker
        LCALL   ?Subroutine34 & 0xFFFF
??CrossCallReturnLabel_67:
        MOV     A,R6
        ADD     A,#0x2
        MOV     R6,A
        RET
          CFI (cfiCond94) CFA_SP SP+0
          CFI (cfiCond95) CFA_SP SP+0
          CFI (cfiPicker96) CFA_SP SP+0
          CFI EndBlock cfiCond94
          CFI EndBlock cfiCond95
          CFI EndBlock cfiPicker96

        RSEG BANKED_CODE:CODE:NOROOT(0)
?Subroutine34:
          CFI Block cfiCond97 Using cfiCommon0
          CFI Function MT_ZdoMatchDescRequest
          CFI Conditional ??CrossCallReturnLabel_66, ??CrossCallReturnLabel_32
          CFI R6 load(1, XDATA, add(CFA_XSP16, literal(-14)))
          CFI VB load(1, XDATA, add(CFA_XSP16, literal(-13)))
          CFI V0 load(1, XDATA, add(CFA_XSP16, literal(-12)))
          CFI V1 load(1, XDATA, add(CFA_XSP16, literal(-11)))
          CFI V2 load(1, XDATA, add(CFA_XSP16, literal(-10)))
          CFI V3 load(1, XDATA, add(CFA_XSP16, literal(-9)))
          CFI V4 load(1, XDATA, add(CFA_XSP16, literal(-8)))
          CFI V5 load(1, XDATA, add(CFA_XSP16, literal(-7)))
          CFI R7 load(1, XDATA, add(CFA_XSP16, literal(-6)))
          CFI ?RET_LOW load(1, XDATA, add(CFA_XSP16, literal(-5)))
          CFI ?RET_HIGH load(1, XDATA, add(CFA_XSP16, literal(-4)))
          CFI ?BRET_EXT load(1, XDATA, add(CFA_XSP16, literal(-3)))
          CFI DPL0 load(1, XDATA, add(CFA_XSP16, literal(-2)))
          CFI DPH0 load(1, XDATA, add(CFA_XSP16, literal(-1)))
          CFI CFA_SP SP+-4
          CFI CFA_XSP16 add(XSP16, 88)
          CFI Block cfiCond98 Using cfiCommon0
          CFI (cfiCond98) Function MT_ZdoMatchDescRequest
          CFI (cfiCond98) Conditional ??CrossCallReturnLabel_66, ??CrossCallReturnLabel_33
          CFI (cfiCond98) R6 load(1, XDATA, add(CFA_XSP16, literal(-14)))
          CFI (cfiCond98) VB load(1, XDATA, add(CFA_XSP16, literal(-13)))
          CFI (cfiCond98) V0 load(1, XDATA, add(CFA_XSP16, literal(-12)))
          CFI (cfiCond98) V1 load(1, XDATA, add(CFA_XSP16, literal(-11)))
          CFI (cfiCond98) V2 load(1, XDATA, add(CFA_XSP16, literal(-10)))
          CFI (cfiCond98) V3 load(1, XDATA, add(CFA_XSP16, literal(-9)))
          CFI (cfiCond98) V4 load(1, XDATA, add(CFA_XSP16, literal(-8)))
          CFI (cfiCond98) V5 load(1, XDATA, add(CFA_XSP16, literal(-7)))
          CFI (cfiCond98) R7 load(1, XDATA, add(CFA_XSP16, literal(-6)))
          CFI (cfiCond98) ?RET_LOW load(1, XDATA, add(CFA_XSP16, literal(-5)))
          CFI (cfiCond98) ?RET_HIGH load(1, XDATA, add(CFA_XSP16, literal(-4)))
          CFI (cfiCond98) ?BRET_EXT load(1, XDATA, add(CFA_XSP16, literal(-3)))
          CFI (cfiCond98) DPL0 load(1, XDATA, add(CFA_XSP16, literal(-2)))
          CFI (cfiCond98) DPH0 load(1, XDATA, add(CFA_XSP16, literal(-1)))
          CFI (cfiCond98) CFA_SP SP+-4
          CFI (cfiCond98) CFA_XSP16 add(XSP16, 88)
          CFI Block cfiCond99 Using cfiCommon0
          CFI (cfiCond99) Function MT_ZdoEndDevBindRequest
          CFI (cfiCond99) Conditional ??CrossCallReturnLabel_67, ??CrossCallReturnLabel_34
          CFI (cfiCond99) R6 load(1, XDATA, add(CFA_XSP16, literal(-15)))
          CFI (cfiCond99) VB load(1, XDATA, add(CFA_XSP16, literal(-14)))
          CFI (cfiCond99) V0 load(1, XDATA, add(CFA_XSP16, literal(-13)))
          CFI (cfiCond99) V1 load(1, XDATA, add(CFA_XSP16, literal(-12)))
          CFI (cfiCond99) V2 load(1, XDATA, add(CFA_XSP16, literal(-11)))
          CFI (cfiCond99) V3 load(1, XDATA, add(CFA_XSP16, literal(-10)))
          CFI (cfiCond99) V4 load(1, XDATA, add(CFA_XSP16, literal(-9)))
          CFI (cfiCond99) V5 load(1, XDATA, add(CFA_XSP16, literal(-8)))
          CFI (cfiCond99) V6 load(1, XDATA, add(CFA_XSP16, literal(-7)))
          CFI (cfiCond99) R7 load(1, XDATA, add(CFA_XSP16, literal(-6)))
          CFI (cfiCond99) ?RET_LOW load(1, XDATA, add(CFA_XSP16, literal(-5)))
          CFI (cfiCond99) ?RET_HIGH load(1, XDATA, add(CFA_XSP16, literal(-4)))
          CFI (cfiCond99) ?BRET_EXT load(1, XDATA, add(CFA_XSP16, literal(-3)))
          CFI (cfiCond99) DPL0 load(1, XDATA, add(CFA_XSP16, literal(-2)))
          CFI (cfiCond99) DPH0 load(1, XDATA, add(CFA_XSP16, literal(-1)))
          CFI (cfiCond99) CFA_SP SP+-4
          CFI (cfiCond99) CFA_XSP16 add(XSP16, 85)
          CFI Block cfiCond100 Using cfiCommon0
          CFI (cfiCond100) Function MT_ZdoEndDevBindRequest
          CFI (cfiCond100) Conditional ??CrossCallReturnLabel_67, ??CrossCallReturnLabel_35
          CFI (cfiCond100) R6 load(1, XDATA, add(CFA_XSP16, literal(-15)))
          CFI (cfiCond100) VB load(1, XDATA, add(CFA_XSP16, literal(-14)))
          CFI (cfiCond100) V0 load(1, XDATA, add(CFA_XSP16, literal(-13)))
          CFI (cfiCond100) V1 load(1, XDATA, add(CFA_XSP16, literal(-12)))
          CFI (cfiCond100) V2 load(1, XDATA, add(CFA_XSP16, literal(-11)))
          CFI (cfiCond100) V3 load(1, XDATA, add(CFA_XSP16, literal(-10)))
          CFI (cfiCond100) V4 load(1, XDATA, add(CFA_XSP16, literal(-9)))
          CFI (cfiCond100) V5 load(1, XDATA, add(CFA_XSP16, literal(-8)))
          CFI (cfiCond100) V6 load(1, XDATA, add(CFA_XSP16, literal(-7)))
          CFI (cfiCond100) R7 load(1, XDATA, add(CFA_XSP16, literal(-6)))
          CFI (cfiCond100) ?RET_LOW load(1, XDATA, add(CFA_XSP16, literal(-5)))
          CFI (cfiCond100) ?RET_HIGH load(1, XDATA, add(CFA_XSP16, literal(-4)))
          CFI (cfiCond100) ?BRET_EXT load(1, XDATA, add(CFA_XSP16, literal(-3)))
          CFI (cfiCond100) DPL0 load(1, XDATA, add(CFA_XSP16, literal(-2)))
          CFI (cfiCond100) DPH0 load(1, XDATA, add(CFA_XSP16, literal(-1)))
          CFI (cfiCond100) CFA_SP SP+-4
          CFI (cfiCond100) CFA_XSP16 add(XSP16, 85)
          CFI Block cfiPicker101 Using cfiCommon1
          CFI (cfiPicker101) NoFunction
          CFI (cfiPicker101) Picker
        MOV     A,DPL
        ADD     A,?V0
        MOV     DPL,A
        MOV     A,DPH
        ADDC    A,?V1
        MOV     DPH,A
        MOV     A,?V4
        MOVX    @DPTR,A
        INC     DPTR
        MOV     A,?V5
        MOVX    @DPTR,A
        RET
          CFI (cfiCond97) CFA_SP SP+-2
          CFI (cfiCond98) CFA_SP SP+-2
          CFI (cfiCond99) CFA_SP SP+-2
          CFI (cfiCond100) CFA_SP SP+-2
          CFI (cfiPicker101) CFA_SP SP+0
          CFI EndBlock cfiCond97
          CFI EndBlock cfiCond98
          CFI EndBlock cfiCond99
          CFI EndBlock cfiCond100
          CFI EndBlock cfiPicker101

        RSEG BANKED_CODE:CODE:NOROOT(0)
?Subroutine9:
          CFI Block cfiCond102 Using cfiCommon0
          CFI Function MT_ZdoEndDevBindRequest
          CFI Conditional ??CrossCallReturnLabel_9
          CFI R6 load(1, XDATA, add(CFA_XSP16, literal(-15)))
          CFI VB load(1, XDATA, add(CFA_XSP16, literal(-14)))
          CFI V0 load(1, XDATA, add(CFA_XSP16, literal(-13)))
          CFI V1 load(1, XDATA, add(CFA_XSP16, literal(-12)))
          CFI V2 load(1, XDATA, add(CFA_XSP16, literal(-11)))
          CFI V3 load(1, XDATA, add(CFA_XSP16, literal(-10)))
          CFI V4 load(1, XDATA, add(CFA_XSP16, literal(-9)))
          CFI V5 load(1, XDATA, add(CFA_XSP16, literal(-8)))
          CFI V6 load(1, XDATA, add(CFA_XSP16, literal(-7)))
          CFI R7 load(1, XDATA, add(CFA_XSP16, literal(-6)))
          CFI ?RET_LOW load(1, XDATA, add(CFA_XSP16, literal(-5)))
          CFI ?RET_HIGH load(1, XDATA, add(CFA_XSP16, literal(-4)))
          CFI ?BRET_EXT load(1, XDATA, add(CFA_XSP16, literal(-3)))
          CFI DPL0 load(1, XDATA, add(CFA_XSP16, literal(-2)))
          CFI DPH0 load(1, XDATA, add(CFA_XSP16, literal(-1)))
          CFI CFA_SP SP+-2
          CFI CFA_XSP16 add(XSP16, 85)
          CFI Block cfiCond103 Using cfiCommon0
          CFI (cfiCond103) Function MT_ZdoEndDevBindRequest
          CFI (cfiCond103) Conditional ??CrossCallReturnLabel_10
          CFI (cfiCond103) R6 load(1, XDATA, add(CFA_XSP16, literal(-15)))
          CFI (cfiCond103) VB load(1, XDATA, add(CFA_XSP16, literal(-14)))
          CFI (cfiCond103) V0 load(1, XDATA, add(CFA_XSP16, literal(-13)))
          CFI (cfiCond103) V1 load(1, XDATA, add(CFA_XSP16, literal(-12)))
          CFI (cfiCond103) V2 load(1, XDATA, add(CFA_XSP16, literal(-11)))
          CFI (cfiCond103) V3 load(1, XDATA, add(CFA_XSP16, literal(-10)))
          CFI (cfiCond103) V4 load(1, XDATA, add(CFA_XSP16, literal(-9)))
          CFI (cfiCond103) V5 load(1, XDATA, add(CFA_XSP16, literal(-8)))
          CFI (cfiCond103) V6 load(1, XDATA, add(CFA_XSP16, literal(-7)))
          CFI (cfiCond103) R7 load(1, XDATA, add(CFA_XSP16, literal(-6)))
          CFI (cfiCond103) ?RET_LOW load(1, XDATA, add(CFA_XSP16, literal(-5)))
          CFI (cfiCond103) ?RET_HIGH load(1, XDATA, add(CFA_XSP16, literal(-4)))
          CFI (cfiCond103) ?BRET_EXT load(1, XDATA, add(CFA_XSP16, literal(-3)))
          CFI (cfiCond103) DPL0 load(1, XDATA, add(CFA_XSP16, literal(-2)))
          CFI (cfiCond103) DPH0 load(1, XDATA, add(CFA_XSP16, literal(-1)))
          CFI (cfiCond103) CFA_SP SP+-2
          CFI (cfiCond103) CFA_XSP16 add(XSP16, 85)
          CFI Block cfiPicker104 Using cfiCommon1
          CFI (cfiPicker104) NoFunction
          CFI (cfiPicker104) Picker
        MOV     DPL,R6
        MOV     DPH,R7
        LCALL   ?Subroutine33 & 0xFFFF
??CrossCallReturnLabel_65:
        MOV     ?V0,R0
        LCALL   ?Subroutine38 & 0xFFFF
??CrossCallReturnLabel_74:
        RET
          CFI (cfiCond102) CFA_SP SP+0
          CFI (cfiCond103) CFA_SP SP+0
          CFI (cfiPicker104) CFA_SP SP+0
          CFI EndBlock cfiCond102
          CFI EndBlock cfiCond103
          CFI EndBlock cfiPicker104

        RSEG BANKED_CODE:CODE:NOROOT(0)
?Subroutine38:
          CFI Block cfiCond105 Using cfiCommon0
          CFI Function MT_ZdoMatchDescRequest
          CFI Conditional ??CrossCallReturnLabel_75, ??CrossCallReturnLabel_57
          CFI R6 load(1, XDATA, add(CFA_XSP16, literal(-14)))
          CFI VB load(1, XDATA, add(CFA_XSP16, literal(-13)))
          CFI V0 load(1, XDATA, add(CFA_XSP16, literal(-12)))
          CFI V1 load(1, XDATA, add(CFA_XSP16, literal(-11)))
          CFI V2 load(1, XDATA, add(CFA_XSP16, literal(-10)))
          CFI V3 load(1, XDATA, add(CFA_XSP16, literal(-9)))
          CFI V4 load(1, XDATA, add(CFA_XSP16, literal(-8)))
          CFI V5 load(1, XDATA, add(CFA_XSP16, literal(-7)))
          CFI R7 load(1, XDATA, add(CFA_XSP16, literal(-6)))
          CFI ?RET_LOW load(1, XDATA, add(CFA_XSP16, literal(-5)))
          CFI ?RET_HIGH load(1, XDATA, add(CFA_XSP16, literal(-4)))
          CFI ?BRET_EXT load(1, XDATA, add(CFA_XSP16, literal(-3)))
          CFI DPL0 load(1, XDATA, add(CFA_XSP16, literal(-2)))
          CFI DPH0 load(1, XDATA, add(CFA_XSP16, literal(-1)))
          CFI CFA_SP SP+-4
          CFI CFA_XSP16 add(XSP16, 88)
          CFI Block cfiCond106 Using cfiCommon0
          CFI (cfiCond106) Function MT_ZdoMatchDescRequest
          CFI (cfiCond106) Conditional ??CrossCallReturnLabel_75, ??CrossCallReturnLabel_58
          CFI (cfiCond106) R6 load(1, XDATA, add(CFA_XSP16, literal(-14)))
          CFI (cfiCond106) VB load(1, XDATA, add(CFA_XSP16, literal(-13)))
          CFI (cfiCond106) V0 load(1, XDATA, add(CFA_XSP16, literal(-12)))
          CFI (cfiCond106) V1 load(1, XDATA, add(CFA_XSP16, literal(-11)))
          CFI (cfiCond106) V2 load(1, XDATA, add(CFA_XSP16, literal(-10)))
          CFI (cfiCond106) V3 load(1, XDATA, add(CFA_XSP16, literal(-9)))
          CFI (cfiCond106) V4 load(1, XDATA, add(CFA_XSP16, literal(-8)))
          CFI (cfiCond106) V5 load(1, XDATA, add(CFA_XSP16, literal(-7)))
          CFI (cfiCond106) R7 load(1, XDATA, add(CFA_XSP16, literal(-6)))
          CFI (cfiCond106) ?RET_LOW load(1, XDATA, add(CFA_XSP16, literal(-5)))
          CFI (cfiCond106) ?RET_HIGH load(1, XDATA, add(CFA_XSP16, literal(-4)))
          CFI (cfiCond106) ?BRET_EXT load(1, XDATA, add(CFA_XSP16, literal(-3)))
          CFI (cfiCond106) DPL0 load(1, XDATA, add(CFA_XSP16, literal(-2)))
          CFI (cfiCond106) DPH0 load(1, XDATA, add(CFA_XSP16, literal(-1)))
          CFI (cfiCond106) CFA_SP SP+-4
          CFI (cfiCond106) CFA_XSP16 add(XSP16, 88)
          CFI Block cfiCond107 Using cfiCommon0
          CFI (cfiCond107) Function MT_ZdoEndDevBindRequest
          CFI (cfiCond107) Conditional ??CrossCallReturnLabel_74, ??CrossCallReturnLabel_9
          CFI (cfiCond107) R6 load(1, XDATA, add(CFA_XSP16, literal(-15)))
          CFI (cfiCond107) VB load(1, XDATA, add(CFA_XSP16, literal(-14)))
          CFI (cfiCond107) V0 load(1, XDATA, add(CFA_XSP16, literal(-13)))
          CFI (cfiCond107) V1 load(1, XDATA, add(CFA_XSP16, literal(-12)))
          CFI (cfiCond107) V2 load(1, XDATA, add(CFA_XSP16, literal(-11)))
          CFI (cfiCond107) V3 load(1, XDATA, add(CFA_XSP16, literal(-10)))
          CFI (cfiCond107) V4 load(1, XDATA, add(CFA_XSP16, literal(-9)))
          CFI (cfiCond107) V5 load(1, XDATA, add(CFA_XSP16, literal(-8)))
          CFI (cfiCond107) V6 load(1, XDATA, add(CFA_XSP16, literal(-7)))
          CFI (cfiCond107) R7 load(1, XDATA, add(CFA_XSP16, literal(-6)))
          CFI (cfiCond107) ?RET_LOW load(1, XDATA, add(CFA_XSP16, literal(-5)))
          CFI (cfiCond107) ?RET_HIGH load(1, XDATA, add(CFA_XSP16, literal(-4)))
          CFI (cfiCond107) ?BRET_EXT load(1, XDATA, add(CFA_XSP16, literal(-3)))
          CFI (cfiCond107) DPL0 load(1, XDATA, add(CFA_XSP16, literal(-2)))
          CFI (cfiCond107) DPH0 load(1, XDATA, add(CFA_XSP16, literal(-1)))
          CFI (cfiCond107) CFA_SP SP+-4
          CFI (cfiCond107) CFA_XSP16 add(XSP16, 85)
          CFI Block cfiCond108 Using cfiCommon0
          CFI (cfiCond108) Function MT_ZdoEndDevBindRequest
          CFI (cfiCond108) Conditional ??CrossCallReturnLabel_74, ??CrossCallReturnLabel_10
          CFI (cfiCond108) R6 load(1, XDATA, add(CFA_XSP16, literal(-15)))
          CFI (cfiCond108) VB load(1, XDATA, add(CFA_XSP16, literal(-14)))
          CFI (cfiCond108) V0 load(1, XDATA, add(CFA_XSP16, literal(-13)))
          CFI (cfiCond108) V1 load(1, XDATA, add(CFA_XSP16, literal(-12)))
          CFI (cfiCond108) V2 load(1, XDATA, add(CFA_XSP16, literal(-11)))
          CFI (cfiCond108) V3 load(1, XDATA, add(CFA_XSP16, literal(-10)))
          CFI (cfiCond108) V4 load(1, XDATA, add(CFA_XSP16, literal(-9)))
          CFI (cfiCond108) V5 load(1, XDATA, add(CFA_XSP16, literal(-8)))
          CFI (cfiCond108) V6 load(1, XDATA, add(CFA_XSP16, literal(-7)))
          CFI (cfiCond108) R7 load(1, XDATA, add(CFA_XSP16, literal(-6)))
          CFI (cfiCond108) ?RET_LOW load(1, XDATA, add(CFA_XSP16, literal(-5)))
          CFI (cfiCond108) ?RET_HIGH load(1, XDATA, add(CFA_XSP16, literal(-4)))
          CFI (cfiCond108) ?BRET_EXT load(1, XDATA, add(CFA_XSP16, literal(-3)))
          CFI (cfiCond108) DPL0 load(1, XDATA, add(CFA_XSP16, literal(-2)))
          CFI (cfiCond108) DPH0 load(1, XDATA, add(CFA_XSP16, literal(-1)))
          CFI (cfiCond108) CFA_SP SP+-4
          CFI (cfiCond108) CFA_XSP16 add(XSP16, 85)
          CFI Block cfiPicker109 Using cfiCommon1
          CFI (cfiPicker109) NoFunction
          CFI (cfiPicker109) Picker
        MOV     A,?V0
        ADD     A,0xE0 /* A   */
        MOV     ?V0,A
        CLR     A
        RLC     A
        MOV     ?V1,A
        RET
          CFI (cfiCond105) CFA_SP SP+-2
          CFI (cfiCond106) CFA_SP SP+-2
          CFI (cfiCond107) CFA_SP SP+-2
          CFI (cfiCond108) CFA_SP SP+-2
          CFI (cfiPicker109) CFA_SP SP+0
          CFI EndBlock cfiCond105
          CFI EndBlock cfiCond106
          CFI EndBlock cfiCond107
          CFI EndBlock cfiCond108
          CFI EndBlock cfiPicker109

        RSEG BANKED_CODE:CODE:NOROOT(0)
?Subroutine33:
          CFI Block cfiCond110 Using cfiCommon0
          CFI Function MT_ZdoMatchDescRequest
          CFI Conditional ??CrossCallReturnLabel_64
          CFI R6 load(1, XDATA, add(CFA_XSP16, literal(-14)))
          CFI VB load(1, XDATA, add(CFA_XSP16, literal(-13)))
          CFI V0 load(1, XDATA, add(CFA_XSP16, literal(-12)))
          CFI V1 load(1, XDATA, add(CFA_XSP16, literal(-11)))
          CFI V2 load(1, XDATA, add(CFA_XSP16, literal(-10)))
          CFI V3 load(1, XDATA, add(CFA_XSP16, literal(-9)))
          CFI V4 load(1, XDATA, add(CFA_XSP16, literal(-8)))
          CFI V5 load(1, XDATA, add(CFA_XSP16, literal(-7)))
          CFI R7 load(1, XDATA, add(CFA_XSP16, literal(-6)))
          CFI ?RET_LOW load(1, XDATA, add(CFA_XSP16, literal(-5)))
          CFI ?RET_HIGH load(1, XDATA, add(CFA_XSP16, literal(-4)))
          CFI ?BRET_EXT load(1, XDATA, add(CFA_XSP16, literal(-3)))
          CFI DPL0 load(1, XDATA, add(CFA_XSP16, literal(-2)))
          CFI DPH0 load(1, XDATA, add(CFA_XSP16, literal(-1)))
          CFI CFA_SP SP+-2
          CFI CFA_XSP16 add(XSP16, 88)
          CFI Block cfiCond111 Using cfiCommon0
          CFI (cfiCond111) Function MT_ZdoEndDevBindRequest
          CFI (cfiCond111) Conditional ??CrossCallReturnLabel_65, ??CrossCallReturnLabel_9
          CFI (cfiCond111) R6 load(1, XDATA, add(CFA_XSP16, literal(-15)))
          CFI (cfiCond111) VB load(1, XDATA, add(CFA_XSP16, literal(-14)))
          CFI (cfiCond111) V0 load(1, XDATA, add(CFA_XSP16, literal(-13)))
          CFI (cfiCond111) V1 load(1, XDATA, add(CFA_XSP16, literal(-12)))
          CFI (cfiCond111) V2 load(1, XDATA, add(CFA_XSP16, literal(-11)))
          CFI (cfiCond111) V3 load(1, XDATA, add(CFA_XSP16, literal(-10)))
          CFI (cfiCond111) V4 load(1, XDATA, add(CFA_XSP16, literal(-9)))
          CFI (cfiCond111) V5 load(1, XDATA, add(CFA_XSP16, literal(-8)))
          CFI (cfiCond111) V6 load(1, XDATA, add(CFA_XSP16, literal(-7)))
          CFI (cfiCond111) R7 load(1, XDATA, add(CFA_XSP16, literal(-6)))
          CFI (cfiCond111) ?RET_LOW load(1, XDATA, add(CFA_XSP16, literal(-5)))
          CFI (cfiCond111) ?RET_HIGH load(1, XDATA, add(CFA_XSP16, literal(-4)))
          CFI (cfiCond111) ?BRET_EXT load(1, XDATA, add(CFA_XSP16, literal(-3)))
          CFI (cfiCond111) DPL0 load(1, XDATA, add(CFA_XSP16, literal(-2)))
          CFI (cfiCond111) DPH0 load(1, XDATA, add(CFA_XSP16, literal(-1)))
          CFI (cfiCond111) CFA_SP SP+-4
          CFI (cfiCond111) CFA_XSP16 add(XSP16, 85)
          CFI Block cfiCond112 Using cfiCommon0
          CFI (cfiCond112) Function MT_ZdoEndDevBindRequest
          CFI (cfiCond112) Conditional ??CrossCallReturnLabel_65, ??CrossCallReturnLabel_10
          CFI (cfiCond112) R6 load(1, XDATA, add(CFA_XSP16, literal(-15)))
          CFI (cfiCond112) VB load(1, XDATA, add(CFA_XSP16, literal(-14)))
          CFI (cfiCond112) V0 load(1, XDATA, add(CFA_XSP16, literal(-13)))
          CFI (cfiCond112) V1 load(1, XDATA, add(CFA_XSP16, literal(-12)))
          CFI (cfiCond112) V2 load(1, XDATA, add(CFA_XSP16, literal(-11)))
          CFI (cfiCond112) V3 load(1, XDATA, add(CFA_XSP16, literal(-10)))
          CFI (cfiCond112) V4 load(1, XDATA, add(CFA_XSP16, literal(-9)))
          CFI (cfiCond112) V5 load(1, XDATA, add(CFA_XSP16, literal(-8)))
          CFI (cfiCond112) V6 load(1, XDATA, add(CFA_XSP16, literal(-7)))
          CFI (cfiCond112) R7 load(1, XDATA, add(CFA_XSP16, literal(-6)))
          CFI (cfiCond112) ?RET_LOW load(1, XDATA, add(CFA_XSP16, literal(-5)))
          CFI (cfiCond112) ?RET_HIGH load(1, XDATA, add(CFA_XSP16, literal(-4)))
          CFI (cfiCond112) ?BRET_EXT load(1, XDATA, add(CFA_XSP16, literal(-3)))
          CFI (cfiCond112) DPL0 load(1, XDATA, add(CFA_XSP16, literal(-2)))
          CFI (cfiCond112) DPH0 load(1, XDATA, add(CFA_XSP16, literal(-1)))
          CFI (cfiCond112) CFA_SP SP+-4
          CFI (cfiCond112) CFA_XSP16 add(XSP16, 85)
          CFI Block cfiPicker113 Using cfiCommon1
          CFI (cfiPicker113) NoFunction
          CFI (cfiPicker113) Picker
        LCALL   ?Subroutine39 & 0xFFFF
??CrossCallReturnLabel_79:
        MOV     ?V5,A
        MOV     A,?V0
        MOV     ?V4,A
        RET
          CFI (cfiCond110) CFA_SP SP+0
          CFI (cfiCond111) CFA_SP SP+-2
          CFI (cfiCond112) CFA_SP SP+-2
          CFI (cfiPicker113) CFA_SP SP+0
          CFI EndBlock cfiCond110
          CFI EndBlock cfiCond111
          CFI EndBlock cfiCond112
          CFI EndBlock cfiPicker113
//  880 
//  881 /***************************************************************************************************
//  882  * @fn      MT_ZdoBindRequest
//  883  *
//  884  * @brief   Handle a Bind request.
//  885  *
//  886  * @param   pBuf  - MT message data
//  887  *
//  888  * @return  void
//  889  ***************************************************************************************************/

        RSEG BANKED_CODE:CODE:NOROOT(0)
//  890 void MT_ZdoBindRequest(uint8 *pBuf)
MT_ZdoBindRequest:
          CFI Block cfiBlock114 Using cfiCommon0
          CFI Function MT_ZdoBindRequest
        CODE
//  891 {
        FUNCALL MT_ZdoBindRequest, sAddrExtCpy
        LOCFRAME ISTACK, 0, STACK
        LOCFRAME PSTACK, 0, STACK
        LOCFRAME XSTACK, 35, STACK
        LOCFRAME IOVERLAY, 0, STATIC
        LOCFRAME DOVERLAY, 0, STATIC
        ARGFRAME ISTACK, 0, STACK
        ARGFRAME PSTACK, 0, STACK
        ARGFRAME XSTACK, 35, STACK
        ARGFRAME IOVERLAY, 0, STATIC
        ARGFRAME DOVERLAY, 0, STATIC
        FUNCALL MT_ZdoBindRequest, ZDP_BindUnbindReq
        LOCFRAME ISTACK, 0, STACK
        LOCFRAME PSTACK, 0, STACK
        LOCFRAME XSTACK, 43, STACK
        LOCFRAME IOVERLAY, 0, STATIC
        LOCFRAME DOVERLAY, 0, STATIC
        ARGFRAME ISTACK, 0, STACK
        ARGFRAME PSTACK, 0, STACK
        ARGFRAME XSTACK, 43, STACK
        ARGFRAME IOVERLAY, 0, STATIC
        ARGFRAME DOVERLAY, 0, STATIC
        FUNCALL MT_ZdoBindRequest, MT_BuildAndSendZToolResponse
        LOCFRAME ISTACK, 0, STACK
        LOCFRAME PSTACK, 0, STACK
        LOCFRAME XSTACK, 35, STACK
        LOCFRAME IOVERLAY, 0, STATIC
        LOCFRAME DOVERLAY, 0, STATIC
        ARGFRAME ISTACK, 0, STACK
        ARGFRAME PSTACK, 0, STACK
        ARGFRAME XSTACK, 35, STACK
        ARGFRAME IOVERLAY, 0, STATIC
        ARGFRAME DOVERLAY, 0, STATIC
        REQUIRE ?V0
        REQUIRE ?V1
        REQUIRE ?V2
        REQUIRE ?V3
        REQUIRE ?V4
        REQUIRE ?V6
        REQUIRE ?V7
        MOV     A,#-0x10
        LCALL   ?BANKED_ENTER_XDATA
          CFI DPH0 load(1, XDATA, add(CFA_XSP16, literal(-1)))
          CFI DPL0 load(1, XDATA, add(CFA_XSP16, literal(-2)))
          CFI ?BRET_EXT load(1, XDATA, add(CFA_XSP16, literal(-3)))
          CFI ?RET_HIGH load(1, XDATA, add(CFA_XSP16, literal(-4)))
          CFI ?RET_LOW load(1, XDATA, add(CFA_XSP16, literal(-5)))
          CFI R7 load(1, XDATA, add(CFA_XSP16, literal(-6)))
          CFI V7 load(1, XDATA, add(CFA_XSP16, literal(-7)))
          CFI V6 load(1, XDATA, add(CFA_XSP16, literal(-8)))
          CFI V5 load(1, XDATA, add(CFA_XSP16, literal(-9)))
          CFI V4 load(1, XDATA, add(CFA_XSP16, literal(-10)))
          CFI V3 load(1, XDATA, add(CFA_XSP16, literal(-11)))
          CFI V2 load(1, XDATA, add(CFA_XSP16, literal(-12)))
          CFI V1 load(1, XDATA, add(CFA_XSP16, literal(-13)))
          CFI V0 load(1, XDATA, add(CFA_XSP16, literal(-14)))
          CFI VB load(1, XDATA, add(CFA_XSP16, literal(-15)))
          CFI R6 load(1, XDATA, add(CFA_XSP16, literal(-16)))
          CFI CFA_SP SP+0
          CFI CFA_XSP16 add(XSP16, 16)
        ; Saved register size: 16
        ; Auto size: 19
        MOV     A,#-0x13
        LCALL   ?ALLOC_XSTACK8
          CFI CFA_XSP16 add(XSP16, 35)
        LCALL   ?Subroutine19 & 0xFFFF
//  892   uint8 cmdId;
//  893   uint8 retValue;
//  894   zAddrType_t destAddr, devAddr;
//  895   uint8 *pSrcAddr, *ptr;
//  896   uint8 srcEPInt, dstEPInt;
//  897   uint16 clusterID;
//  898 
//  899   /* parse header */
//  900   cmdId = pBuf[MT_RPC_POS_CMD1];
//  901   pBuf += MT_RPC_FRAME_HDR_SZ;
??CrossCallReturnLabel_28:
        JNC     ??MT_ZdoBindRequest_0
        INC     ?V1
//  902 
//  903   /* Dev address */
//  904   destAddr.addrMode = Addr16Bit;
??MT_ZdoBindRequest_0:
        MOV     A,#0x12
        LCALL   ?XSTACK_DISP0_8
        LCALL   ?Subroutine18 & 0xFFFF
//  905   destAddr.addr.shortAddr = BUILD_UINT16( pBuf[0], pBuf[1] );
??CrossCallReturnLabel_26:
        LCALL   ?XSTACK_DISP0_8
        LCALL   ?Subroutine7 & 0xFFFF
//  906   pBuf += 2;
//  907 
//  908   /* SrcAddress */
//  909   pSrcAddr = pBuf;
//  910   pBuf += Z_EXTADDR_LEN;
//  911 
//  912   /* SrcEPInt */
//  913   srcEPInt = *pBuf++;
//  914 
//  915   /* ClusterID */
//  916   clusterID = BUILD_UINT16( pBuf[0], pBuf[1]);
//  917   pBuf += 2;
//  918 
//  919   /* Destination Address mode */
//  920   devAddr.addrMode = *pBuf++;
??CrossCallReturnLabel_7:
        LCALL   ?XSTACK_DISP0_8
        MOV     A,R0
        MOVX    @DPTR,A
        MOV     A,?V0
        ADD     A,#0x3
        MOV     ?V0,A
        JNC     ??MT_ZdoBindRequest_1
        INC     ?V1
//  921 
//  922   /* Destination Address */
//  923   if ( devAddr.addrMode == Addr64Bit )
??MT_ZdoBindRequest_1:
        MOV     A,#0x3
        XRL     A,R0
        JNZ     ??MT_ZdoBindRequest_2
//  924   {
//  925     ptr = pBuf;
//  926     osal_cpyExtAddr( devAddr.addr.extAddr, ptr );
        ; Setup parameters for call to function sAddrExtCpy
        MOV     R4,?V0
        MOV     R5,?V1
        MOV     A,#0x1
        LCALL   ?XSTACK_DISP101_8
        LCALL   `??sAddrExtCpy::?relay`; Banked call to: sAddrExtCpy
        SJMP    ??MT_ZdoBindRequest_3
//  927   }
//  928   else
//  929   {
//  930     devAddr.addr.shortAddr = BUILD_UINT16( pBuf[0], pBuf[1] );
??MT_ZdoBindRequest_2:
        LCALL   ?Subroutine13 & 0xFFFF
//  931   }
??CrossCallReturnLabel_98:
        LCALL   ?XSTACK_DISP0_8
        MOV     A,R0
        MOVX    @DPTR,A
        INC     DPTR
        MOV     A,R1
        MOVX    @DPTR,A
//  932   /* The short address occupies LSB two bytes */
//  933   pBuf += Z_EXTADDR_LEN;
//  934 
//  935   /* DstEPInt */
//  936   dstEPInt = *pBuf;
//  937 
//  938   retValue = (uint8)ZDP_BindReq( &destAddr, pSrcAddr, srcEPInt, clusterID, &devAddr, dstEPInt, 0);
??MT_ZdoBindRequest_3:
        ; Setup parameters for call to function ZDP_BindUnbindReq
        MOV     ?V4,#0x0
        MOV     R0,#?V4
        LCALL   ?PUSH_XSTACK_I_ONE
          CFI CFA_XSP16 add(XSP16, 36)
        MOV     DPL,?V0
        MOV     DPH,?V1
        INC     DPTR
        INC     DPTR
        INC     DPTR
        INC     DPTR
        INC     DPTR
        INC     DPTR
        INC     DPTR
        INC     DPTR
        MOVX    A,@DPTR
        MOV     ?V0,A
        MOV     R0,#?V0
        LCALL   ?PUSH_XSTACK_I_ONE
          CFI CFA_XSP16 add(XSP16, 37)
        MOV     A,#0x3
        LCALL   ?XSTACK_DISP100_8
        MOV     ?V0,R0
        MOV     ?V1,R1
        MOV     R0,#?V0
        LCALL   ?PUSH_XSTACK_I_TWO
          CFI CFA_XSP16 add(XSP16, 39)
        MOV     ?V0,R6
        MOV     ?V1,R7
        MOV     R0,#?V0
        LCALL   ?PUSH_XSTACK_I_TWO
          CFI CFA_XSP16 add(XSP16, 41)
        MOV     R0,#?V6
        LCALL   ?PUSH_XSTACK_I_TWO
          CFI CFA_XSP16 add(XSP16, 43)
        MOV     R1,?V2
        MOV     A,#0x12
        LCALL   ?XSTACK_DISP102_8
        MOV     R2,#0x21
          CFI EndBlock cfiBlock114
        REQUIRE ?Subroutine4
        ; // Fall through to label ?Subroutine4
//  939 
//  940   MT_BuildAndSendZToolResponse(((uint8)MT_RPC_CMD_SRSP | (uint8)MT_RPC_SYS_ZDO), cmdId, 1, &retValue);
//  941 }

        RSEG BANKED_CODE:CODE:NOROOT(0)
?Subroutine4:
          CFI Block cfiBlock115 Using cfiCommon0
          CFI NoFunction
          CFI CFA_SP SP+0
          CFI CFA_XSP16 add(XSP16, 43)
          CFI VB load(1, XDATA, add(CFA_XSP16, literal(-15)))
          CFI DPL0 load(1, XDATA, add(CFA_XSP16, literal(-2)))
          CFI DPH0 load(1, XDATA, add(CFA_XSP16, literal(-1)))
          CFI R6 load(1, XDATA, add(CFA_XSP16, literal(-16)))
          CFI R7 load(1, XDATA, add(CFA_XSP16, literal(-6)))
          CFI V0 load(1, XDATA, add(CFA_XSP16, literal(-14)))
          CFI V1 load(1, XDATA, add(CFA_XSP16, literal(-13)))
          CFI V2 load(1, XDATA, add(CFA_XSP16, literal(-12)))
          CFI V3 load(1, XDATA, add(CFA_XSP16, literal(-11)))
          CFI V4 load(1, XDATA, add(CFA_XSP16, literal(-10)))
          CFI V5 load(1, XDATA, add(CFA_XSP16, literal(-9)))
          CFI V6 load(1, XDATA, add(CFA_XSP16, literal(-8)))
          CFI V7 load(1, XDATA, add(CFA_XSP16, literal(-7)))
          CFI ?BRET_EXT load(1, XDATA, add(CFA_XSP16, literal(-3)))
          CFI ?RET_HIGH load(1, XDATA, add(CFA_XSP16, literal(-4)))
          CFI ?RET_LOW load(1, XDATA, add(CFA_XSP16, literal(-5)))
        MOV     R3,#0x0
        LCALL   `??ZDP_BindUnbindReq::?relay`; Banked call to: ZDP_BindUnbindReq
        MOV     A,#0x8
        LCALL   ?DEALLOC_XSTACK8
          CFI CFA_XSP16 add(XSP16, 35)
        LCALL   ?Subroutine28 & 0xFFFF
??CrossCallReturnLabel_53:
        LCALL   `??MT_BuildAndSendZToolResponse::?relay`; Banked call to: MT_BuildAndSendZToolResponse
        MOV     A,#0x13
        LCALL   ?DEALLOC_XSTACK8
          CFI CFA_XSP16 add(XSP16, 16)
        MOV     R7,#0x8
        LJMP    ?BANKED_LEAVE_XDATA
          CFI CFA_SP SP+-3
          CFI CFA_XSP16 XSP16+0
          CFI VB SameValue
          CFI DPL0 SameValue
          CFI DPH0 SameValue
          CFI R6 SameValue
          CFI R7 SameValue
          CFI V0 SameValue
          CFI V1 SameValue
          CFI V2 SameValue
          CFI V3 SameValue
          CFI V4 SameValue
          CFI V5 SameValue
          CFI V6 SameValue
          CFI V7 SameValue
          CFI ?BRET_EXT Frame(CFA_SP, 3)
          CFI ?RET_HIGH Frame(CFA_SP, 2)
          CFI ?RET_LOW Frame(CFA_SP, 1)
          CFI EndBlock cfiBlock115

        RSEG BANKED_CODE:CODE:NOROOT(0)
?Subroutine28:
          CFI Block cfiCond116 Using cfiCommon0
          CFI Function MT_ZdoUserDescSet
          CFI Conditional ??CrossCallReturnLabel_52
          CFI R6 load(1, XDATA, add(CFA_XSP16, literal(-12)))
          CFI VB load(1, XDATA, add(CFA_XSP16, literal(-11)))
          CFI V0 load(1, XDATA, add(CFA_XSP16, literal(-10)))
          CFI V1 load(1, XDATA, add(CFA_XSP16, literal(-9)))
          CFI V2 load(1, XDATA, add(CFA_XSP16, literal(-8)))
          CFI V3 load(1, XDATA, add(CFA_XSP16, literal(-7)))
          CFI R7 load(1, XDATA, add(CFA_XSP16, literal(-6)))
          CFI ?RET_LOW load(1, XDATA, add(CFA_XSP16, literal(-5)))
          CFI ?RET_HIGH load(1, XDATA, add(CFA_XSP16, literal(-4)))
          CFI ?BRET_EXT load(1, XDATA, add(CFA_XSP16, literal(-3)))
          CFI DPL0 load(1, XDATA, add(CFA_XSP16, literal(-2)))
          CFI DPH0 load(1, XDATA, add(CFA_XSP16, literal(-1)))
          CFI CFA_SP SP+-2
          CFI CFA_XSP16 add(XSP16, 39)
          CFI Block cfiCond117 Using cfiCommon0
          CFI (cfiCond117) Function MT_ZdoBindRequest
          CFI (cfiCond117) Conditional ??CrossCallReturnLabel_53
          CFI (cfiCond117) R6 load(1, XDATA, add(CFA_XSP16, literal(-16)))
          CFI (cfiCond117) VB load(1, XDATA, add(CFA_XSP16, literal(-15)))
          CFI (cfiCond117) V0 load(1, XDATA, add(CFA_XSP16, literal(-14)))
          CFI (cfiCond117) V1 load(1, XDATA, add(CFA_XSP16, literal(-13)))
          CFI (cfiCond117) V2 load(1, XDATA, add(CFA_XSP16, literal(-12)))
          CFI (cfiCond117) V3 load(1, XDATA, add(CFA_XSP16, literal(-11)))
          CFI (cfiCond117) V4 load(1, XDATA, add(CFA_XSP16, literal(-10)))
          CFI (cfiCond117) V5 load(1, XDATA, add(CFA_XSP16, literal(-9)))
          CFI (cfiCond117) V6 load(1, XDATA, add(CFA_XSP16, literal(-8)))
          CFI (cfiCond117) V7 load(1, XDATA, add(CFA_XSP16, literal(-7)))
          CFI (cfiCond117) R7 load(1, XDATA, add(CFA_XSP16, literal(-6)))
          CFI (cfiCond117) ?RET_LOW load(1, XDATA, add(CFA_XSP16, literal(-5)))
          CFI (cfiCond117) ?RET_HIGH load(1, XDATA, add(CFA_XSP16, literal(-4)))
          CFI (cfiCond117) ?BRET_EXT load(1, XDATA, add(CFA_XSP16, literal(-3)))
          CFI (cfiCond117) DPL0 load(1, XDATA, add(CFA_XSP16, literal(-2)))
          CFI (cfiCond117) DPH0 load(1, XDATA, add(CFA_XSP16, literal(-1)))
          CFI (cfiCond117) CFA_SP SP+-2
          CFI (cfiCond117) CFA_XSP16 add(XSP16, 35)
          CFI Block cfiCond118 Using cfiCommon0
          CFI (cfiCond118) Function MT_ZdoUnbindRequest
          CFI (cfiCond118) Conditional ??CrossCallReturnLabel_53
          CFI (cfiCond118) R6 load(1, XDATA, add(CFA_XSP16, literal(-16)))
          CFI (cfiCond118) VB load(1, XDATA, add(CFA_XSP16, literal(-15)))
          CFI (cfiCond118) V0 load(1, XDATA, add(CFA_XSP16, literal(-14)))
          CFI (cfiCond118) V1 load(1, XDATA, add(CFA_XSP16, literal(-13)))
          CFI (cfiCond118) V2 load(1, XDATA, add(CFA_XSP16, literal(-12)))
          CFI (cfiCond118) V3 load(1, XDATA, add(CFA_XSP16, literal(-11)))
          CFI (cfiCond118) V4 load(1, XDATA, add(CFA_XSP16, literal(-10)))
          CFI (cfiCond118) V5 load(1, XDATA, add(CFA_XSP16, literal(-9)))
          CFI (cfiCond118) V6 load(1, XDATA, add(CFA_XSP16, literal(-8)))
          CFI (cfiCond118) V7 load(1, XDATA, add(CFA_XSP16, literal(-7)))
          CFI (cfiCond118) R7 load(1, XDATA, add(CFA_XSP16, literal(-6)))
          CFI (cfiCond118) ?RET_LOW load(1, XDATA, add(CFA_XSP16, literal(-5)))
          CFI (cfiCond118) ?RET_HIGH load(1, XDATA, add(CFA_XSP16, literal(-4)))
          CFI (cfiCond118) ?BRET_EXT load(1, XDATA, add(CFA_XSP16, literal(-3)))
          CFI (cfiCond118) DPL0 load(1, XDATA, add(CFA_XSP16, literal(-2)))
          CFI (cfiCond118) DPH0 load(1, XDATA, add(CFA_XSP16, literal(-1)))
          CFI (cfiCond118) CFA_SP SP+-2
          CFI (cfiCond118) CFA_XSP16 add(XSP16, 35)
          CFI Block cfiPicker119 Using cfiCommon1
          CFI (cfiPicker119) NoFunction
          CFI (cfiPicker119) Picker
        MOV     A,R1
        MOV     DPL,?XSP + 0
        MOV     DPH,?XSP + 1
        MOVX    @DPTR,A
        ; Setup parameters for call to function MT_BuildAndSendZToolResponse
        ; Setup parameters for call to function MT_BuildAndSendZToolResponse
        ; Setup parameters for call to function MT_BuildAndSendZToolResponse
        MOV     R4,?XSP + 0
        MOV     R5,?XSP + 1
        MOV     R3,#0x1
        MOV     R2,?V3
        MOV     R1,#0x65
        RET
          CFI (cfiCond116) CFA_SP SP+0
          CFI (cfiCond117) CFA_SP SP+0
          CFI (cfiCond118) CFA_SP SP+0
          CFI (cfiPicker119) CFA_SP SP+0
          CFI EndBlock cfiCond116
          CFI EndBlock cfiCond117
          CFI EndBlock cfiCond118
          CFI EndBlock cfiPicker119

        RSEG BANKED_CODE:CODE:NOROOT(0)
?Subroutine13:
          CFI Block cfiCond120 Using cfiCommon0
          CFI Function MT_ZdoBindRequest
          CFI Conditional ??CrossCallReturnLabel_98
          CFI R6 load(1, XDATA, add(CFA_XSP16, literal(-16)))
          CFI VB load(1, XDATA, add(CFA_XSP16, literal(-15)))
          CFI V0 load(1, XDATA, add(CFA_XSP16, literal(-14)))
          CFI V1 load(1, XDATA, add(CFA_XSP16, literal(-13)))
          CFI V2 load(1, XDATA, add(CFA_XSP16, literal(-12)))
          CFI V3 load(1, XDATA, add(CFA_XSP16, literal(-11)))
          CFI V4 load(1, XDATA, add(CFA_XSP16, literal(-10)))
          CFI V5 load(1, XDATA, add(CFA_XSP16, literal(-9)))
          CFI V6 load(1, XDATA, add(CFA_XSP16, literal(-8)))
          CFI V7 load(1, XDATA, add(CFA_XSP16, literal(-7)))
          CFI R7 load(1, XDATA, add(CFA_XSP16, literal(-6)))
          CFI ?RET_LOW load(1, XDATA, add(CFA_XSP16, literal(-5)))
          CFI ?RET_HIGH load(1, XDATA, add(CFA_XSP16, literal(-4)))
          CFI ?BRET_EXT load(1, XDATA, add(CFA_XSP16, literal(-3)))
          CFI DPL0 load(1, XDATA, add(CFA_XSP16, literal(-2)))
          CFI DPH0 load(1, XDATA, add(CFA_XSP16, literal(-1)))
          CFI CFA_SP SP+-2
          CFI CFA_XSP16 add(XSP16, 35)
          CFI Block cfiCond121 Using cfiCommon0
          CFI (cfiCond121) Function MT_ZdoUnbindRequest
          CFI (cfiCond121) Conditional ??CrossCallReturnLabel_99
          CFI (cfiCond121) R6 load(1, XDATA, add(CFA_XSP16, literal(-16)))
          CFI (cfiCond121) VB load(1, XDATA, add(CFA_XSP16, literal(-15)))
          CFI (cfiCond121) V0 load(1, XDATA, add(CFA_XSP16, literal(-14)))
          CFI (cfiCond121) V1 load(1, XDATA, add(CFA_XSP16, literal(-13)))
          CFI (cfiCond121) V2 load(1, XDATA, add(CFA_XSP16, literal(-12)))
          CFI (cfiCond121) V3 load(1, XDATA, add(CFA_XSP16, literal(-11)))
          CFI (cfiCond121) V4 load(1, XDATA, add(CFA_XSP16, literal(-10)))
          CFI (cfiCond121) V5 load(1, XDATA, add(CFA_XSP16, literal(-9)))
          CFI (cfiCond121) V6 load(1, XDATA, add(CFA_XSP16, literal(-8)))
          CFI (cfiCond121) V7 load(1, XDATA, add(CFA_XSP16, literal(-7)))
          CFI (cfiCond121) R7 load(1, XDATA, add(CFA_XSP16, literal(-6)))
          CFI (cfiCond121) ?RET_LOW load(1, XDATA, add(CFA_XSP16, literal(-5)))
          CFI (cfiCond121) ?RET_HIGH load(1, XDATA, add(CFA_XSP16, literal(-4)))
          CFI (cfiCond121) ?BRET_EXT load(1, XDATA, add(CFA_XSP16, literal(-3)))
          CFI (cfiCond121) DPL0 load(1, XDATA, add(CFA_XSP16, literal(-2)))
          CFI (cfiCond121) DPH0 load(1, XDATA, add(CFA_XSP16, literal(-1)))
          CFI (cfiCond121) CFA_SP SP+-2
          CFI (cfiCond121) CFA_XSP16 add(XSP16, 35)
          CFI Block cfiPicker122 Using cfiCommon1
          CFI (cfiPicker122) NoFunction
          CFI (cfiPicker122) Picker
        MOV     DPL,?V0
        MOV     DPH,?V1
          CFI EndBlock cfiCond120
          CFI EndBlock cfiCond121
          CFI EndBlock cfiPicker122
        REQUIRE ??Subroutine46_0
        ; // Fall through to label ??Subroutine46_0

        RSEG BANKED_CODE:CODE:NOROOT(0)
??Subroutine46_0:
          CFI Block cfiCond123 Using cfiCommon0
          CFI Function MT_ZdoEndDevBindRequest
          CFI Conditional ??CrossCallReturnLabel_97
          CFI R6 load(1, XDATA, add(CFA_XSP16, literal(-15)))
          CFI VB load(1, XDATA, add(CFA_XSP16, literal(-14)))
          CFI V0 load(1, XDATA, add(CFA_XSP16, literal(-13)))
          CFI V1 load(1, XDATA, add(CFA_XSP16, literal(-12)))
          CFI V2 load(1, XDATA, add(CFA_XSP16, literal(-11)))
          CFI V3 load(1, XDATA, add(CFA_XSP16, literal(-10)))
          CFI V4 load(1, XDATA, add(CFA_XSP16, literal(-9)))
          CFI V5 load(1, XDATA, add(CFA_XSP16, literal(-8)))
          CFI V6 load(1, XDATA, add(CFA_XSP16, literal(-7)))
          CFI R7 load(1, XDATA, add(CFA_XSP16, literal(-6)))
          CFI ?RET_LOW load(1, XDATA, add(CFA_XSP16, literal(-5)))
          CFI ?RET_HIGH load(1, XDATA, add(CFA_XSP16, literal(-4)))
          CFI ?BRET_EXT load(1, XDATA, add(CFA_XSP16, literal(-3)))
          CFI DPL0 load(1, XDATA, add(CFA_XSP16, literal(-2)))
          CFI DPH0 load(1, XDATA, add(CFA_XSP16, literal(-1)))
          CFI CFA_SP SP+-2
          CFI CFA_XSP16 add(XSP16, 85)
          CFI Block cfiCond124 Using cfiCommon0
          CFI (cfiCond124) Function MT_ZdoBindRequest
          CFI (cfiCond124) Conditional ??CrossCallReturnLabel_98
          CFI (cfiCond124) R6 load(1, XDATA, add(CFA_XSP16, literal(-16)))
          CFI (cfiCond124) VB load(1, XDATA, add(CFA_XSP16, literal(-15)))
          CFI (cfiCond124) V0 load(1, XDATA, add(CFA_XSP16, literal(-14)))
          CFI (cfiCond124) V1 load(1, XDATA, add(CFA_XSP16, literal(-13)))
          CFI (cfiCond124) V2 load(1, XDATA, add(CFA_XSP16, literal(-12)))
          CFI (cfiCond124) V3 load(1, XDATA, add(CFA_XSP16, literal(-11)))
          CFI (cfiCond124) V4 load(1, XDATA, add(CFA_XSP16, literal(-10)))
          CFI (cfiCond124) V5 load(1, XDATA, add(CFA_XSP16, literal(-9)))
          CFI (cfiCond124) V6 load(1, XDATA, add(CFA_XSP16, literal(-8)))
          CFI (cfiCond124) V7 load(1, XDATA, add(CFA_XSP16, literal(-7)))
          CFI (cfiCond124) R7 load(1, XDATA, add(CFA_XSP16, literal(-6)))
          CFI (cfiCond124) ?RET_LOW load(1, XDATA, add(CFA_XSP16, literal(-5)))
          CFI (cfiCond124) ?RET_HIGH load(1, XDATA, add(CFA_XSP16, literal(-4)))
          CFI (cfiCond124) ?BRET_EXT load(1, XDATA, add(CFA_XSP16, literal(-3)))
          CFI (cfiCond124) DPL0 load(1, XDATA, add(CFA_XSP16, literal(-2)))
          CFI (cfiCond124) DPH0 load(1, XDATA, add(CFA_XSP16, literal(-1)))
          CFI (cfiCond124) CFA_SP SP+-2
          CFI (cfiCond124) CFA_XSP16 add(XSP16, 35)
          CFI Block cfiCond125 Using cfiCommon0
          CFI (cfiCond125) Function MT_ZdoUnbindRequest
          CFI (cfiCond125) Conditional ??CrossCallReturnLabel_99
          CFI (cfiCond125) R6 load(1, XDATA, add(CFA_XSP16, literal(-16)))
          CFI (cfiCond125) VB load(1, XDATA, add(CFA_XSP16, literal(-15)))
          CFI (cfiCond125) V0 load(1, XDATA, add(CFA_XSP16, literal(-14)))
          CFI (cfiCond125) V1 load(1, XDATA, add(CFA_XSP16, literal(-13)))
          CFI (cfiCond125) V2 load(1, XDATA, add(CFA_XSP16, literal(-12)))
          CFI (cfiCond125) V3 load(1, XDATA, add(CFA_XSP16, literal(-11)))
          CFI (cfiCond125) V4 load(1, XDATA, add(CFA_XSP16, literal(-10)))
          CFI (cfiCond125) V5 load(1, XDATA, add(CFA_XSP16, literal(-9)))
          CFI (cfiCond125) V6 load(1, XDATA, add(CFA_XSP16, literal(-8)))
          CFI (cfiCond125) V7 load(1, XDATA, add(CFA_XSP16, literal(-7)))
          CFI (cfiCond125) R7 load(1, XDATA, add(CFA_XSP16, literal(-6)))
          CFI (cfiCond125) ?RET_LOW load(1, XDATA, add(CFA_XSP16, literal(-5)))
          CFI (cfiCond125) ?RET_HIGH load(1, XDATA, add(CFA_XSP16, literal(-4)))
          CFI (cfiCond125) ?BRET_EXT load(1, XDATA, add(CFA_XSP16, literal(-3)))
          CFI (cfiCond125) DPL0 load(1, XDATA, add(CFA_XSP16, literal(-2)))
          CFI (cfiCond125) DPH0 load(1, XDATA, add(CFA_XSP16, literal(-1)))
          CFI (cfiCond125) CFA_SP SP+-2
          CFI (cfiCond125) CFA_XSP16 add(XSP16, 35)
          CFI Block cfiPicker126 Using cfiCommon1
          CFI (cfiPicker126) NoFunction
          CFI (cfiPicker126) Picker
        MOVX    A,@DPTR
        MOV     R2,A
        INC     DPTR
        MOVX    A,@DPTR
        MOV     R1,A
        MOV     A,R2
        MOV     R0,A
        MOV     A,#0x1
        RET
          CFI (cfiCond123) CFA_SP SP+0
          CFI (cfiCond124) CFA_SP SP+0
          CFI (cfiCond125) CFA_SP SP+0
          CFI (cfiPicker126) CFA_SP SP+0
          CFI EndBlock cfiCond123
          CFI EndBlock cfiCond124
          CFI EndBlock cfiCond125
          CFI EndBlock cfiPicker126
//  942 
//  943 /***************************************************************************************************
//  944  * @fn      MT_ZdoUnbindRequest
//  945  *
//  946  * @brief   Handle a Unbind request.
//  947  *
//  948  * @param   pBuf  - MT message data
//  949  *
//  950  * @return  void
//  951  ***************************************************************************************************/

        RSEG BANKED_CODE:CODE:NOROOT(0)
//  952 void MT_ZdoUnbindRequest(uint8 *pBuf)
MT_ZdoUnbindRequest:
          CFI Block cfiBlock127 Using cfiCommon0
          CFI Function MT_ZdoUnbindRequest
        CODE
//  953 {
        FUNCALL MT_ZdoUnbindRequest, sAddrExtCpy
        LOCFRAME ISTACK, 0, STACK
        LOCFRAME PSTACK, 0, STACK
        LOCFRAME XSTACK, 35, STACK
        LOCFRAME IOVERLAY, 0, STATIC
        LOCFRAME DOVERLAY, 0, STATIC
        ARGFRAME ISTACK, 0, STACK
        ARGFRAME PSTACK, 0, STACK
        ARGFRAME XSTACK, 35, STACK
        ARGFRAME IOVERLAY, 0, STATIC
        ARGFRAME DOVERLAY, 0, STATIC
        FUNCALL MT_ZdoUnbindRequest, ZDP_BindUnbindReq
        LOCFRAME ISTACK, 0, STACK
        LOCFRAME PSTACK, 0, STACK
        LOCFRAME XSTACK, 43, STACK
        LOCFRAME IOVERLAY, 0, STATIC
        LOCFRAME DOVERLAY, 0, STATIC
        ARGFRAME ISTACK, 0, STACK
        ARGFRAME PSTACK, 0, STACK
        ARGFRAME XSTACK, 43, STACK
        ARGFRAME IOVERLAY, 0, STATIC
        ARGFRAME DOVERLAY, 0, STATIC
        FUNCALL MT_ZdoUnbindRequest, MT_BuildAndSendZToolResponse
        LOCFRAME ISTACK, 0, STACK
        LOCFRAME PSTACK, 0, STACK
        LOCFRAME XSTACK, 35, STACK
        LOCFRAME IOVERLAY, 0, STATIC
        LOCFRAME DOVERLAY, 0, STATIC
        ARGFRAME ISTACK, 0, STACK
        ARGFRAME PSTACK, 0, STACK
        ARGFRAME XSTACK, 35, STACK
        ARGFRAME IOVERLAY, 0, STATIC
        ARGFRAME DOVERLAY, 0, STATIC
        REQUIRE ?V0
        REQUIRE ?V1
        REQUIRE ?V2
        REQUIRE ?V3
        REQUIRE ?V4
        REQUIRE ?V6
        REQUIRE ?V7
        MOV     A,#-0x10
        LCALL   ?BANKED_ENTER_XDATA
          CFI DPH0 load(1, XDATA, add(CFA_XSP16, literal(-1)))
          CFI DPL0 load(1, XDATA, add(CFA_XSP16, literal(-2)))
          CFI ?BRET_EXT load(1, XDATA, add(CFA_XSP16, literal(-3)))
          CFI ?RET_HIGH load(1, XDATA, add(CFA_XSP16, literal(-4)))
          CFI ?RET_LOW load(1, XDATA, add(CFA_XSP16, literal(-5)))
          CFI R7 load(1, XDATA, add(CFA_XSP16, literal(-6)))
          CFI V7 load(1, XDATA, add(CFA_XSP16, literal(-7)))
          CFI V6 load(1, XDATA, add(CFA_XSP16, literal(-8)))
          CFI V5 load(1, XDATA, add(CFA_XSP16, literal(-9)))
          CFI V4 load(1, XDATA, add(CFA_XSP16, literal(-10)))
          CFI V3 load(1, XDATA, add(CFA_XSP16, literal(-11)))
          CFI V2 load(1, XDATA, add(CFA_XSP16, literal(-12)))
          CFI V1 load(1, XDATA, add(CFA_XSP16, literal(-13)))
          CFI V0 load(1, XDATA, add(CFA_XSP16, literal(-14)))
          CFI VB load(1, XDATA, add(CFA_XSP16, literal(-15)))
          CFI R6 load(1, XDATA, add(CFA_XSP16, literal(-16)))
          CFI CFA_SP SP+0
          CFI CFA_XSP16 add(XSP16, 16)
        ; Saved register size: 16
        ; Auto size: 19
        MOV     A,#-0x13
        LCALL   ?ALLOC_XSTACK8
          CFI CFA_XSP16 add(XSP16, 35)
        LCALL   ?Subroutine19 & 0xFFFF
//  954   uint8 cmdId;
//  955   uint8 retValue;
//  956   zAddrType_t destAddr, devAddr;
//  957   uint8 *pSrcAddr, *ptr;
//  958   uint8 srcEPInt, dstEPInt;
//  959   uint16 clusterID;
//  960 
//  961   /* parse header */
//  962   cmdId = pBuf[MT_RPC_POS_CMD1];
//  963   pBuf += MT_RPC_FRAME_HDR_SZ;
??CrossCallReturnLabel_29:
        JNC     ??MT_ZdoUnbindRequest_0
        INC     ?V1
//  964 
//  965   /* dev address */
//  966   destAddr.addrMode = Addr16Bit;
??MT_ZdoUnbindRequest_0:
        MOV     A,#0x12
        LCALL   ?XSTACK_DISP0_8
        LCALL   ?Subroutine18 & 0xFFFF
//  967   destAddr.addr.shortAddr = BUILD_UINT16( pBuf[0], pBuf[1] );
??CrossCallReturnLabel_27:
        LCALL   ?XSTACK_DISP0_8
        LCALL   ?Subroutine7 & 0xFFFF
//  968   pBuf += 2;
//  969 
//  970   /* SrcAddress */
//  971   pSrcAddr = pBuf;
//  972   pBuf += Z_EXTADDR_LEN;
//  973 
//  974   /* SrcEPInt */
//  975   srcEPInt = *pBuf++;
//  976 
//  977   /* ClusterID */
//  978   clusterID = BUILD_UINT16( pBuf[0], pBuf[1]);
//  979   pBuf += 2;
//  980 
//  981   /* Destination Address mode */
//  982   devAddr.addrMode = *pBuf++;
??CrossCallReturnLabel_8:
        LCALL   ?XSTACK_DISP0_8
        MOV     A,R0
        MOVX    @DPTR,A
        MOV     A,?V0
        ADD     A,#0x3
        MOV     ?V0,A
        JNC     ??MT_ZdoUnbindRequest_1
        INC     ?V1
//  983 
//  984   /* Destination Address */
//  985   if ( devAddr.addrMode == Addr64Bit )
??MT_ZdoUnbindRequest_1:
        MOV     A,#0x3
        XRL     A,R0
        JNZ     ??MT_ZdoUnbindRequest_2
//  986   {
//  987     ptr = pBuf;
//  988     osal_cpyExtAddr( devAddr.addr.extAddr, ptr );
        ; Setup parameters for call to function sAddrExtCpy
        MOV     R4,?V0
        MOV     R5,?V1
        MOV     A,#0x1
        LCALL   ?XSTACK_DISP101_8
        LCALL   `??sAddrExtCpy::?relay`; Banked call to: sAddrExtCpy
        SJMP    ??MT_ZdoUnbindRequest_3
//  989   }
//  990   else
//  991   {
//  992     devAddr.addr.shortAddr = BUILD_UINT16( pBuf[0], pBuf[1] );
??MT_ZdoUnbindRequest_2:
        LCALL   ?Subroutine13 & 0xFFFF
//  993   }
??CrossCallReturnLabel_99:
        LCALL   ?XSTACK_DISP0_8
        MOV     A,R0
        MOVX    @DPTR,A
        INC     DPTR
        MOV     A,R1
        MOVX    @DPTR,A
//  994   /* The short address occupies LSB two bytes */
//  995   pBuf += Z_EXTADDR_LEN;
//  996 
//  997   /* dstEPInt */
//  998   dstEPInt = *pBuf;
//  999 
// 1000   retValue = (uint8)ZDP_UnbindReq( &destAddr, pSrcAddr, srcEPInt, clusterID, &devAddr, dstEPInt, 0);
??MT_ZdoUnbindRequest_3:
        ; Setup parameters for call to function ZDP_BindUnbindReq
        MOV     ?V4,#0x0
        MOV     R0,#?V4
        LCALL   ?PUSH_XSTACK_I_ONE
          CFI CFA_XSP16 add(XSP16, 36)
        MOV     DPL,?V0
        MOV     DPH,?V1
        INC     DPTR
        INC     DPTR
        INC     DPTR
        INC     DPTR
        INC     DPTR
        INC     DPTR
        INC     DPTR
        INC     DPTR
        MOVX    A,@DPTR
        MOV     ?V0,A
        MOV     R0,#?V0
        LCALL   ?PUSH_XSTACK_I_ONE
          CFI CFA_XSP16 add(XSP16, 37)
        MOV     A,#0x3
        LCALL   ?XSTACK_DISP100_8
        MOV     ?V0,R0
        MOV     ?V1,R1
        MOV     R0,#?V0
        LCALL   ?PUSH_XSTACK_I_TWO
          CFI CFA_XSP16 add(XSP16, 39)
        MOV     ?V0,R6
        MOV     ?V1,R7
        MOV     R0,#?V0
        LCALL   ?PUSH_XSTACK_I_TWO
          CFI CFA_XSP16 add(XSP16, 41)
        MOV     R0,#?V6
        LCALL   ?PUSH_XSTACK_I_TWO
          CFI CFA_XSP16 add(XSP16, 43)
        MOV     R1,?V2
        MOV     A,#0x12
        LCALL   ?XSTACK_DISP102_8
        MOV     R2,#0x22
        LJMP    ?Subroutine4 & 0xFFFF
// 1001 
// 1002   MT_BuildAndSendZToolResponse(((uint8)MT_RPC_CMD_SRSP | (uint8)MT_RPC_SYS_ZDO), cmdId, 1, &retValue);
// 1003 }
          CFI EndBlock cfiBlock127

        RSEG BANKED_CODE:CODE:NOROOT(0)
?Subroutine19:
          CFI Block cfiCond128 Using cfiCommon0
          CFI Function MT_ZdoBindRequest
          CFI Conditional ??CrossCallReturnLabel_28
          CFI R6 load(1, XDATA, add(CFA_XSP16, literal(-16)))
          CFI VB load(1, XDATA, add(CFA_XSP16, literal(-15)))
          CFI V0 load(1, XDATA, add(CFA_XSP16, literal(-14)))
          CFI V1 load(1, XDATA, add(CFA_XSP16, literal(-13)))
          CFI V2 load(1, XDATA, add(CFA_XSP16, literal(-12)))
          CFI V3 load(1, XDATA, add(CFA_XSP16, literal(-11)))
          CFI V4 load(1, XDATA, add(CFA_XSP16, literal(-10)))
          CFI V5 load(1, XDATA, add(CFA_XSP16, literal(-9)))
          CFI V6 load(1, XDATA, add(CFA_XSP16, literal(-8)))
          CFI V7 load(1, XDATA, add(CFA_XSP16, literal(-7)))
          CFI R7 load(1, XDATA, add(CFA_XSP16, literal(-6)))
          CFI ?RET_LOW load(1, XDATA, add(CFA_XSP16, literal(-5)))
          CFI ?RET_HIGH load(1, XDATA, add(CFA_XSP16, literal(-4)))
          CFI ?BRET_EXT load(1, XDATA, add(CFA_XSP16, literal(-3)))
          CFI DPL0 load(1, XDATA, add(CFA_XSP16, literal(-2)))
          CFI DPH0 load(1, XDATA, add(CFA_XSP16, literal(-1)))
          CFI CFA_SP SP+-2
          CFI CFA_XSP16 add(XSP16, 35)
          CFI Block cfiCond129 Using cfiCommon0
          CFI (cfiCond129) Function MT_ZdoUnbindRequest
          CFI (cfiCond129) Conditional ??CrossCallReturnLabel_29
          CFI (cfiCond129) R6 load(1, XDATA, add(CFA_XSP16, literal(-16)))
          CFI (cfiCond129) VB load(1, XDATA, add(CFA_XSP16, literal(-15)))
          CFI (cfiCond129) V0 load(1, XDATA, add(CFA_XSP16, literal(-14)))
          CFI (cfiCond129) V1 load(1, XDATA, add(CFA_XSP16, literal(-13)))
          CFI (cfiCond129) V2 load(1, XDATA, add(CFA_XSP16, literal(-12)))
          CFI (cfiCond129) V3 load(1, XDATA, add(CFA_XSP16, literal(-11)))
          CFI (cfiCond129) V4 load(1, XDATA, add(CFA_XSP16, literal(-10)))
          CFI (cfiCond129) V5 load(1, XDATA, add(CFA_XSP16, literal(-9)))
          CFI (cfiCond129) V6 load(1, XDATA, add(CFA_XSP16, literal(-8)))
          CFI (cfiCond129) V7 load(1, XDATA, add(CFA_XSP16, literal(-7)))
          CFI (cfiCond129) R7 load(1, XDATA, add(CFA_XSP16, literal(-6)))
          CFI (cfiCond129) ?RET_LOW load(1, XDATA, add(CFA_XSP16, literal(-5)))
          CFI (cfiCond129) ?RET_HIGH load(1, XDATA, add(CFA_XSP16, literal(-4)))
          CFI (cfiCond129) ?BRET_EXT load(1, XDATA, add(CFA_XSP16, literal(-3)))
          CFI (cfiCond129) DPL0 load(1, XDATA, add(CFA_XSP16, literal(-2)))
          CFI (cfiCond129) DPH0 load(1, XDATA, add(CFA_XSP16, literal(-1)))
          CFI (cfiCond129) CFA_SP SP+-2
          CFI (cfiCond129) CFA_XSP16 add(XSP16, 35)
          CFI Block cfiPicker130 Using cfiCommon1
          CFI (cfiPicker130) NoFunction
          CFI (cfiPicker130) Picker
        MOV     ?V1,R3
        MOV     DPL,R2
        MOV     DPH,R3
        INC     DPTR
        INC     DPTR
        MOVX    A,@DPTR
        MOV     ?V3,A
        MOV     A,R2
        ADD     A,#0x3
        MOV     ?V0,A
        RET
          CFI (cfiCond128) CFA_SP SP+0
          CFI (cfiCond129) CFA_SP SP+0
          CFI (cfiPicker130) CFA_SP SP+0
          CFI EndBlock cfiCond128
          CFI EndBlock cfiCond129
          CFI EndBlock cfiPicker130

        RSEG BANKED_CODE:CODE:NOROOT(0)
?Subroutine18:
          CFI Block cfiCond131 Using cfiCommon0
          CFI Function MT_ZdoBindRequest
          CFI Conditional ??CrossCallReturnLabel_26
          CFI R6 load(1, XDATA, add(CFA_XSP16, literal(-16)))
          CFI VB load(1, XDATA, add(CFA_XSP16, literal(-15)))
          CFI V0 load(1, XDATA, add(CFA_XSP16, literal(-14)))
          CFI V1 load(1, XDATA, add(CFA_XSP16, literal(-13)))
          CFI V2 load(1, XDATA, add(CFA_XSP16, literal(-12)))
          CFI V3 load(1, XDATA, add(CFA_XSP16, literal(-11)))
          CFI V4 load(1, XDATA, add(CFA_XSP16, literal(-10)))
          CFI V5 load(1, XDATA, add(CFA_XSP16, literal(-9)))
          CFI V6 load(1, XDATA, add(CFA_XSP16, literal(-8)))
          CFI V7 load(1, XDATA, add(CFA_XSP16, literal(-7)))
          CFI R7 load(1, XDATA, add(CFA_XSP16, literal(-6)))
          CFI ?RET_LOW load(1, XDATA, add(CFA_XSP16, literal(-5)))
          CFI ?RET_HIGH load(1, XDATA, add(CFA_XSP16, literal(-4)))
          CFI ?BRET_EXT load(1, XDATA, add(CFA_XSP16, literal(-3)))
          CFI DPL0 load(1, XDATA, add(CFA_XSP16, literal(-2)))
          CFI DPH0 load(1, XDATA, add(CFA_XSP16, literal(-1)))
          CFI CFA_SP SP+-2
          CFI CFA_XSP16 add(XSP16, 35)
          CFI Block cfiCond132 Using cfiCommon0
          CFI (cfiCond132) Function MT_ZdoUnbindRequest
          CFI (cfiCond132) Conditional ??CrossCallReturnLabel_27
          CFI (cfiCond132) R6 load(1, XDATA, add(CFA_XSP16, literal(-16)))
          CFI (cfiCond132) VB load(1, XDATA, add(CFA_XSP16, literal(-15)))
          CFI (cfiCond132) V0 load(1, XDATA, add(CFA_XSP16, literal(-14)))
          CFI (cfiCond132) V1 load(1, XDATA, add(CFA_XSP16, literal(-13)))
          CFI (cfiCond132) V2 load(1, XDATA, add(CFA_XSP16, literal(-12)))
          CFI (cfiCond132) V3 load(1, XDATA, add(CFA_XSP16, literal(-11)))
          CFI (cfiCond132) V4 load(1, XDATA, add(CFA_XSP16, literal(-10)))
          CFI (cfiCond132) V5 load(1, XDATA, add(CFA_XSP16, literal(-9)))
          CFI (cfiCond132) V6 load(1, XDATA, add(CFA_XSP16, literal(-8)))
          CFI (cfiCond132) V7 load(1, XDATA, add(CFA_XSP16, literal(-7)))
          CFI (cfiCond132) R7 load(1, XDATA, add(CFA_XSP16, literal(-6)))
          CFI (cfiCond132) ?RET_LOW load(1, XDATA, add(CFA_XSP16, literal(-5)))
          CFI (cfiCond132) ?RET_HIGH load(1, XDATA, add(CFA_XSP16, literal(-4)))
          CFI (cfiCond132) ?BRET_EXT load(1, XDATA, add(CFA_XSP16, literal(-3)))
          CFI (cfiCond132) DPL0 load(1, XDATA, add(CFA_XSP16, literal(-2)))
          CFI (cfiCond132) DPH0 load(1, XDATA, add(CFA_XSP16, literal(-1)))
          CFI (cfiCond132) CFA_SP SP+-2
          CFI (cfiCond132) CFA_XSP16 add(XSP16, 35)
          CFI Block cfiPicker133 Using cfiCommon1
          CFI (cfiPicker133) NoFunction
          CFI (cfiPicker133) Picker
        MOV     A,#0x2
        MOVX    @DPTR,A
        MOV     DPL,?V0
        MOV     DPH,?V1
        MOVX    A,@DPTR
        MOV     R2,A
        INC     DPTR
        MOVX    A,@DPTR
        MOV     R1,A
        MOV     A,R2
        MOV     R0,A
        MOV     A,#0xa
        RET
          CFI (cfiCond131) CFA_SP SP+0
          CFI (cfiCond132) CFA_SP SP+0
          CFI (cfiPicker133) CFA_SP SP+0
          CFI EndBlock cfiCond131
          CFI EndBlock cfiCond132
          CFI EndBlock cfiPicker133

        RSEG BANKED_CODE:CODE:NOROOT(0)
?Subroutine7:
          CFI Block cfiCond134 Using cfiCommon0
          CFI Function MT_ZdoBindRequest
          CFI Conditional ??CrossCallReturnLabel_7
          CFI R6 load(1, XDATA, add(CFA_XSP16, literal(-16)))
          CFI VB load(1, XDATA, add(CFA_XSP16, literal(-15)))
          CFI V0 load(1, XDATA, add(CFA_XSP16, literal(-14)))
          CFI V1 load(1, XDATA, add(CFA_XSP16, literal(-13)))
          CFI V2 load(1, XDATA, add(CFA_XSP16, literal(-12)))
          CFI V3 load(1, XDATA, add(CFA_XSP16, literal(-11)))
          CFI V4 load(1, XDATA, add(CFA_XSP16, literal(-10)))
          CFI V5 load(1, XDATA, add(CFA_XSP16, literal(-9)))
          CFI V6 load(1, XDATA, add(CFA_XSP16, literal(-8)))
          CFI V7 load(1, XDATA, add(CFA_XSP16, literal(-7)))
          CFI R7 load(1, XDATA, add(CFA_XSP16, literal(-6)))
          CFI ?RET_LOW load(1, XDATA, add(CFA_XSP16, literal(-5)))
          CFI ?RET_HIGH load(1, XDATA, add(CFA_XSP16, literal(-4)))
          CFI ?BRET_EXT load(1, XDATA, add(CFA_XSP16, literal(-3)))
          CFI DPL0 load(1, XDATA, add(CFA_XSP16, literal(-2)))
          CFI DPH0 load(1, XDATA, add(CFA_XSP16, literal(-1)))
          CFI CFA_SP SP+-2
          CFI CFA_XSP16 add(XSP16, 35)
          CFI Block cfiCond135 Using cfiCommon0
          CFI (cfiCond135) Function MT_ZdoUnbindRequest
          CFI (cfiCond135) Conditional ??CrossCallReturnLabel_8
          CFI (cfiCond135) R6 load(1, XDATA, add(CFA_XSP16, literal(-16)))
          CFI (cfiCond135) VB load(1, XDATA, add(CFA_XSP16, literal(-15)))
          CFI (cfiCond135) V0 load(1, XDATA, add(CFA_XSP16, literal(-14)))
          CFI (cfiCond135) V1 load(1, XDATA, add(CFA_XSP16, literal(-13)))
          CFI (cfiCond135) V2 load(1, XDATA, add(CFA_XSP16, literal(-12)))
          CFI (cfiCond135) V3 load(1, XDATA, add(CFA_XSP16, literal(-11)))
          CFI (cfiCond135) V4 load(1, XDATA, add(CFA_XSP16, literal(-10)))
          CFI (cfiCond135) V5 load(1, XDATA, add(CFA_XSP16, literal(-9)))
          CFI (cfiCond135) V6 load(1, XDATA, add(CFA_XSP16, literal(-8)))
          CFI (cfiCond135) V7 load(1, XDATA, add(CFA_XSP16, literal(-7)))
          CFI (cfiCond135) R7 load(1, XDATA, add(CFA_XSP16, literal(-6)))
          CFI (cfiCond135) ?RET_LOW load(1, XDATA, add(CFA_XSP16, literal(-5)))
          CFI (cfiCond135) ?RET_HIGH load(1, XDATA, add(CFA_XSP16, literal(-4)))
          CFI (cfiCond135) ?BRET_EXT load(1, XDATA, add(CFA_XSP16, literal(-3)))
          CFI (cfiCond135) DPL0 load(1, XDATA, add(CFA_XSP16, literal(-2)))
          CFI (cfiCond135) DPH0 load(1, XDATA, add(CFA_XSP16, literal(-1)))
          CFI (cfiCond135) CFA_SP SP+-2
          CFI (cfiCond135) CFA_XSP16 add(XSP16, 35)
          CFI Block cfiPicker136 Using cfiCommon1
          CFI (cfiPicker136) NoFunction
          CFI (cfiPicker136) Picker
        MOV     A,R0
        MOVX    @DPTR,A
        INC     DPTR
        MOV     A,R1
        MOVX    @DPTR,A
        MOV     A,?V0
        ADD     A,#0x2
        MOV     ?V6,A
        CLR     A
        ADDC    A,?V1
        MOV     ?V7,A
        MOV     A,?V6
        ADD     A,#0x8
        MOV     ?V0,A
        CLR     A
        ADDC    A,?V7
        MOV     DPL,?V0
        MOV     DPH,A
        MOVX    A,@DPTR
        MOV     ?V2,A
        INC     DPTR
        MOV     ?V0,DPL
        MOV     ?V1,DPH
        LCALL   ?Subroutine31 & 0xFFFF
??CrossCallReturnLabel_60:
        MOV     R6,A
        CLR     A
        ADDC    A,R1
        MOV     R7,A
        MOV     DPL,?V0
        MOV     DPH,?V1
        INC     DPTR
        INC     DPTR
        MOVX    A,@DPTR
        MOV     R0,A
        MOV     A,#0x9
        RET
          CFI (cfiCond134) CFA_SP SP+0
          CFI (cfiCond135) CFA_SP SP+0
          CFI (cfiPicker136) CFA_SP SP+0
          CFI EndBlock cfiCond134
          CFI EndBlock cfiCond135
          CFI EndBlock cfiPicker136

        RSEG BANKED_CODE:CODE:NOROOT(0)
?Subroutine31:
          CFI Block cfiCond137 Using cfiCommon0
          CFI Function MT_ZdoEndDevBindRequest
          CFI Conditional ??CrossCallReturnLabel_59
          CFI R6 load(1, XDATA, add(CFA_XSP16, literal(-15)))
          CFI VB load(1, XDATA, add(CFA_XSP16, literal(-14)))
          CFI V0 load(1, XDATA, add(CFA_XSP16, literal(-13)))
          CFI V1 load(1, XDATA, add(CFA_XSP16, literal(-12)))
          CFI V2 load(1, XDATA, add(CFA_XSP16, literal(-11)))
          CFI V3 load(1, XDATA, add(CFA_XSP16, literal(-10)))
          CFI V4 load(1, XDATA, add(CFA_XSP16, literal(-9)))
          CFI V5 load(1, XDATA, add(CFA_XSP16, literal(-8)))
          CFI V6 load(1, XDATA, add(CFA_XSP16, literal(-7)))
          CFI R7 load(1, XDATA, add(CFA_XSP16, literal(-6)))
          CFI ?RET_LOW load(1, XDATA, add(CFA_XSP16, literal(-5)))
          CFI ?RET_HIGH load(1, XDATA, add(CFA_XSP16, literal(-4)))
          CFI ?BRET_EXT load(1, XDATA, add(CFA_XSP16, literal(-3)))
          CFI DPL0 load(1, XDATA, add(CFA_XSP16, literal(-2)))
          CFI DPH0 load(1, XDATA, add(CFA_XSP16, literal(-1)))
          CFI CFA_SP SP+-2
          CFI CFA_XSP16 add(XSP16, 85)
          CFI Block cfiCond138 Using cfiCommon0
          CFI (cfiCond138) Function MT_ZdoBindRequest
          CFI (cfiCond138) Conditional ??CrossCallReturnLabel_60, ??CrossCallReturnLabel_7
          CFI (cfiCond138) R6 load(1, XDATA, add(CFA_XSP16, literal(-16)))
          CFI (cfiCond138) VB load(1, XDATA, add(CFA_XSP16, literal(-15)))
          CFI (cfiCond138) V0 load(1, XDATA, add(CFA_XSP16, literal(-14)))
          CFI (cfiCond138) V1 load(1, XDATA, add(CFA_XSP16, literal(-13)))
          CFI (cfiCond138) V2 load(1, XDATA, add(CFA_XSP16, literal(-12)))
          CFI (cfiCond138) V3 load(1, XDATA, add(CFA_XSP16, literal(-11)))
          CFI (cfiCond138) V4 load(1, XDATA, add(CFA_XSP16, literal(-10)))
          CFI (cfiCond138) V5 load(1, XDATA, add(CFA_XSP16, literal(-9)))
          CFI (cfiCond138) V6 load(1, XDATA, add(CFA_XSP16, literal(-8)))
          CFI (cfiCond138) V7 load(1, XDATA, add(CFA_XSP16, literal(-7)))
          CFI (cfiCond138) R7 load(1, XDATA, add(CFA_XSP16, literal(-6)))
          CFI (cfiCond138) ?RET_LOW load(1, XDATA, add(CFA_XSP16, literal(-5)))
          CFI (cfiCond138) ?RET_HIGH load(1, XDATA, add(CFA_XSP16, literal(-4)))
          CFI (cfiCond138) ?BRET_EXT load(1, XDATA, add(CFA_XSP16, literal(-3)))
          CFI (cfiCond138) DPL0 load(1, XDATA, add(CFA_XSP16, literal(-2)))
          CFI (cfiCond138) DPH0 load(1, XDATA, add(CFA_XSP16, literal(-1)))
          CFI (cfiCond138) CFA_SP SP+-4
          CFI (cfiCond138) CFA_XSP16 add(XSP16, 35)
          CFI Block cfiCond139 Using cfiCommon0
          CFI (cfiCond139) Function MT_ZdoUnbindRequest
          CFI (cfiCond139) Conditional ??CrossCallReturnLabel_60, ??CrossCallReturnLabel_8
          CFI (cfiCond139) R6 load(1, XDATA, add(CFA_XSP16, literal(-16)))
          CFI (cfiCond139) VB load(1, XDATA, add(CFA_XSP16, literal(-15)))
          CFI (cfiCond139) V0 load(1, XDATA, add(CFA_XSP16, literal(-14)))
          CFI (cfiCond139) V1 load(1, XDATA, add(CFA_XSP16, literal(-13)))
          CFI (cfiCond139) V2 load(1, XDATA, add(CFA_XSP16, literal(-12)))
          CFI (cfiCond139) V3 load(1, XDATA, add(CFA_XSP16, literal(-11)))
          CFI (cfiCond139) V4 load(1, XDATA, add(CFA_XSP16, literal(-10)))
          CFI (cfiCond139) V5 load(1, XDATA, add(CFA_XSP16, literal(-9)))
          CFI (cfiCond139) V6 load(1, XDATA, add(CFA_XSP16, literal(-8)))
          CFI (cfiCond139) V7 load(1, XDATA, add(CFA_XSP16, literal(-7)))
          CFI (cfiCond139) R7 load(1, XDATA, add(CFA_XSP16, literal(-6)))
          CFI (cfiCond139) ?RET_LOW load(1, XDATA, add(CFA_XSP16, literal(-5)))
          CFI (cfiCond139) ?RET_HIGH load(1, XDATA, add(CFA_XSP16, literal(-4)))
          CFI (cfiCond139) ?BRET_EXT load(1, XDATA, add(CFA_XSP16, literal(-3)))
          CFI (cfiCond139) DPL0 load(1, XDATA, add(CFA_XSP16, literal(-2)))
          CFI (cfiCond139) DPH0 load(1, XDATA, add(CFA_XSP16, literal(-1)))
          CFI (cfiCond139) CFA_SP SP+-4
          CFI (cfiCond139) CFA_XSP16 add(XSP16, 35)
          CFI Block cfiCond140 Using cfiCommon0
          CFI (cfiCond140) Function MT_ZdoEndDevAnnce
          CFI (cfiCond140) Conditional ??CrossCallReturnLabel_61, ??CrossCallReturnLabel_13
          CFI (cfiCond140) R6 load(1, XDATA, add(CFA_XSP16, literal(-9)))
          CFI (cfiCond140) VB load(1, XDATA, add(CFA_XSP16, literal(-8)))
          CFI (cfiCond140) V0 load(1, XDATA, add(CFA_XSP16, literal(-7)))
          CFI (cfiCond140) R7 load(1, XDATA, add(CFA_XSP16, literal(-6)))
          CFI (cfiCond140) ?RET_LOW load(1, XDATA, add(CFA_XSP16, literal(-5)))
          CFI (cfiCond140) ?RET_HIGH load(1, XDATA, add(CFA_XSP16, literal(-4)))
          CFI (cfiCond140) ?BRET_EXT load(1, XDATA, add(CFA_XSP16, literal(-3)))
          CFI (cfiCond140) DPL0 load(1, XDATA, add(CFA_XSP16, literal(-2)))
          CFI (cfiCond140) DPH0 load(1, XDATA, add(CFA_XSP16, literal(-1)))
          CFI (cfiCond140) CFA_SP SP+-4
          CFI (cfiCond140) CFA_XSP16 add(XSP16, 10)
          CFI Block cfiCond141 Using cfiCommon0
          CFI (cfiCond141) Function MT_ZdoSetLinkKey
          CFI (cfiCond141) Conditional ??CrossCallReturnLabel_61, ??CrossCallReturnLabel_14
          CFI (cfiCond141) R6 load(1, XDATA, add(CFA_XSP16, literal(-10)))
          CFI (cfiCond141) VB load(1, XDATA, add(CFA_XSP16, literal(-9)))
          CFI (cfiCond141) V0 load(1, XDATA, add(CFA_XSP16, literal(-8)))
          CFI (cfiCond141) V1 load(1, XDATA, add(CFA_XSP16, literal(-7)))
          CFI (cfiCond141) R7 load(1, XDATA, add(CFA_XSP16, literal(-6)))
          CFI (cfiCond141) ?RET_LOW load(1, XDATA, add(CFA_XSP16, literal(-5)))
          CFI (cfiCond141) ?RET_HIGH load(1, XDATA, add(CFA_XSP16, literal(-4)))
          CFI (cfiCond141) ?BRET_EXT load(1, XDATA, add(CFA_XSP16, literal(-3)))
          CFI (cfiCond141) DPL0 load(1, XDATA, add(CFA_XSP16, literal(-2)))
          CFI (cfiCond141) DPH0 load(1, XDATA, add(CFA_XSP16, literal(-1)))
          CFI (cfiCond141) CFA_SP SP+-4
          CFI (cfiCond141) CFA_XSP16 add(XSP16, 11)
          CFI Block cfiPicker142 Using cfiCommon1
          CFI (cfiPicker142) NoFunction
          CFI (cfiPicker142) Picker
        MOVX    A,@DPTR
        MOV     R2,A
        INC     DPTR
        MOVX    A,@DPTR
        MOV     R0,A
        CLR     A
        XCH     A,R0
        MOV     R1,A
        MOV     A,R2
        ADD     A,R0
        RET
          CFI (cfiCond137) CFA_SP SP+0
          CFI (cfiCond138) CFA_SP SP+-2
          CFI (cfiCond139) CFA_SP SP+-2
          CFI (cfiCond140) CFA_SP SP+-2
          CFI (cfiCond141) CFA_SP SP+-2
          CFI (cfiPicker142) CFA_SP SP+0
          CFI EndBlock cfiCond137
          CFI EndBlock cfiCond138
          CFI EndBlock cfiCond139
          CFI EndBlock cfiCond140
          CFI EndBlock cfiCond141
          CFI EndBlock cfiPicker142
// 1004 
// 1005 /***************************************************************************************************
// 1006  * @fn      MT_ZdoSetLinkKey
// 1007  *
// 1008  * @brief   Set an application or trust center link key.
// 1009  *
// 1010  * @param   pBuf  - MT message data
// 1011  *
// 1012  * @return  void
// 1013  ***************************************************************************************************/

        RSEG BANKED_CODE:CODE:NOROOT(0)
// 1014 void MT_ZdoSetLinkKey(uint8 *pBuf)
MT_ZdoSetLinkKey:
          CFI Block cfiBlock143 Using cfiCommon0
          CFI Function MT_ZdoSetLinkKey
        CODE
// 1015 {
        FUNCALL MT_ZdoSetLinkKey, ZDSecMgrAddLinkKey
        LOCFRAME ISTACK, 0, STACK
        LOCFRAME PSTACK, 0, STACK
        LOCFRAME XSTACK, 13, STACK
        LOCFRAME IOVERLAY, 0, STATIC
        LOCFRAME DOVERLAY, 0, STATIC
        ARGFRAME ISTACK, 0, STACK
        ARGFRAME PSTACK, 0, STACK
        ARGFRAME XSTACK, 13, STACK
        ARGFRAME IOVERLAY, 0, STATIC
        ARGFRAME DOVERLAY, 0, STATIC
        FUNCALL MT_ZdoSetLinkKey, MT_BuildAndSendZToolResponse
        LOCFRAME ISTACK, 0, STACK
        LOCFRAME PSTACK, 0, STACK
        LOCFRAME XSTACK, 11, STACK
        LOCFRAME IOVERLAY, 0, STATIC
        LOCFRAME DOVERLAY, 0, STATIC
        ARGFRAME ISTACK, 0, STACK
        ARGFRAME PSTACK, 0, STACK
        ARGFRAME XSTACK, 11, STACK
        ARGFRAME IOVERLAY, 0, STATIC
        ARGFRAME DOVERLAY, 0, STATIC
        REQUIRE ?V0
        REQUIRE ?V1
        MOV     A,#-0xa
        LCALL   ?BANKED_ENTER_XDATA
          CFI DPH0 load(1, XDATA, add(CFA_XSP16, literal(-1)))
          CFI DPL0 load(1, XDATA, add(CFA_XSP16, literal(-2)))
          CFI ?BRET_EXT load(1, XDATA, add(CFA_XSP16, literal(-3)))
          CFI ?RET_HIGH load(1, XDATA, add(CFA_XSP16, literal(-4)))
          CFI ?RET_LOW load(1, XDATA, add(CFA_XSP16, literal(-5)))
          CFI R7 load(1, XDATA, add(CFA_XSP16, literal(-6)))
          CFI V1 load(1, XDATA, add(CFA_XSP16, literal(-7)))
          CFI V0 load(1, XDATA, add(CFA_XSP16, literal(-8)))
          CFI VB load(1, XDATA, add(CFA_XSP16, literal(-9)))
          CFI R6 load(1, XDATA, add(CFA_XSP16, literal(-10)))
          CFI CFA_SP SP+0
          CFI CFA_XSP16 add(XSP16, 10)
        ; Saved register size: 10
        ; Auto size: 1
        MOV     A,#-0x1
        LCALL   ?ALLOC_XSTACK8
          CFI CFA_XSP16 add(XSP16, 11)
        MOV     A,R2
        MOV     R4,A
        MOV     A,R3
        MOV     R5,A
// 1016   uint8 cmdId;
// 1017   uint8 retValue;
// 1018   uint8 *pExtAddr;
// 1019   uint8 *pKey;
// 1020   uint16 shortAddr;
// 1021   
// 1022   /* parse header */
// 1023   cmdId = pBuf[MT_RPC_POS_CMD1];
        MOV     DPL,R4
        MOV     DPH,R5
        INC     DPTR
        INC     DPTR
        MOVX    A,@DPTR
        MOV     R6,A
// 1024   pBuf += MT_RPC_FRAME_HDR_SZ;
        MOV     A,R4
        ADD     A,#0x3
        MOV     R4,A
        JNC     ??MT_ZdoSetLinkKey_0
        INC     R5
// 1025 
// 1026   /* ShortAddr */
// 1027   shortAddr = BUILD_UINT16( pBuf[0], pBuf[1] );
??MT_ZdoSetLinkKey_0:
        LCALL   ?Subroutine11 & 0xFFFF
// 1028   pBuf += 2;
??CrossCallReturnLabel_14:
        JNC     ??MT_ZdoSetLinkKey_1
        INC     R5
// 1029   
// 1030   /* Extended Addr */
// 1031   pExtAddr = pBuf;
// 1032   pBuf += Z_EXTADDR_LEN;
// 1033   
// 1034   /* Key data */
// 1035   pKey = pBuf;
// 1036 
// 1037   retValue = (uint8)ZDSecMgrAddLinkKey( shortAddr, pExtAddr, pKey);
??MT_ZdoSetLinkKey_1:
        ; Setup parameters for call to function ZDSecMgrAddLinkKey
        ADD     A,#0x8
        MOV     ?V0,A
        CLR     A
        ADDC    A,R5
        MOV     ?V1,A
        MOV     R0,#?V0
        LCALL   ?PUSH_XSTACK_I_TWO
          CFI CFA_XSP16 add(XSP16, 13)
        LCALL   `??ZDSecMgrAddLinkKey::?relay`; Banked call to: ZDSecMgrAddLinkKey
        MOV     A,#0x2
        LCALL   ?DEALLOC_XSTACK8
          CFI CFA_XSP16 add(XSP16, 11)
        LJMP    ?Subroutine1 & 0xFFFF
// 1038 
// 1039   MT_BuildAndSendZToolResponse(((uint8)MT_RPC_CMD_SRSP | (uint8)MT_RPC_SYS_ZDO), cmdId, 1, &retValue);
// 1040 }
          CFI EndBlock cfiBlock143

        RSEG BANKED_CODE:CODE:NOROOT(0)
?Subroutine11:
          CFI Block cfiCond144 Using cfiCommon0
          CFI Function MT_ZdoEndDevAnnce
          CFI Conditional ??CrossCallReturnLabel_13
          CFI R6 load(1, XDATA, add(CFA_XSP16, literal(-9)))
          CFI VB load(1, XDATA, add(CFA_XSP16, literal(-8)))
          CFI V0 load(1, XDATA, add(CFA_XSP16, literal(-7)))
          CFI R7 load(1, XDATA, add(CFA_XSP16, literal(-6)))
          CFI ?RET_LOW load(1, XDATA, add(CFA_XSP16, literal(-5)))
          CFI ?RET_HIGH load(1, XDATA, add(CFA_XSP16, literal(-4)))
          CFI ?BRET_EXT load(1, XDATA, add(CFA_XSP16, literal(-3)))
          CFI DPL0 load(1, XDATA, add(CFA_XSP16, literal(-2)))
          CFI DPH0 load(1, XDATA, add(CFA_XSP16, literal(-1)))
          CFI CFA_SP SP+-2
          CFI CFA_XSP16 add(XSP16, 10)
          CFI Block cfiCond145 Using cfiCommon0
          CFI (cfiCond145) Function MT_ZdoSetLinkKey
          CFI (cfiCond145) Conditional ??CrossCallReturnLabel_14
          CFI (cfiCond145) R6 load(1, XDATA, add(CFA_XSP16, literal(-10)))
          CFI (cfiCond145) VB load(1, XDATA, add(CFA_XSP16, literal(-9)))
          CFI (cfiCond145) V0 load(1, XDATA, add(CFA_XSP16, literal(-8)))
          CFI (cfiCond145) V1 load(1, XDATA, add(CFA_XSP16, literal(-7)))
          CFI (cfiCond145) R7 load(1, XDATA, add(CFA_XSP16, literal(-6)))
          CFI (cfiCond145) ?RET_LOW load(1, XDATA, add(CFA_XSP16, literal(-5)))
          CFI (cfiCond145) ?RET_HIGH load(1, XDATA, add(CFA_XSP16, literal(-4)))
          CFI (cfiCond145) ?BRET_EXT load(1, XDATA, add(CFA_XSP16, literal(-3)))
          CFI (cfiCond145) DPL0 load(1, XDATA, add(CFA_XSP16, literal(-2)))
          CFI (cfiCond145) DPH0 load(1, XDATA, add(CFA_XSP16, literal(-1)))
          CFI (cfiCond145) CFA_SP SP+-2
          CFI (cfiCond145) CFA_XSP16 add(XSP16, 11)
          CFI Block cfiPicker146 Using cfiCommon1
          CFI (cfiPicker146) NoFunction
          CFI (cfiPicker146) Picker
        MOV     DPL,R4
        MOV     DPH,R5
        LCALL   ?Subroutine31 & 0xFFFF
??CrossCallReturnLabel_61:
        CLR     A
        ADDC    A,R1
        MOV     R3,A
        MOV     A,R4
        ADD     A,#0x2
        MOV     R4,A
        RET
          CFI (cfiCond144) CFA_SP SP+0
          CFI (cfiCond145) CFA_SP SP+0
          CFI (cfiPicker146) CFA_SP SP+0
          CFI EndBlock cfiCond144
          CFI EndBlock cfiCond145
          CFI EndBlock cfiPicker146
// 1041 
// 1042 /***************************************************************************************************
// 1043  * @fn      MT_ZdoRemoveLinkKey
// 1044  *
// 1045  * @brief   Remove an application or trust center link key.
// 1046  *
// 1047  * @param   pBuf  - MT message data
// 1048  *
// 1049  * @return  void
// 1050  ***************************************************************************************************/

        RSEG BANKED_CODE:CODE:NOROOT(0)
// 1051 void MT_ZdoRemoveLinkKey(uint8 *pBuf)
MT_ZdoRemoveLinkKey:
          CFI Block cfiBlock147 Using cfiCommon0
          CFI Function MT_ZdoRemoveLinkKey
        CODE
// 1052 {
        FUNCALL MT_ZdoRemoveLinkKey, ZDSecMgrDeviceRemoveByExtAddr
        LOCFRAME ISTACK, 0, STACK
        LOCFRAME PSTACK, 0, STACK
        LOCFRAME XSTACK, 10, STACK
        LOCFRAME IOVERLAY, 0, STATIC
        LOCFRAME DOVERLAY, 0, STATIC
        ARGFRAME ISTACK, 0, STACK
        ARGFRAME PSTACK, 0, STACK
        ARGFRAME XSTACK, 10, STACK
        ARGFRAME IOVERLAY, 0, STATIC
        ARGFRAME DOVERLAY, 0, STATIC
        FUNCALL MT_ZdoRemoveLinkKey, MT_BuildAndSendZToolResponse
        LOCFRAME ISTACK, 0, STACK
        LOCFRAME PSTACK, 0, STACK
        LOCFRAME XSTACK, 10, STACK
        LOCFRAME IOVERLAY, 0, STATIC
        LOCFRAME DOVERLAY, 0, STATIC
        ARGFRAME ISTACK, 0, STACK
        ARGFRAME PSTACK, 0, STACK
        ARGFRAME XSTACK, 10, STACK
        ARGFRAME IOVERLAY, 0, STATIC
        ARGFRAME DOVERLAY, 0, STATIC
        MOV     A,#-0x9
        LCALL   ?BANKED_ENTER_XDATA
          CFI DPH0 load(1, XDATA, add(CFA_XSP16, literal(-1)))
          CFI DPL0 load(1, XDATA, add(CFA_XSP16, literal(-2)))
          CFI ?BRET_EXT load(1, XDATA, add(CFA_XSP16, literal(-3)))
          CFI ?RET_HIGH load(1, XDATA, add(CFA_XSP16, literal(-4)))
          CFI ?RET_LOW load(1, XDATA, add(CFA_XSP16, literal(-5)))
          CFI R7 load(1, XDATA, add(CFA_XSP16, literal(-6)))
          CFI V0 load(1, XDATA, add(CFA_XSP16, literal(-7)))
          CFI VB load(1, XDATA, add(CFA_XSP16, literal(-8)))
          CFI R6 load(1, XDATA, add(CFA_XSP16, literal(-9)))
          CFI CFA_SP SP+0
          CFI CFA_XSP16 add(XSP16, 9)
        ; Saved register size: 9
        ; Auto size: 1
        MOV     A,#-0x1
        LCALL   ?ALLOC_XSTACK8
          CFI CFA_XSP16 add(XSP16, 10)
// 1053   uint8 cmdId;
// 1054   uint8 retValue;
// 1055   uint8 *pExtAddr;
// 1056     
// 1057   /* parse header */
// 1058   cmdId = pBuf[MT_RPC_POS_CMD1];
        LCALL   ??Subroutine41_0 & 0xFFFF
// 1059   pBuf += MT_RPC_FRAME_HDR_SZ;
// 1060   
// 1061   /* ShortAddr */
// 1062   pExtAddr = pBuf;
// 1063 
// 1064   retValue = ZDSecMgrDeviceRemoveByExtAddr( pExtAddr );
??CrossCallReturnLabel_93:
        JNC     ??MT_ZdoRemoveLinkKey_0
        INC     R3
??MT_ZdoRemoveLinkKey_0:
        LCALL   `??ZDSecMgrDeviceRemoveByExtAddr::?relay`; Banked call to: ZDSecMgrDeviceRemoveByExtAddr
        LJMP    ?Subroutine5 & 0xFFFF
// 1065 
// 1066   MT_BuildAndSendZToolResponse(((uint8)MT_RPC_CMD_SRSP | (uint8)MT_RPC_SYS_ZDO), cmdId, 1, &retValue);
// 1067 }
          CFI EndBlock cfiBlock147
// 1068 
// 1069 /***************************************************************************************************
// 1070  * @fn      MT_ZdoGetLinkKey
// 1071  *
// 1072  * @brief   Get the application or trust center link key.
// 1073  *
// 1074  * @param   pBuf  - MT message data
// 1075  *
// 1076  * @return  void
// 1077  ***************************************************************************************************/

        RSEG BANKED_CODE:CODE:NOROOT(0)
// 1078 void MT_ZdoGetLinkKey(uint8 *pBuf)
MT_ZdoGetLinkKey:
          CFI Block cfiBlock148 Using cfiCommon0
          CFI Function MT_ZdoGetLinkKey
        CODE
// 1079 {
        FUNCALL MT_ZdoGetLinkKey, APSME_LinkKeyDataGet
        LOCFRAME ISTACK, 0, STACK
        LOCFRAME PSTACK, 0, STACK
        LOCFRAME XSTACK, 16, STACK
        LOCFRAME IOVERLAY, 0, STATIC
        LOCFRAME DOVERLAY, 0, STATIC
        ARGFRAME ISTACK, 0, STACK
        ARGFRAME PSTACK, 0, STACK
        ARGFRAME XSTACK, 16, STACK
        ARGFRAME IOVERLAY, 0, STATIC
        ARGFRAME DOVERLAY, 0, STATIC
        FUNCALL MT_ZdoGetLinkKey, osal_mem_alloc
        LOCFRAME ISTACK, 0, STACK
        LOCFRAME PSTACK, 0, STACK
        LOCFRAME XSTACK, 16, STACK
        LOCFRAME IOVERLAY, 0, STATIC
        LOCFRAME DOVERLAY, 0, STATIC
        ARGFRAME ISTACK, 0, STACK
        ARGFRAME PSTACK, 0, STACK
        ARGFRAME XSTACK, 16, STACK
        ARGFRAME IOVERLAY, 0, STATIC
        ARGFRAME DOVERLAY, 0, STATIC
        FUNCALL MT_ZdoGetLinkKey, osal_memset
        LOCFRAME ISTACK, 0, STACK
        LOCFRAME PSTACK, 0, STACK
        LOCFRAME XSTACK, 16, STACK
        LOCFRAME IOVERLAY, 0, STATIC
        LOCFRAME DOVERLAY, 0, STATIC
        ARGFRAME ISTACK, 0, STACK
        ARGFRAME PSTACK, 0, STACK
        ARGFRAME XSTACK, 16, STACK
        ARGFRAME IOVERLAY, 0, STATIC
        ARGFRAME DOVERLAY, 0, STATIC
        FUNCALL MT_ZdoGetLinkKey, MT_BuildAndSendZToolResponse
        LOCFRAME ISTACK, 0, STACK
        LOCFRAME PSTACK, 0, STACK
        LOCFRAME XSTACK, 16, STACK
        LOCFRAME IOVERLAY, 0, STATIC
        LOCFRAME DOVERLAY, 0, STATIC
        ARGFRAME ISTACK, 0, STACK
        ARGFRAME PSTACK, 0, STACK
        ARGFRAME XSTACK, 16, STACK
        ARGFRAME IOVERLAY, 0, STATIC
        ARGFRAME DOVERLAY, 0, STATIC
        FUNCALL MT_ZdoGetLinkKey, osal_memcpy
        LOCFRAME ISTACK, 0, STACK
        LOCFRAME PSTACK, 0, STACK
        LOCFRAME XSTACK, 19, STACK
        LOCFRAME IOVERLAY, 0, STATIC
        LOCFRAME DOVERLAY, 0, STATIC
        ARGFRAME ISTACK, 0, STACK
        ARGFRAME PSTACK, 0, STACK
        ARGFRAME XSTACK, 19, STACK
        ARGFRAME IOVERLAY, 0, STATIC
        ARGFRAME DOVERLAY, 0, STATIC
        FUNCALL MT_ZdoGetLinkKey, osal_memcpy
        LOCFRAME ISTACK, 0, STACK
        LOCFRAME PSTACK, 0, STACK
        LOCFRAME XSTACK, 19, STACK
        LOCFRAME IOVERLAY, 0, STATIC
        LOCFRAME DOVERLAY, 0, STATIC
        ARGFRAME ISTACK, 0, STACK
        ARGFRAME PSTACK, 0, STACK
        ARGFRAME XSTACK, 19, STACK
        ARGFRAME IOVERLAY, 0, STATIC
        ARGFRAME DOVERLAY, 0, STATIC
        REQUIRE ?V0
        REQUIRE ?V1
        REQUIRE ?V2
        REQUIRE ?V3
        REQUIRE ?V4
        REQUIRE ?V5
        MOV     A,#-0xe
        LCALL   ?BANKED_ENTER_XDATA
          CFI DPH0 load(1, XDATA, add(CFA_XSP16, literal(-1)))
          CFI DPL0 load(1, XDATA, add(CFA_XSP16, literal(-2)))
          CFI ?BRET_EXT load(1, XDATA, add(CFA_XSP16, literal(-3)))
          CFI ?RET_HIGH load(1, XDATA, add(CFA_XSP16, literal(-4)))
          CFI ?RET_LOW load(1, XDATA, add(CFA_XSP16, literal(-5)))
          CFI R7 load(1, XDATA, add(CFA_XSP16, literal(-6)))
          CFI V5 load(1, XDATA, add(CFA_XSP16, literal(-7)))
          CFI V4 load(1, XDATA, add(CFA_XSP16, literal(-8)))
          CFI V3 load(1, XDATA, add(CFA_XSP16, literal(-9)))
          CFI V2 load(1, XDATA, add(CFA_XSP16, literal(-10)))
          CFI V1 load(1, XDATA, add(CFA_XSP16, literal(-11)))
          CFI V0 load(1, XDATA, add(CFA_XSP16, literal(-12)))
          CFI VB load(1, XDATA, add(CFA_XSP16, literal(-13)))
          CFI R6 load(1, XDATA, add(CFA_XSP16, literal(-14)))
          CFI CFA_SP SP+0
          CFI CFA_XSP16 add(XSP16, 14)
        ; Saved register size: 14
        ; Auto size: 2
        MOV     A,#-0x2
        LCALL   ?ALLOC_XSTACK8
          CFI CFA_XSP16 add(XSP16, 16)
// 1080   uint8 cmdId;
// 1081   uint8 retValue;
// 1082   uint8 *pExtAddr;
// 1083   uint8 *retBuf;
// 1084   uint8 len;
// 1085   APSME_LinkKeyData_t *pLinkKey;
// 1086     
// 1087   /* parse header */
// 1088   cmdId = pBuf[MT_RPC_POS_CMD1];
        MOV     DPL,R2
        MOV     DPH,R3
        INC     DPTR
        INC     DPTR
        MOVX    A,@DPTR
        MOV     R7,A
// 1089   pBuf += MT_RPC_FRAME_HDR_SZ;
// 1090   
// 1091   /* Extended Address */
// 1092   pExtAddr = pBuf;
        LCALL   ?Subroutine24 & 0xFFFF
// 1093 
// 1094   /* Fetch the key data */
// 1095   retValue = APSME_LinkKeyDataGet( pExtAddr, &pLinkKey );
??CrossCallReturnLabel_40:
        ; Setup parameters for call to function APSME_LinkKeyDataGet
        MOV     R4,?XSP + 0
        MOV     R5,?XSP + 1
        INC     R2
        INC     R2
        INC     R2
        MOV     R3,A
        LCALL   `??APSME_LinkKeyDataGet::?relay`; Banked call to: APSME_LinkKeyDataGet
        MOV     A,R1
        MOV     R6,A
// 1096   
// 1097   /* Construct the response message */
// 1098   len = 1 + Z_EXTADDR_LEN + SEC_KEY_LEN; // status + extAddr + key
// 1099   if ( ( retBuf = osal_mem_alloc( len ) ) == NULL )
        ; Setup parameters for call to function osal_mem_alloc
        MOV     R2,#0x19
        MOV     R3,#0x0
        LCALL   `??osal_mem_alloc::?relay`; Banked call to: osal_mem_alloc
        MOV     ?V4,R2
        MOV     ?V5,R3
        MOV     DPL,R2
        MOV     DPH,R3
        INC     DPTR
        MOV     R2,DPL
        MOV     R3,DPH
        MOV     A,?V4
        ORL     A,?V5
        JNZ     ??MT_ZdoGetLinkKey_0
// 1100   {
// 1101     retValue = ZMemError;
        MOV     R6,#0x10
// 1102   }
// 1103   else
// 1104   {  
// 1105     if( retValue == ZSuccess )
// 1106     {
// 1107       /* Extended Address */
// 1108       osal_memcpy( &(retBuf[1]), pExtAddr, Z_EXTADDR_LEN );
// 1109       
// 1110       /* Key data */
// 1111       osal_memcpy( &(retBuf[1 + Z_EXTADDR_LEN]), pLinkKey->key, SEC_KEY_LEN );      
// 1112     }
// 1113   }
// 1114     
// 1115   if( retValue != ZSuccess )
// 1116   {
// 1117     /* Failed case - set the rest fields to all FF */
// 1118     osal_memset( &(retBuf[1]), 0xFF, Z_EXTADDR_LEN + SEC_KEY_LEN );   
??MT_ZdoGetLinkKey_1:
        ; Setup parameters for call to function osal_memset
        MOV     R4,#0x18
        MOV     R5,#0x0
        MOV     R1,#-0x1
        LCALL   `??osal_memset::?relay`; Banked call to: osal_memset
// 1119   }    
// 1120   
// 1121   retBuf[0] = retValue;  /* Status */
??MT_ZdoGetLinkKey_2:
        MOV     A,R6
        MOV     DPL,?V4
        MOV     DPH,?V5
        MOVX    @DPTR,A
// 1122   
// 1123   MT_BuildAndSendZToolResponse(((uint8)MT_RPC_CMD_SRSP | (uint8)MT_RPC_SYS_ZDO), cmdId, len, retBuf);
        ; Setup parameters for call to function MT_BuildAndSendZToolResponse
        MOV     R4,?V4
        MOV     R5,?V5
        MOV     R3,#0x19
        MOV     A,R7
        MOV     R2,A
        MOV     R1,#0x65
        LCALL   `??MT_BuildAndSendZToolResponse::?relay`; Banked call to: MT_BuildAndSendZToolResponse
// 1124   
// 1125   return;
        MOV     A,#0x2
        LJMP    ?Subroutine2 & 0xFFFF
??MT_ZdoGetLinkKey_0:
        MOV     A,R6
        JNZ     ??MT_ZdoGetLinkKey_1
        ; Setup parameters for call to function osal_memcpy
        MOV     ?V2,#0x0
        MOV     R0,#?V0
        LCALL   ?PUSH_XSTACK_I_THREE
          CFI CFA_XSP16 add(XSP16, 19)
        MOV     R4,#0x8
        MOV     R5,#0x0
        LCALL   `??osal_memcpy::?relay`; Banked call to: osal_memcpy
        MOV     A,#0x3
        LCALL   ?DEALLOC_XSTACK8
          CFI CFA_XSP16 add(XSP16, 16)
        ; Setup parameters for call to function osal_memcpy
        MOV     DPL,?XSP + 0
        MOV     DPH,?XSP + 1
        MOVX    A,@DPTR
        MOV     R0,A
        INC     DPTR
        MOVX    A,@DPTR
        MOV     DPH,A
        MOV     DPL,R0
        LCALL   ?Subroutine39 & 0xFFFF
??CrossCallReturnLabel_76:
        MOV     ?V1,A
        MOV     R0,#?V0
        LCALL   ?PUSH_XSTACK_I_THREE
          CFI CFA_XSP16 add(XSP16, 19)
        MOV     R4,#0x10
        MOV     R5,#0x0
        MOV     A,?V4
        ADD     A,#0x9
        MOV     R2,A
        CLR     A
        ADDC    A,?V5
        MOV     R3,A
        LCALL   `??osal_memcpy::?relay`; Banked call to: osal_memcpy
        MOV     A,#0x3
        LCALL   ?DEALLOC_XSTACK8
          CFI CFA_XSP16 add(XSP16, 16)
        SJMP    ??MT_ZdoGetLinkKey_2
// 1126 }
          CFI EndBlock cfiBlock148

        RSEG BANKED_CODE:CODE:NOROOT(0)
?Subroutine39:
          CFI Block cfiCond149 Using cfiCommon0
          CFI Function MT_ZdoIEEEAddrRequest
          CFI Conditional ??CrossCallReturnLabel_78, ??CrossCallReturnLabel_19
          CFI R6 load(1, XDATA, add(CFA_XSP16, literal(-10)))
          CFI VB load(1, XDATA, add(CFA_XSP16, literal(-9)))
          CFI V0 load(1, XDATA, add(CFA_XSP16, literal(-8)))
          CFI V1 load(1, XDATA, add(CFA_XSP16, literal(-7)))
          CFI R7 load(1, XDATA, add(CFA_XSP16, literal(-6)))
          CFI ?RET_LOW load(1, XDATA, add(CFA_XSP16, literal(-5)))
          CFI ?RET_HIGH load(1, XDATA, add(CFA_XSP16, literal(-4)))
          CFI ?BRET_EXT load(1, XDATA, add(CFA_XSP16, literal(-3)))
          CFI DPL0 load(1, XDATA, add(CFA_XSP16, literal(-2)))
          CFI DPH0 load(1, XDATA, add(CFA_XSP16, literal(-1)))
          CFI CFA_SP SP+-4
          CFI CFA_XSP16 add(XSP16, 11)
          CFI Block cfiCond150 Using cfiCommon0
          CFI (cfiCond150) Function MT_ZdoMatchDescRequest
          CFI (cfiCond150) Conditional ??CrossCallReturnLabel_78, ??CrossCallReturnLabel_20
          CFI (cfiCond150) R6 load(1, XDATA, add(CFA_XSP16, literal(-14)))
          CFI (cfiCond150) VB load(1, XDATA, add(CFA_XSP16, literal(-13)))
          CFI (cfiCond150) V0 load(1, XDATA, add(CFA_XSP16, literal(-12)))
          CFI (cfiCond150) V1 load(1, XDATA, add(CFA_XSP16, literal(-11)))
          CFI (cfiCond150) V2 load(1, XDATA, add(CFA_XSP16, literal(-10)))
          CFI (cfiCond150) V3 load(1, XDATA, add(CFA_XSP16, literal(-9)))
          CFI (cfiCond150) V4 load(1, XDATA, add(CFA_XSP16, literal(-8)))
          CFI (cfiCond150) V5 load(1, XDATA, add(CFA_XSP16, literal(-7)))
          CFI (cfiCond150) R7 load(1, XDATA, add(CFA_XSP16, literal(-6)))
          CFI (cfiCond150) ?RET_LOW load(1, XDATA, add(CFA_XSP16, literal(-5)))
          CFI (cfiCond150) ?RET_HIGH load(1, XDATA, add(CFA_XSP16, literal(-4)))
          CFI (cfiCond150) ?BRET_EXT load(1, XDATA, add(CFA_XSP16, literal(-3)))
          CFI (cfiCond150) DPL0 load(1, XDATA, add(CFA_XSP16, literal(-2)))
          CFI (cfiCond150) DPH0 load(1, XDATA, add(CFA_XSP16, literal(-1)))
          CFI (cfiCond150) CFA_SP SP+-4
          CFI (cfiCond150) CFA_XSP16 add(XSP16, 88)
          CFI Block cfiCond151 Using cfiCommon0
          CFI (cfiCond151) Function MT_ZdoEndDevBindRequest
          CFI (cfiCond151) Conditional ??CrossCallReturnLabel_78, ??CrossCallReturnLabel_21
          CFI (cfiCond151) R6 load(1, XDATA, add(CFA_XSP16, literal(-15)))
          CFI (cfiCond151) VB load(1, XDATA, add(CFA_XSP16, literal(-14)))
          CFI (cfiCond151) V0 load(1, XDATA, add(CFA_XSP16, literal(-13)))
          CFI (cfiCond151) V1 load(1, XDATA, add(CFA_XSP16, literal(-12)))
          CFI (cfiCond151) V2 load(1, XDATA, add(CFA_XSP16, literal(-11)))
          CFI (cfiCond151) V3 load(1, XDATA, add(CFA_XSP16, literal(-10)))
          CFI (cfiCond151) V4 load(1, XDATA, add(CFA_XSP16, literal(-9)))
          CFI (cfiCond151) V5 load(1, XDATA, add(CFA_XSP16, literal(-8)))
          CFI (cfiCond151) V6 load(1, XDATA, add(CFA_XSP16, literal(-7)))
          CFI (cfiCond151) R7 load(1, XDATA, add(CFA_XSP16, literal(-6)))
          CFI (cfiCond151) ?RET_LOW load(1, XDATA, add(CFA_XSP16, literal(-5)))
          CFI (cfiCond151) ?RET_HIGH load(1, XDATA, add(CFA_XSP16, literal(-4)))
          CFI (cfiCond151) ?BRET_EXT load(1, XDATA, add(CFA_XSP16, literal(-3)))
          CFI (cfiCond151) DPL0 load(1, XDATA, add(CFA_XSP16, literal(-2)))
          CFI (cfiCond151) DPH0 load(1, XDATA, add(CFA_XSP16, literal(-1)))
          CFI (cfiCond151) CFA_SP SP+-4
          CFI (cfiCond151) CFA_XSP16 add(XSP16, 85)
          CFI Block cfiCond152 Using cfiCommon0
          CFI (cfiCond152) Function MT_ZdoMatchDescRequest
          CFI (cfiCond152) Conditional ??CrossCallReturnLabel_79, ??CrossCallReturnLabel_64
          CFI (cfiCond152) R6 load(1, XDATA, add(CFA_XSP16, literal(-14)))
          CFI (cfiCond152) VB load(1, XDATA, add(CFA_XSP16, literal(-13)))
          CFI (cfiCond152) V0 load(1, XDATA, add(CFA_XSP16, literal(-12)))
          CFI (cfiCond152) V1 load(1, XDATA, add(CFA_XSP16, literal(-11)))
          CFI (cfiCond152) V2 load(1, XDATA, add(CFA_XSP16, literal(-10)))
          CFI (cfiCond152) V3 load(1, XDATA, add(CFA_XSP16, literal(-9)))
          CFI (cfiCond152) V4 load(1, XDATA, add(CFA_XSP16, literal(-8)))
          CFI (cfiCond152) V5 load(1, XDATA, add(CFA_XSP16, literal(-7)))
          CFI (cfiCond152) R7 load(1, XDATA, add(CFA_XSP16, literal(-6)))
          CFI (cfiCond152) ?RET_LOW load(1, XDATA, add(CFA_XSP16, literal(-5)))
          CFI (cfiCond152) ?RET_HIGH load(1, XDATA, add(CFA_XSP16, literal(-4)))
          CFI (cfiCond152) ?BRET_EXT load(1, XDATA, add(CFA_XSP16, literal(-3)))
          CFI (cfiCond152) DPL0 load(1, XDATA, add(CFA_XSP16, literal(-2)))
          CFI (cfiCond152) DPH0 load(1, XDATA, add(CFA_XSP16, literal(-1)))
          CFI (cfiCond152) CFA_SP SP+-4
          CFI (cfiCond152) CFA_XSP16 add(XSP16, 88)
          CFI Block cfiCond153 Using cfiCommon0
          CFI (cfiCond153) Function MT_ZdoEndDevBindRequest
          CFI (cfiCond153) Conditional ??CrossCallReturnLabel_79, ??CrossCallReturnLabel_65, ??CrossCallReturnLabel_9
          CFI (cfiCond153) R6 load(1, XDATA, add(CFA_XSP16, literal(-15)))
          CFI (cfiCond153) VB load(1, XDATA, add(CFA_XSP16, literal(-14)))
          CFI (cfiCond153) V0 load(1, XDATA, add(CFA_XSP16, literal(-13)))
          CFI (cfiCond153) V1 load(1, XDATA, add(CFA_XSP16, literal(-12)))
          CFI (cfiCond153) V2 load(1, XDATA, add(CFA_XSP16, literal(-11)))
          CFI (cfiCond153) V3 load(1, XDATA, add(CFA_XSP16, literal(-10)))
          CFI (cfiCond153) V4 load(1, XDATA, add(CFA_XSP16, literal(-9)))
          CFI (cfiCond153) V5 load(1, XDATA, add(CFA_XSP16, literal(-8)))
          CFI (cfiCond153) V6 load(1, XDATA, add(CFA_XSP16, literal(-7)))
          CFI (cfiCond153) R7 load(1, XDATA, add(CFA_XSP16, literal(-6)))
          CFI (cfiCond153) ?RET_LOW load(1, XDATA, add(CFA_XSP16, literal(-5)))
          CFI (cfiCond153) ?RET_HIGH load(1, XDATA, add(CFA_XSP16, literal(-4)))
          CFI (cfiCond153) ?BRET_EXT load(1, XDATA, add(CFA_XSP16, literal(-3)))
          CFI (cfiCond153) DPL0 load(1, XDATA, add(CFA_XSP16, literal(-2)))
          CFI (cfiCond153) DPH0 load(1, XDATA, add(CFA_XSP16, literal(-1)))
          CFI (cfiCond153) CFA_SP SP+-6
          CFI (cfiCond153) CFA_XSP16 add(XSP16, 85)
          CFI Block cfiCond154 Using cfiCommon0
          CFI (cfiCond154) Function MT_ZdoEndDevBindRequest
          CFI (cfiCond154) Conditional ??CrossCallReturnLabel_79, ??CrossCallReturnLabel_65, ??CrossCallReturnLabel_10
          CFI (cfiCond154) R6 load(1, XDATA, add(CFA_XSP16, literal(-15)))
          CFI (cfiCond154) VB load(1, XDATA, add(CFA_XSP16, literal(-14)))
          CFI (cfiCond154) V0 load(1, XDATA, add(CFA_XSP16, literal(-13)))
          CFI (cfiCond154) V1 load(1, XDATA, add(CFA_XSP16, literal(-12)))
          CFI (cfiCond154) V2 load(1, XDATA, add(CFA_XSP16, literal(-11)))
          CFI (cfiCond154) V3 load(1, XDATA, add(CFA_XSP16, literal(-10)))
          CFI (cfiCond154) V4 load(1, XDATA, add(CFA_XSP16, literal(-9)))
          CFI (cfiCond154) V5 load(1, XDATA, add(CFA_XSP16, literal(-8)))
          CFI (cfiCond154) V6 load(1, XDATA, add(CFA_XSP16, literal(-7)))
          CFI (cfiCond154) R7 load(1, XDATA, add(CFA_XSP16, literal(-6)))
          CFI (cfiCond154) ?RET_LOW load(1, XDATA, add(CFA_XSP16, literal(-5)))
          CFI (cfiCond154) ?RET_HIGH load(1, XDATA, add(CFA_XSP16, literal(-4)))
          CFI (cfiCond154) ?BRET_EXT load(1, XDATA, add(CFA_XSP16, literal(-3)))
          CFI (cfiCond154) DPL0 load(1, XDATA, add(CFA_XSP16, literal(-2)))
          CFI (cfiCond154) DPH0 load(1, XDATA, add(CFA_XSP16, literal(-1)))
          CFI (cfiCond154) CFA_SP SP+-6
          CFI (cfiCond154) CFA_XSP16 add(XSP16, 85)
          CFI Block cfiCond155 Using cfiCommon0
          CFI (cfiCond155) Function MT_ZdoGetLinkKey
          CFI (cfiCond155) Conditional ??CrossCallReturnLabel_76
          CFI (cfiCond155) R6 load(1, XDATA, add(CFA_XSP16, literal(-14)))
          CFI (cfiCond155) VB load(1, XDATA, add(CFA_XSP16, literal(-13)))
          CFI (cfiCond155) V0 load(1, XDATA, add(CFA_XSP16, literal(-12)))
          CFI (cfiCond155) V1 load(1, XDATA, add(CFA_XSP16, literal(-11)))
          CFI (cfiCond155) V2 load(1, XDATA, add(CFA_XSP16, literal(-10)))
          CFI (cfiCond155) V3 load(1, XDATA, add(CFA_XSP16, literal(-9)))
          CFI (cfiCond155) V4 load(1, XDATA, add(CFA_XSP16, literal(-8)))
          CFI (cfiCond155) V5 load(1, XDATA, add(CFA_XSP16, literal(-7)))
          CFI (cfiCond155) R7 load(1, XDATA, add(CFA_XSP16, literal(-6)))
          CFI (cfiCond155) ?RET_LOW load(1, XDATA, add(CFA_XSP16, literal(-5)))
          CFI (cfiCond155) ?RET_HIGH load(1, XDATA, add(CFA_XSP16, literal(-4)))
          CFI (cfiCond155) ?BRET_EXT load(1, XDATA, add(CFA_XSP16, literal(-3)))
          CFI (cfiCond155) DPL0 load(1, XDATA, add(CFA_XSP16, literal(-2)))
          CFI (cfiCond155) DPH0 load(1, XDATA, add(CFA_XSP16, literal(-1)))
          CFI (cfiCond155) CFA_SP SP+-2
          CFI (cfiCond155) CFA_XSP16 add(XSP16, 16)
          CFI Block cfiCond156 Using cfiCommon0
          CFI (cfiCond156) Function MT_ZdoSendMsgCB
          CFI (cfiCond156) Conditional ??CrossCallReturnLabel_77
          CFI (cfiCond156) R6 load(1, XDATA, add(CFA_XSP16, literal(-15)))
          CFI (cfiCond156) VB load(1, XDATA, add(CFA_XSP16, literal(-14)))
          CFI (cfiCond156) V0 load(1, XDATA, add(CFA_XSP16, literal(-13)))
          CFI (cfiCond156) V1 load(1, XDATA, add(CFA_XSP16, literal(-12)))
          CFI (cfiCond156) V2 load(1, XDATA, add(CFA_XSP16, literal(-11)))
          CFI (cfiCond156) V3 load(1, XDATA, add(CFA_XSP16, literal(-10)))
          CFI (cfiCond156) V4 load(1, XDATA, add(CFA_XSP16, literal(-9)))
          CFI (cfiCond156) V5 load(1, XDATA, add(CFA_XSP16, literal(-8)))
          CFI (cfiCond156) V6 load(1, XDATA, add(CFA_XSP16, literal(-7)))
          CFI (cfiCond156) R7 load(1, XDATA, add(CFA_XSP16, literal(-6)))
          CFI (cfiCond156) ?RET_LOW load(1, XDATA, add(CFA_XSP16, literal(-5)))
          CFI (cfiCond156) ?RET_HIGH load(1, XDATA, add(CFA_XSP16, literal(-4)))
          CFI (cfiCond156) ?BRET_EXT load(1, XDATA, add(CFA_XSP16, literal(-3)))
          CFI (cfiCond156) DPL0 load(1, XDATA, add(CFA_XSP16, literal(-2)))
          CFI (cfiCond156) DPH0 load(1, XDATA, add(CFA_XSP16, literal(-1)))
          CFI (cfiCond156) CFA_SP SP+-2
          CFI (cfiCond156) CFA_XSP16 add(XSP16, 15)
          CFI Block cfiPicker157 Using cfiCommon1
          CFI (cfiPicker157) NoFunction
          CFI (cfiPicker157) Picker
        MOVX    A,@DPTR
        MOV     ?V0,A
        INC     DPTR
        MOVX    A,@DPTR
        RET
          CFI (cfiCond149) CFA_SP SP+-2
          CFI (cfiCond150) CFA_SP SP+-2
          CFI (cfiCond151) CFA_SP SP+-2
          CFI (cfiCond152) CFA_SP SP+-2
          CFI (cfiCond153) CFA_SP SP+-4
          CFI (cfiCond154) CFA_SP SP+-4
          CFI (cfiCond155) CFA_SP SP+0
          CFI (cfiCond156) CFA_SP SP+0
          CFI (cfiPicker157) CFA_SP SP+0
          CFI EndBlock cfiCond149
          CFI EndBlock cfiCond150
          CFI EndBlock cfiCond151
          CFI EndBlock cfiCond152
          CFI EndBlock cfiCond153
          CFI EndBlock cfiCond154
          CFI EndBlock cfiCond155
          CFI EndBlock cfiCond156
          CFI EndBlock cfiPicker157

        RSEG BANKED_CODE:CODE:NOROOT(0)
?Subroutine24:
          CFI Block cfiCond158 Using cfiCommon0
          CFI Function MT_ZdoNWKAddressRequest
          CFI Conditional ??CrossCallReturnLabel_39
          CFI R6 load(1, XDATA, add(CFA_XSP16, literal(-10)))
          CFI VB load(1, XDATA, add(CFA_XSP16, literal(-9)))
          CFI V0 load(1, XDATA, add(CFA_XSP16, literal(-8)))
          CFI V1 load(1, XDATA, add(CFA_XSP16, literal(-7)))
          CFI R7 load(1, XDATA, add(CFA_XSP16, literal(-6)))
          CFI ?RET_LOW load(1, XDATA, add(CFA_XSP16, literal(-5)))
          CFI ?RET_HIGH load(1, XDATA, add(CFA_XSP16, literal(-4)))
          CFI ?BRET_EXT load(1, XDATA, add(CFA_XSP16, literal(-3)))
          CFI DPL0 load(1, XDATA, add(CFA_XSP16, literal(-2)))
          CFI DPH0 load(1, XDATA, add(CFA_XSP16, literal(-1)))
          CFI CFA_SP SP+-2
          CFI CFA_XSP16 add(XSP16, 11)
          CFI Block cfiCond159 Using cfiCommon0
          CFI (cfiCond159) Function MT_ZdoGetLinkKey
          CFI (cfiCond159) Conditional ??CrossCallReturnLabel_40
          CFI (cfiCond159) R6 load(1, XDATA, add(CFA_XSP16, literal(-14)))
          CFI (cfiCond159) VB load(1, XDATA, add(CFA_XSP16, literal(-13)))
          CFI (cfiCond159) V0 load(1, XDATA, add(CFA_XSP16, literal(-12)))
          CFI (cfiCond159) V1 load(1, XDATA, add(CFA_XSP16, literal(-11)))
          CFI (cfiCond159) V2 load(1, XDATA, add(CFA_XSP16, literal(-10)))
          CFI (cfiCond159) V3 load(1, XDATA, add(CFA_XSP16, literal(-9)))
          CFI (cfiCond159) V4 load(1, XDATA, add(CFA_XSP16, literal(-8)))
          CFI (cfiCond159) V5 load(1, XDATA, add(CFA_XSP16, literal(-7)))
          CFI (cfiCond159) R7 load(1, XDATA, add(CFA_XSP16, literal(-6)))
          CFI (cfiCond159) ?RET_LOW load(1, XDATA, add(CFA_XSP16, literal(-5)))
          CFI (cfiCond159) ?RET_HIGH load(1, XDATA, add(CFA_XSP16, literal(-4)))
          CFI (cfiCond159) ?BRET_EXT load(1, XDATA, add(CFA_XSP16, literal(-3)))
          CFI (cfiCond159) DPL0 load(1, XDATA, add(CFA_XSP16, literal(-2)))
          CFI (cfiCond159) DPH0 load(1, XDATA, add(CFA_XSP16, literal(-1)))
          CFI (cfiCond159) CFA_SP SP+-2
          CFI (cfiCond159) CFA_XSP16 add(XSP16, 16)
          CFI Block cfiPicker160 Using cfiCommon1
          CFI (cfiPicker160) NoFunction
          CFI (cfiPicker160) Picker
        MOV     A,R2
        ADD     A,#0x3
        MOV     ?V0,A
        CLR     A
        ADDC    A,R3
        MOV     ?V1,A
        RET
          CFI (cfiCond158) CFA_SP SP+0
          CFI (cfiCond159) CFA_SP SP+0
          CFI (cfiPicker160) CFA_SP SP+0
          CFI EndBlock cfiCond158
          CFI EndBlock cfiCond159
          CFI EndBlock cfiPicker160
// 1127 
// 1128 #if defined (MT_ZDO_MGMT)
// 1129 /***************************************************************************************************
// 1130  * @fn      MT_ZdoMgmtNwkDiscRequest
// 1131  *
// 1132  * @brief   Handle a Mgmt Nwk Discovery request.
// 1133  *
// 1134  * @param   pBuf  - MT message data
// 1135  *
// 1136  * @return  void
// 1137  ***************************************************************************************************/
// 1138 void MT_ZdoMgmtNwkDiscRequest(uint8 *pBuf)
// 1139 {
// 1140   uint8 cmdId;
// 1141   uint8 retValue;
// 1142   zAddrType_t destAddr;
// 1143   uint32 scanChannels;
// 1144   uint8 scanDuration, startIndex;
// 1145 
// 1146   /* parse header */
// 1147   cmdId = pBuf[MT_RPC_POS_CMD1];
// 1148   pBuf += MT_RPC_FRAME_HDR_SZ;
// 1149 
// 1150   /* Dev address */
// 1151   destAddr.addrMode = Addr16Bit;
// 1152   destAddr.addr.shortAddr = BUILD_UINT16( pBuf[0], pBuf[1] );
// 1153   pBuf += 2;
// 1154 
// 1155   /* Scan Channels */
// 1156   scanChannels = BUILD_UINT32( pBuf[0], pBuf[1], pBuf[2], pBuf[3] );
// 1157   pBuf += 4;
// 1158 
// 1159   /* Scan Duration */
// 1160   scanDuration = *pBuf++;
// 1161 
// 1162   /* Start Index */
// 1163   startIndex = *pBuf;
// 1164 
// 1165   retValue = (uint8)ZDP_MgmtNwkDiscReq( &destAddr, scanChannels, scanDuration, startIndex, 0);
// 1166 
// 1167   MT_BuildAndSendZToolResponse(((uint8)MT_RPC_CMD_SRSP | (uint8)MT_RPC_SYS_ZDO), cmdId, 1, &retValue);
// 1168 }
// 1169 
// 1170 /***************************************************************************************************
// 1171  * @fn      MT_ZdoMgmtLqiRequest
// 1172  *
// 1173  * @brief   Handle a Mgmt Lqi request.
// 1174  *
// 1175  * @param   pBuf  - MT message data
// 1176  *
// 1177  * @return  void
// 1178  ***************************************************************************************************/
// 1179 void MT_ZdoMgmtLqiRequest(uint8 *pBuf)
// 1180 {
// 1181   uint8 cmdId;
// 1182   uint8 retValue;
// 1183   zAddrType_t destAddr;
// 1184   uint8 startIndex;
// 1185 
// 1186   /* parse header */
// 1187   cmdId = pBuf[MT_RPC_POS_CMD1];
// 1188   pBuf += MT_RPC_FRAME_HDR_SZ;
// 1189 
// 1190   /* Dev address */
// 1191   destAddr.addrMode = Addr16Bit;
// 1192   destAddr.addr.shortAddr = BUILD_UINT16( pBuf[0], pBuf[1] );
// 1193   pBuf += 2;
// 1194 
// 1195   /* Start Index */
// 1196   startIndex = *pBuf;
// 1197 
// 1198   retValue = (uint8)ZDP_MgmtLqiReq( &destAddr, startIndex, 0);
// 1199 
// 1200   MT_BuildAndSendZToolResponse(((uint8)MT_RPC_CMD_SRSP | (uint8)MT_RPC_SYS_ZDO), cmdId, 1, &retValue);
// 1201 }
// 1202 
// 1203 /***************************************************************************************************
// 1204  * @fn      MT_ZdoMgmtRtgRequest
// 1205  *
// 1206  * @brief   Handle a Mgmt Rtg request.
// 1207  *
// 1208  * @param   pBuf  - MT message data
// 1209  *
// 1210  * @return  void
// 1211  ***************************************************************************************************/
// 1212 void MT_ZdoMgmtRtgRequest(uint8 *pBuf)
// 1213 {
// 1214   uint8 cmdId;
// 1215   uint8 retValue;
// 1216   zAddrType_t destAddr;
// 1217   uint8 startIndex;
// 1218 
// 1219   /* parse header */
// 1220   cmdId = pBuf[MT_RPC_POS_CMD1];
// 1221   pBuf += MT_RPC_FRAME_HDR_SZ;
// 1222 
// 1223   /* Dev Address */
// 1224   destAddr.addrMode = Addr16Bit;
// 1225   destAddr.addr.shortAddr = BUILD_UINT16( pBuf[0], pBuf[1]);
// 1226   pBuf += 2;
// 1227 
// 1228   /* Start Index */
// 1229   startIndex = *pBuf;
// 1230 
// 1231   retValue = (byte)ZDP_MgmtRtgReq( &destAddr, startIndex, 0);
// 1232 
// 1233   MT_BuildAndSendZToolResponse(((uint8)MT_RPC_CMD_SRSP | (uint8)MT_RPC_SYS_ZDO), cmdId, 1, &retValue);
// 1234 }
// 1235 
// 1236 /***************************************************************************************************
// 1237  * @fn      MT_ZdoMgmtBindRequest
// 1238  *
// 1239  * @brief   Handle a Mgmt Bind request.
// 1240  *
// 1241  * @param   pBuf  - MT message data
// 1242  *
// 1243  * @return  void
// 1244  ***************************************************************************************************/
// 1245 void MT_ZdoMgmtBindRequest(uint8 *pBuf)
// 1246 {
// 1247   uint8 cmdId;
// 1248   uint8 retValue;
// 1249   zAddrType_t destAddr;
// 1250   uint8 startIndex;
// 1251 
// 1252   /* parse header */
// 1253   cmdId = pBuf[MT_RPC_POS_CMD1];
// 1254   pBuf += MT_RPC_FRAME_HDR_SZ;
// 1255 
// 1256   /* Dev Address */
// 1257   destAddr.addrMode = Addr16Bit;
// 1258   destAddr.addr.shortAddr = BUILD_UINT16( pBuf[0], pBuf[1] );
// 1259   pBuf += 2;
// 1260 
// 1261   /* Start Index */
// 1262   startIndex = *pBuf;
// 1263 
// 1264   retValue = (uint8)ZDP_MgmtBindReq( &destAddr, startIndex, 0);
// 1265 
// 1266   MT_BuildAndSendZToolResponse(((uint8)MT_RPC_CMD_SRSP | (uint8)MT_RPC_SYS_ZDO), cmdId, 1, &retValue);
// 1267 }
// 1268 
// 1269 /***************************************************************************************************
// 1270  * @fn      MT_ZdoMgmtLeaveRequest
// 1271  *
// 1272  * @brief   Handle a Mgmt Leave request.
// 1273  *
// 1274  * @param   pBuf  - MT message data
// 1275  *
// 1276  * @return  void
// 1277  ***************************************************************************************************/
// 1278 void MT_ZdoMgmtLeaveRequest(uint8 *pBuf)
// 1279 {
// 1280   uint8 cmdId;
// 1281   uint8 retValue;
// 1282   zAddrType_t destAddr;
// 1283   uint8 *pIEEEAddr;
// 1284   uint8 removeChildren, rejoin;
// 1285 
// 1286   /* parse header */
// 1287   cmdId = pBuf[MT_RPC_POS_CMD1];
// 1288   pBuf += MT_RPC_FRAME_HDR_SZ;
// 1289 
// 1290   /* Destination Address */
// 1291   destAddr.addrMode = Addr16Bit;
// 1292   destAddr.addr.shortAddr = BUILD_UINT16( pBuf[0], pBuf[1] );
// 1293   pBuf += 2;
// 1294 
// 1295   /* IEEE address */
// 1296   pIEEEAddr = pBuf;
// 1297   pBuf += Z_EXTADDR_LEN;
// 1298 
// 1299   /* Remove Children */
// 1300   removeChildren = *pBuf++;
// 1301 
// 1302   /* Rejoin */
// 1303   rejoin = *pBuf;
// 1304 
// 1305   retValue = (byte)ZDP_MgmtLeaveReq( &destAddr, pIEEEAddr, removeChildren, rejoin, 0);
// 1306 
// 1307   MT_BuildAndSendZToolResponse(((uint8)MT_RPC_CMD_SRSP | (uint8)MT_RPC_SYS_ZDO), cmdId, 1, &retValue);
// 1308 }
// 1309 
// 1310 
// 1311 /***************************************************************************************************
// 1312  * @fn      MT_ZdoMgmtDirectJoinRequest
// 1313  *
// 1314  * @brief   Handle a Mgmt Direct Join request.
// 1315  *
// 1316  * @param   pBuf  - MT message data
// 1317  *
// 1318  * @return  void
// 1319  ***************************************************************************************************/
// 1320 void MT_ZdoMgmtDirectJoinRequest(uint8 *pBuf)
// 1321 {
// 1322   uint8 cmdId;
// 1323   uint8 retValue;
// 1324   zAddrType_t destAddr;
// 1325   uint8 *deviceAddr;
// 1326   uint8 capInfo;
// 1327 
// 1328   /* parse header */
// 1329   cmdId = pBuf[MT_RPC_POS_CMD1];
// 1330   pBuf += MT_RPC_FRAME_HDR_SZ;
// 1331 
// 1332   /* Destination Address */
// 1333   destAddr.addrMode = Addr16Bit;
// 1334   destAddr.addr.shortAddr = BUILD_UINT16( pBuf[0], pBuf[1] );
// 1335   pBuf += 2;
// 1336 
// 1337   /* Device Address */
// 1338   deviceAddr = pBuf;
// 1339   pBuf += Z_EXTADDR_LEN;
// 1340 
// 1341   /* Capability information */
// 1342   capInfo = *pBuf;
// 1343 
// 1344   retValue = (uint8)ZDP_MgmtDirectJoinReq( &destAddr, deviceAddr, capInfo, 0);
// 1345 
// 1346   MT_BuildAndSendZToolResponse(((uint8)MT_RPC_CMD_SRSP | (uint8)MT_RPC_SYS_ZDO), cmdId, 1, &retValue);
// 1347 }
// 1348 
// 1349 /***************************************************************************************************
// 1350  * @fn      MT_ZdoMgmtPermitJoinRequest
// 1351  *
// 1352  * @brief   Handle a Mgmt Permit Join request.
// 1353  *
// 1354  * @param   pBuf  - MT message data
// 1355  *
// 1356  * @return  void
// 1357  ***************************************************************************************************/
// 1358 void MT_ZdoMgmtPermitJoinRequest(uint8 *pBuf)
// 1359 {
// 1360   uint8 cmdId;
// 1361   uint8 retValue;
// 1362   zAddrType_t destAddr;
// 1363   uint8 duration, tcSignificance;
// 1364 
// 1365   /* parse header */
// 1366   cmdId = pBuf[MT_RPC_POS_CMD1];
// 1367   pBuf += MT_RPC_FRAME_HDR_SZ;
// 1368 
// 1369   /* Destination Address */
// 1370   destAddr.addrMode = Addr16Bit;
// 1371   destAddr.addr.shortAddr = BUILD_UINT16( pBuf[0], pBuf[1] );
// 1372   pBuf += 2;
// 1373 
// 1374   /* Duration */
// 1375   duration = *pBuf++;
// 1376 
// 1377   /* Trust center significance */
// 1378   tcSignificance = *pBuf;
// 1379 
// 1380   retValue = (byte)ZDP_MgmtPermitJoinReq( &destAddr, duration, tcSignificance, 0);
// 1381 
// 1382   MT_BuildAndSendZToolResponse(((uint8)MT_RPC_CMD_SRSP | (uint8)MT_RPC_SYS_ZDO), cmdId, 1, &retValue);
// 1383 }
// 1384 
// 1385 /***************************************************************************************************
// 1386  * @fn      MT_ZdoMgmtNwkUpdateRequest
// 1387  *
// 1388  * @brief   Handle a Mgmt Nwk Update request.
// 1389  *
// 1390  * @param   pBuf  - MT message data
// 1391  *
// 1392  * @return  void
// 1393  ***************************************************************************************************/
// 1394 void MT_ZdoMgmtNwkUpdateRequest(uint8 *pBuf)
// 1395 {
// 1396   uint8 cmdId;
// 1397   uint8 retValue;
// 1398   zAddrType_t destAddr;
// 1399   uint32 channelMask;
// 1400   uint8 scanDuration, scanCount;
// 1401   uint16 nwkManagerAddr;
// 1402 
// 1403     /* parse header */
// 1404   cmdId = pBuf[MT_RPC_POS_CMD1];
// 1405   pBuf += MT_RPC_FRAME_HDR_SZ;
// 1406 
// 1407   /* Destination address */
// 1408   destAddr.addr.shortAddr = BUILD_UINT16( pBuf[0], pBuf[1] );
// 1409   pBuf += 2;
// 1410 
// 1411   /* Destination address mode */
// 1412   destAddr.addrMode = *pBuf++;
// 1413 
// 1414   channelMask = BUILD_UINT32( pBuf[0], pBuf[1], pBuf[2], pBuf[3]);
// 1415   pBuf += 4;
// 1416 
// 1417   /* Scan duration */
// 1418   scanDuration = *pBuf++;
// 1419 
// 1420   /* Scan count */
// 1421   scanCount = *pBuf++;
// 1422 
// 1423   /* NWK manager address */
// 1424   nwkManagerAddr = BUILD_UINT16( pBuf[0], pBuf[1] );
// 1425 
// 1426   /* Send the Management Network Update request */
// 1427   retValue = (uint8)ZDP_MgmtNwkUpdateReq( &destAddr, channelMask, scanDuration,
// 1428                                           scanCount, _NIB.nwkUpdateId+1, nwkManagerAddr );
// 1429 
// 1430   /*
// 1431     Since we don't recevied our own broadcast messages, we should
// 1432     send a unicast copy of the message to ourself.
// 1433   */
// 1434   if ( destAddr.addrMode == AddrBroadcast )
// 1435   {
// 1436     destAddr.addrMode = Addr16Bit;
// 1437     destAddr.addr.shortAddr = _NIB.nwkDevAddress;
// 1438     retValue = (uint8) ZDP_MgmtNwkUpdateReq( &destAddr, channelMask, scanDuration,
// 1439                                              scanCount, _NIB.nwkUpdateId+1, nwkManagerAddr );
// 1440   }
// 1441 
// 1442   MT_BuildAndSendZToolResponse(((uint8)MT_RPC_CMD_SRSP | (uint8)MT_RPC_SYS_ZDO), cmdId, 1, &retValue);
// 1443 }
// 1444 #endif /* MT_ZDO_MGMT */
// 1445 
// 1446 /***************************************************************************************************
// 1447  * @fn      MT_ZdoStartupFromApp
// 1448  *
// 1449  * @brief   Handle a Startup from App request.
// 1450  *
// 1451  * @param   pBuf  - MT message data
// 1452  *
// 1453  * @return  void
// 1454  ***************************************************************************************************/

        RSEG BANKED_CODE:CODE:NOROOT(0)
// 1455 void MT_ZdoStartupFromApp(uint8 *pBuf)
MT_ZdoStartupFromApp:
          CFI Block cfiBlock161 Using cfiCommon0
          CFI Function MT_ZdoStartupFromApp
        CODE
// 1456 {
        FUNCALL MT_ZdoStartupFromApp, ZDOInitDevice
        LOCFRAME ISTACK, 0, STACK
        LOCFRAME PSTACK, 0, STACK
        LOCFRAME XSTACK, 10, STACK
        LOCFRAME IOVERLAY, 0, STATIC
        LOCFRAME DOVERLAY, 0, STATIC
        ARGFRAME ISTACK, 0, STACK
        ARGFRAME PSTACK, 0, STACK
        ARGFRAME XSTACK, 10, STACK
        ARGFRAME IOVERLAY, 0, STATIC
        ARGFRAME DOVERLAY, 0, STATIC
        FUNCALL MT_ZdoStartupFromApp, MT_BuildAndSendZToolResponse
        LOCFRAME ISTACK, 0, STACK
        LOCFRAME PSTACK, 0, STACK
        LOCFRAME XSTACK, 10, STACK
        LOCFRAME IOVERLAY, 0, STATIC
        LOCFRAME DOVERLAY, 0, STATIC
        ARGFRAME ISTACK, 0, STACK
        ARGFRAME PSTACK, 0, STACK
        ARGFRAME XSTACK, 10, STACK
        ARGFRAME IOVERLAY, 0, STATIC
        ARGFRAME DOVERLAY, 0, STATIC
        MOV     A,#-0x9
        LCALL   ?BANKED_ENTER_XDATA
          CFI DPH0 load(1, XDATA, add(CFA_XSP16, literal(-1)))
          CFI DPL0 load(1, XDATA, add(CFA_XSP16, literal(-2)))
          CFI ?BRET_EXT load(1, XDATA, add(CFA_XSP16, literal(-3)))
          CFI ?RET_HIGH load(1, XDATA, add(CFA_XSP16, literal(-4)))
          CFI ?RET_LOW load(1, XDATA, add(CFA_XSP16, literal(-5)))
          CFI R7 load(1, XDATA, add(CFA_XSP16, literal(-6)))
          CFI V0 load(1, XDATA, add(CFA_XSP16, literal(-7)))
          CFI VB load(1, XDATA, add(CFA_XSP16, literal(-8)))
          CFI R6 load(1, XDATA, add(CFA_XSP16, literal(-9)))
          CFI CFA_SP SP+0
          CFI CFA_XSP16 add(XSP16, 9)
        ; Saved register size: 9
        ; Auto size: 1
        MOV     A,#-0x1
        LCALL   ?ALLOC_XSTACK8
          CFI CFA_XSP16 add(XSP16, 10)
// 1457   uint8 cmd0, cmd1, retValue;
// 1458 
// 1459   /* parse header */
// 1460   cmd0 = pBuf[MT_RPC_POS_CMD0];
        MOV     DPL,R2
        MOV     DPH,R3
        INC     DPTR
        MOVX    A,@DPTR
        MOV     R7,A
// 1461   cmd1 = pBuf[MT_RPC_POS_CMD1];
        MOV     DPL,R2
        MOV     DPH,R3
        INC     DPTR
        INC     DPTR
        MOVX    A,@DPTR
        MOV     R6,A
// 1462   pBuf += MT_RPC_FRAME_HDR_SZ;
// 1463 
// 1464   retValue = ZDOInitDevice(100);
        ; Setup parameters for call to function ZDOInitDevice
        MOV     R2,#0x64
        MOV     R3,#0x0
        LCALL   `??ZDOInitDevice::?relay`; Banked call to: ZDOInitDevice
        LCALL   ?Subroutine29 & 0xFFFF
// 1465 
// 1466   if (MT_RPC_CMD_SREQ == (cmd0 & MT_RPC_CMD_TYPE_MASK))
??CrossCallReturnLabel_54:
        JNZ     ??MT_ZdoStartupFromApp_0
// 1467   {
// 1468     MT_BuildAndSendZToolResponse(((uint8)MT_RPC_CMD_SRSP|(uint8)MT_RPC_SYS_ZDO), cmd1,1, &retValue);
        ; Setup parameters for call to function MT_BuildAndSendZToolResponse
        MOV     R4,?XSP + 0
        MOV     R5,?XSP + 1
        MOV     R3,#0x1
        MOV     A,R6
        MOV     R2,A
        MOV     R1,#0x65
        LCALL   `??MT_BuildAndSendZToolResponse::?relay`; Banked call to: MT_BuildAndSendZToolResponse
// 1469   }
// 1470 }
??MT_ZdoStartupFromApp_0:
        SJMP    ??Subroutine47_0
          CFI EndBlock cfiBlock161

        RSEG BANKED_CODE:CODE:NOROOT(0)
?Subroutine5:
          CFI Block cfiBlock162 Using cfiCommon0
          CFI NoFunction
          CFI CFA_SP SP+0
          CFI CFA_XSP16 add(XSP16, 10)
          CFI VB load(1, XDATA, add(CFA_XSP16, literal(-8)))
          CFI DPL0 load(1, XDATA, add(CFA_XSP16, literal(-2)))
          CFI DPH0 load(1, XDATA, add(CFA_XSP16, literal(-1)))
          CFI R6 load(1, XDATA, add(CFA_XSP16, literal(-9)))
          CFI R7 load(1, XDATA, add(CFA_XSP16, literal(-6)))
          CFI V0 load(1, XDATA, add(CFA_XSP16, literal(-7)))
          CFI ?BRET_EXT load(1, XDATA, add(CFA_XSP16, literal(-3)))
          CFI ?RET_HIGH load(1, XDATA, add(CFA_XSP16, literal(-4)))
          CFI ?RET_LOW load(1, XDATA, add(CFA_XSP16, literal(-5)))
        LCALL   ?Subroutine26 & 0xFFFF
??CrossCallReturnLabel_96:
        LCALL   `??MT_BuildAndSendZToolResponse::?relay`; Banked call to: MT_BuildAndSendZToolResponse
          CFI EndBlock cfiBlock162
        REQUIRE ??Subroutine47_0
        ; // Fall through to label ??Subroutine47_0

        RSEG BANKED_CODE:CODE:NOROOT(0)
??Subroutine47_0:
          CFI Block cfiBlock163 Using cfiCommon0
          CFI NoFunction
          CFI CFA_SP SP+0
          CFI CFA_XSP16 add(XSP16, 10)
          CFI VB load(1, XDATA, add(CFA_XSP16, literal(-8)))
          CFI DPL0 load(1, XDATA, add(CFA_XSP16, literal(-2)))
          CFI DPH0 load(1, XDATA, add(CFA_XSP16, literal(-1)))
          CFI R6 load(1, XDATA, add(CFA_XSP16, literal(-9)))
          CFI R7 load(1, XDATA, add(CFA_XSP16, literal(-6)))
          CFI V0 load(1, XDATA, add(CFA_XSP16, literal(-7)))
          CFI ?BRET_EXT load(1, XDATA, add(CFA_XSP16, literal(-3)))
          CFI ?RET_HIGH load(1, XDATA, add(CFA_XSP16, literal(-4)))
          CFI ?RET_LOW load(1, XDATA, add(CFA_XSP16, literal(-5)))
        MOV     A,#0x1
        LJMP    ??Subroutine44_0 & 0xFFFF
          CFI EndBlock cfiBlock163
// 1471 
// 1472 /*************************************************************************************************
// 1473  * @fn      MT_ZdoRegisterForZDOMsg(pBuf);
// 1474  *
// 1475  * @brief   MT proxy for ZDO_RegisterForZDOMsg.
// 1476  *
// 1477  * @param   pBuf  - MT message data
// 1478  *
// 1479  * @return  void
// 1480  *************************************************************************************************/

        RSEG BANKED_CODE:CODE:NOROOT(0)
// 1481 void MT_ZdoRegisterForZDOMsg(uint8 *pBuf)
MT_ZdoRegisterForZDOMsg:
          CFI Block cfiBlock164 Using cfiCommon0
          CFI Function MT_ZdoRegisterForZDOMsg
        CODE
// 1482 {
        FUNCALL MT_ZdoRegisterForZDOMsg, ZDO_RegisterForZDOMsg
        LOCFRAME ISTACK, 0, STACK
        LOCFRAME PSTACK, 0, STACK
        LOCFRAME XSTACK, 10, STACK
        LOCFRAME IOVERLAY, 0, STATIC
        LOCFRAME DOVERLAY, 0, STATIC
        ARGFRAME ISTACK, 0, STACK
        ARGFRAME PSTACK, 0, STACK
        ARGFRAME XSTACK, 10, STACK
        ARGFRAME IOVERLAY, 0, STATIC
        ARGFRAME DOVERLAY, 0, STATIC
        FUNCALL MT_ZdoRegisterForZDOMsg, MT_BuildAndSendZToolResponse
        LOCFRAME ISTACK, 0, STACK
        LOCFRAME PSTACK, 0, STACK
        LOCFRAME XSTACK, 10, STACK
        LOCFRAME IOVERLAY, 0, STATIC
        LOCFRAME DOVERLAY, 0, STATIC
        ARGFRAME ISTACK, 0, STACK
        ARGFRAME PSTACK, 0, STACK
        ARGFRAME XSTACK, 10, STACK
        ARGFRAME IOVERLAY, 0, STATIC
        ARGFRAME DOVERLAY, 0, STATIC
        MOV     A,#-0x9
        LCALL   ?BANKED_ENTER_XDATA
          CFI DPH0 load(1, XDATA, add(CFA_XSP16, literal(-1)))
          CFI DPL0 load(1, XDATA, add(CFA_XSP16, literal(-2)))
          CFI ?BRET_EXT load(1, XDATA, add(CFA_XSP16, literal(-3)))
          CFI ?RET_HIGH load(1, XDATA, add(CFA_XSP16, literal(-4)))
          CFI ?RET_LOW load(1, XDATA, add(CFA_XSP16, literal(-5)))
          CFI R7 load(1, XDATA, add(CFA_XSP16, literal(-6)))
          CFI V0 load(1, XDATA, add(CFA_XSP16, literal(-7)))
          CFI VB load(1, XDATA, add(CFA_XSP16, literal(-8)))
          CFI R6 load(1, XDATA, add(CFA_XSP16, literal(-9)))
          CFI CFA_SP SP+0
          CFI CFA_XSP16 add(XSP16, 9)
        ; Saved register size: 9
        ; Auto size: 1
        MOV     A,#-0x1
        LCALL   ?ALLOC_XSTACK8
          CFI CFA_XSP16 add(XSP16, 10)
// 1483   uint8 cmd0, cmd1, tmp;
// 1484   uint16 cId;
// 1485 
// 1486   /* parse header */
// 1487   cmd0 = pBuf[MT_RPC_POS_CMD0];
        LCALL   ?Subroutine8 & 0xFFFF
// 1488   cmd1 = pBuf[MT_RPC_POS_CMD1];
// 1489   pBuf += MT_RPC_FRAME_HDR_SZ;
??CrossCallReturnLabel_83:
        JNC     ??MT_ZdoRegisterForZDOMsg_0
        INC     R3
// 1490 
// 1491   cId = BUILD_UINT16(pBuf[0], pBuf[1]);
// 1492   tmp = ZDO_RegisterForZDOMsg(MT_TaskID, cId);
??MT_ZdoRegisterForZDOMsg_0:
        ; Setup parameters for call to function ZDO_RegisterForZDOMsg
        LCALL   ?Subroutine10 & 0xFFFF
??CrossCallReturnLabel_11:
        LCALL   `??ZDO_RegisterForZDOMsg::?relay`; Banked call to: ZDO_RegisterForZDOMsg
        LCALL   ?Subroutine29 & 0xFFFF
// 1493 
// 1494   if (MT_RPC_CMD_SREQ == (cmd0 & MT_RPC_CMD_TYPE_MASK))
??CrossCallReturnLabel_55:
        JNZ     ??MT_ZdoRegisterForZDOMsg_1
// 1495   {
// 1496     MT_BuildAndSendZToolResponse(((uint8)MT_RPC_CMD_SRSP|(uint8)MT_RPC_SYS_ZDO), cmd1, 1, &tmp);
        ; Setup parameters for call to function MT_BuildAndSendZToolResponse
        MOV     R4,?XSP + 0
        MOV     R5,?XSP + 1
        MOV     R3,#0x1
        MOV     A,R6
        MOV     R2,A
        MOV     R1,#0x65
        LCALL   `??MT_BuildAndSendZToolResponse::?relay`; Banked call to: MT_BuildAndSendZToolResponse
// 1497   }
// 1498 }
??MT_ZdoRegisterForZDOMsg_1:
        SJMP    ??Subroutine47_0
          CFI EndBlock cfiBlock164

        RSEG BANKED_CODE:CODE:NOROOT(0)
?Subroutine29:
          CFI Block cfiCond165 Using cfiCommon0
          CFI Function MT_ZdoStartupFromApp
          CFI Conditional ??CrossCallReturnLabel_54
          CFI R6 load(1, XDATA, add(CFA_XSP16, literal(-9)))
          CFI VB load(1, XDATA, add(CFA_XSP16, literal(-8)))
          CFI V0 load(1, XDATA, add(CFA_XSP16, literal(-7)))
          CFI R7 load(1, XDATA, add(CFA_XSP16, literal(-6)))
          CFI ?RET_LOW load(1, XDATA, add(CFA_XSP16, literal(-5)))
          CFI ?RET_HIGH load(1, XDATA, add(CFA_XSP16, literal(-4)))
          CFI ?BRET_EXT load(1, XDATA, add(CFA_XSP16, literal(-3)))
          CFI DPL0 load(1, XDATA, add(CFA_XSP16, literal(-2)))
          CFI DPH0 load(1, XDATA, add(CFA_XSP16, literal(-1)))
          CFI CFA_SP SP+-2
          CFI CFA_XSP16 add(XSP16, 10)
          CFI Block cfiCond166 Using cfiCommon0
          CFI (cfiCond166) Function MT_ZdoRegisterForZDOMsg
          CFI (cfiCond166) Conditional ??CrossCallReturnLabel_55
          CFI (cfiCond166) R6 load(1, XDATA, add(CFA_XSP16, literal(-9)))
          CFI (cfiCond166) VB load(1, XDATA, add(CFA_XSP16, literal(-8)))
          CFI (cfiCond166) V0 load(1, XDATA, add(CFA_XSP16, literal(-7)))
          CFI (cfiCond166) R7 load(1, XDATA, add(CFA_XSP16, literal(-6)))
          CFI (cfiCond166) ?RET_LOW load(1, XDATA, add(CFA_XSP16, literal(-5)))
          CFI (cfiCond166) ?RET_HIGH load(1, XDATA, add(CFA_XSP16, literal(-4)))
          CFI (cfiCond166) ?BRET_EXT load(1, XDATA, add(CFA_XSP16, literal(-3)))
          CFI (cfiCond166) DPL0 load(1, XDATA, add(CFA_XSP16, literal(-2)))
          CFI (cfiCond166) DPH0 load(1, XDATA, add(CFA_XSP16, literal(-1)))
          CFI (cfiCond166) CFA_SP SP+-2
          CFI (cfiCond166) CFA_XSP16 add(XSP16, 10)
          CFI Block cfiCond167 Using cfiCommon0
          CFI (cfiCond167) Function MT_ZdoRemoveRegisteredCB
          CFI (cfiCond167) Conditional ??CrossCallReturnLabel_56
          CFI (cfiCond167) R6 load(1, XDATA, add(CFA_XSP16, literal(-9)))
          CFI (cfiCond167) VB load(1, XDATA, add(CFA_XSP16, literal(-8)))
          CFI (cfiCond167) V0 load(1, XDATA, add(CFA_XSP16, literal(-7)))
          CFI (cfiCond167) R7 load(1, XDATA, add(CFA_XSP16, literal(-6)))
          CFI (cfiCond167) ?RET_LOW load(1, XDATA, add(CFA_XSP16, literal(-5)))
          CFI (cfiCond167) ?RET_HIGH load(1, XDATA, add(CFA_XSP16, literal(-4)))
          CFI (cfiCond167) ?BRET_EXT load(1, XDATA, add(CFA_XSP16, literal(-3)))
          CFI (cfiCond167) DPL0 load(1, XDATA, add(CFA_XSP16, literal(-2)))
          CFI (cfiCond167) DPH0 load(1, XDATA, add(CFA_XSP16, literal(-1)))
          CFI (cfiCond167) CFA_SP SP+-2
          CFI (cfiCond167) CFA_XSP16 add(XSP16, 10)
          CFI Block cfiPicker168 Using cfiCommon1
          CFI (cfiPicker168) NoFunction
          CFI (cfiPicker168) Picker
        MOV     A,R1
        MOV     DPL,?XSP + 0
        MOV     DPH,?XSP + 1
        MOVX    @DPTR,A
        MOV     A,#-0x20
        ANL     A,R7
        XRL     A,#0x20
        RET
          CFI (cfiCond165) CFA_SP SP+0
          CFI (cfiCond166) CFA_SP SP+0
          CFI (cfiCond167) CFA_SP SP+0
          CFI (cfiPicker168) CFA_SP SP+0
          CFI EndBlock cfiCond165
          CFI EndBlock cfiCond166
          CFI EndBlock cfiCond167
          CFI EndBlock cfiPicker168
// 1499 
// 1500 /*************************************************************************************************
// 1501  * @fn      MT_ZdoRemoveRegisteredCB(pBuf);
// 1502  *
// 1503  * @brief   MT proxy for ZDO_RemoveRegisteredCB.
// 1504  *
// 1505  * @param   pBuf  - MT message data
// 1506  *
// 1507  * @return  void
// 1508  *************************************************************************************************/

        RSEG BANKED_CODE:CODE:NOROOT(0)
// 1509 void MT_ZdoRemoveRegisteredCB(uint8 *pBuf)
MT_ZdoRemoveRegisteredCB:
          CFI Block cfiBlock169 Using cfiCommon0
          CFI Function MT_ZdoRemoveRegisteredCB
        CODE
// 1510 {
        FUNCALL MT_ZdoRemoveRegisteredCB, ZDO_RemoveRegisteredCB
        LOCFRAME ISTACK, 0, STACK
        LOCFRAME PSTACK, 0, STACK
        LOCFRAME XSTACK, 10, STACK
        LOCFRAME IOVERLAY, 0, STATIC
        LOCFRAME DOVERLAY, 0, STATIC
        ARGFRAME ISTACK, 0, STACK
        ARGFRAME PSTACK, 0, STACK
        ARGFRAME XSTACK, 10, STACK
        ARGFRAME IOVERLAY, 0, STATIC
        ARGFRAME DOVERLAY, 0, STATIC
        FUNCALL MT_ZdoRemoveRegisteredCB, MT_BuildAndSendZToolResponse
        LOCFRAME ISTACK, 0, STACK
        LOCFRAME PSTACK, 0, STACK
        LOCFRAME XSTACK, 10, STACK
        LOCFRAME IOVERLAY, 0, STATIC
        LOCFRAME DOVERLAY, 0, STATIC
        ARGFRAME ISTACK, 0, STACK
        ARGFRAME PSTACK, 0, STACK
        ARGFRAME XSTACK, 10, STACK
        ARGFRAME IOVERLAY, 0, STATIC
        ARGFRAME DOVERLAY, 0, STATIC
        MOV     A,#-0x9
        LCALL   ?BANKED_ENTER_XDATA
          CFI DPH0 load(1, XDATA, add(CFA_XSP16, literal(-1)))
          CFI DPL0 load(1, XDATA, add(CFA_XSP16, literal(-2)))
          CFI ?BRET_EXT load(1, XDATA, add(CFA_XSP16, literal(-3)))
          CFI ?RET_HIGH load(1, XDATA, add(CFA_XSP16, literal(-4)))
          CFI ?RET_LOW load(1, XDATA, add(CFA_XSP16, literal(-5)))
          CFI R7 load(1, XDATA, add(CFA_XSP16, literal(-6)))
          CFI V0 load(1, XDATA, add(CFA_XSP16, literal(-7)))
          CFI VB load(1, XDATA, add(CFA_XSP16, literal(-8)))
          CFI R6 load(1, XDATA, add(CFA_XSP16, literal(-9)))
          CFI CFA_SP SP+0
          CFI CFA_XSP16 add(XSP16, 9)
        ; Saved register size: 9
        ; Auto size: 1
        MOV     A,#-0x1
        LCALL   ?ALLOC_XSTACK8
          CFI CFA_XSP16 add(XSP16, 10)
// 1511   uint8 cmd0, cmd1, tmp;
// 1512   uint16 cId;
// 1513 
// 1514   /* parse header */
// 1515   cmd0 = pBuf[MT_RPC_POS_CMD0];
        LCALL   ?Subroutine8 & 0xFFFF
// 1516   cmd1 = pBuf[MT_RPC_POS_CMD1];
// 1517   pBuf += MT_RPC_FRAME_HDR_SZ;
??CrossCallReturnLabel_84:
        JNC     ??MT_ZdoRemoveRegisteredCB_0
        INC     R3
// 1518 
// 1519   cId = BUILD_UINT16(pBuf[0], pBuf[1]);
// 1520   tmp = ZDO_RemoveRegisteredCB(MT_TaskID, cId);
??MT_ZdoRemoveRegisteredCB_0:
        ; Setup parameters for call to function ZDO_RemoveRegisteredCB
        LCALL   ?Subroutine10 & 0xFFFF
??CrossCallReturnLabel_12:
        LCALL   `??ZDO_RemoveRegisteredCB::?relay`; Banked call to: ZDO_RemoveRegisteredCB
        LCALL   ?Subroutine29 & 0xFFFF
// 1521 
// 1522   if (MT_RPC_CMD_SREQ == (cmd0 & MT_RPC_CMD_TYPE_MASK))
??CrossCallReturnLabel_56:
        JNZ     ??MT_ZdoRemoveRegisteredCB_1
// 1523   {
// 1524     MT_BuildAndSendZToolResponse(((uint8)MT_RPC_CMD_SRSP|(uint8)MT_RPC_SYS_ZDO), cmd1, 1, &tmp);
        ; Setup parameters for call to function MT_BuildAndSendZToolResponse
        MOV     R4,?XSP + 0
        MOV     R5,?XSP + 1
        MOV     R3,#0x1
        MOV     A,R6
        MOV     R2,A
        MOV     R1,#0x65
        LCALL   `??MT_BuildAndSendZToolResponse::?relay`; Banked call to: MT_BuildAndSendZToolResponse
// 1525   }
// 1526 }
??MT_ZdoRemoveRegisteredCB_1:
        SJMP    ??Subroutine47_0
          CFI EndBlock cfiBlock169

        RSEG BANKED_CODE:CODE:NOROOT(0)
?Subroutine10:
          CFI Block cfiCond170 Using cfiCommon0
          CFI Function MT_ZdoRegisterForZDOMsg
          CFI Conditional ??CrossCallReturnLabel_11
          CFI R6 load(1, XDATA, add(CFA_XSP16, literal(-9)))
          CFI VB load(1, XDATA, add(CFA_XSP16, literal(-8)))
          CFI V0 load(1, XDATA, add(CFA_XSP16, literal(-7)))
          CFI R7 load(1, XDATA, add(CFA_XSP16, literal(-6)))
          CFI ?RET_LOW load(1, XDATA, add(CFA_XSP16, literal(-5)))
          CFI ?RET_HIGH load(1, XDATA, add(CFA_XSP16, literal(-4)))
          CFI ?BRET_EXT load(1, XDATA, add(CFA_XSP16, literal(-3)))
          CFI DPL0 load(1, XDATA, add(CFA_XSP16, literal(-2)))
          CFI DPH0 load(1, XDATA, add(CFA_XSP16, literal(-1)))
          CFI CFA_SP SP+-2
          CFI CFA_XSP16 add(XSP16, 10)
          CFI Block cfiCond171 Using cfiCommon0
          CFI (cfiCond171) Function MT_ZdoRemoveRegisteredCB
          CFI (cfiCond171) Conditional ??CrossCallReturnLabel_12
          CFI (cfiCond171) R6 load(1, XDATA, add(CFA_XSP16, literal(-9)))
          CFI (cfiCond171) VB load(1, XDATA, add(CFA_XSP16, literal(-8)))
          CFI (cfiCond171) V0 load(1, XDATA, add(CFA_XSP16, literal(-7)))
          CFI (cfiCond171) R7 load(1, XDATA, add(CFA_XSP16, literal(-6)))
          CFI (cfiCond171) ?RET_LOW load(1, XDATA, add(CFA_XSP16, literal(-5)))
          CFI (cfiCond171) ?RET_HIGH load(1, XDATA, add(CFA_XSP16, literal(-4)))
          CFI (cfiCond171) ?BRET_EXT load(1, XDATA, add(CFA_XSP16, literal(-3)))
          CFI (cfiCond171) DPL0 load(1, XDATA, add(CFA_XSP16, literal(-2)))
          CFI (cfiCond171) DPH0 load(1, XDATA, add(CFA_XSP16, literal(-1)))
          CFI (cfiCond171) CFA_SP SP+-2
          CFI (cfiCond171) CFA_XSP16 add(XSP16, 10)
          CFI Block cfiPicker172 Using cfiCommon1
          CFI (cfiPicker172) NoFunction
          CFI (cfiPicker172) Picker
        LCALL   ?Subroutine36 & 0xFFFF
??CrossCallReturnLabel_71:
        MOV     R2,A
        CLR     A
        ADDC    A,R1
        MOV     R3,A
        MOV     DPTR,#MT_TaskID
        MOVX    A,@DPTR
        MOV     R1,A
        RET
          CFI (cfiCond170) CFA_SP SP+0
          CFI (cfiCond171) CFA_SP SP+0
          CFI (cfiPicker172) CFA_SP SP+0
          CFI EndBlock cfiCond170
          CFI EndBlock cfiCond171
          CFI EndBlock cfiPicker172

        RSEG BANKED_CODE:CODE:NOROOT(0)
?Subroutine36:
          CFI Block cfiCond173 Using cfiCommon0
          CFI Function MT_ZdoUserDescSet
          CFI Conditional ??CrossCallReturnLabel_70
          CFI R6 load(1, XDATA, add(CFA_XSP16, literal(-12)))
          CFI VB load(1, XDATA, add(CFA_XSP16, literal(-11)))
          CFI V0 load(1, XDATA, add(CFA_XSP16, literal(-10)))
          CFI V1 load(1, XDATA, add(CFA_XSP16, literal(-9)))
          CFI V2 load(1, XDATA, add(CFA_XSP16, literal(-8)))
          CFI V3 load(1, XDATA, add(CFA_XSP16, literal(-7)))
          CFI R7 load(1, XDATA, add(CFA_XSP16, literal(-6)))
          CFI ?RET_LOW load(1, XDATA, add(CFA_XSP16, literal(-5)))
          CFI ?RET_HIGH load(1, XDATA, add(CFA_XSP16, literal(-4)))
          CFI ?BRET_EXT load(1, XDATA, add(CFA_XSP16, literal(-3)))
          CFI DPL0 load(1, XDATA, add(CFA_XSP16, literal(-2)))
          CFI DPH0 load(1, XDATA, add(CFA_XSP16, literal(-1)))
          CFI CFA_SP SP+-2
          CFI CFA_XSP16 add(XSP16, 39)
          CFI Block cfiCond174 Using cfiCommon0
          CFI (cfiCond174) Function MT_ZdoRegisterForZDOMsg
          CFI (cfiCond174) Conditional ??CrossCallReturnLabel_71, ??CrossCallReturnLabel_11
          CFI (cfiCond174) R6 load(1, XDATA, add(CFA_XSP16, literal(-9)))
          CFI (cfiCond174) VB load(1, XDATA, add(CFA_XSP16, literal(-8)))
          CFI (cfiCond174) V0 load(1, XDATA, add(CFA_XSP16, literal(-7)))
          CFI (cfiCond174) R7 load(1, XDATA, add(CFA_XSP16, literal(-6)))
          CFI (cfiCond174) ?RET_LOW load(1, XDATA, add(CFA_XSP16, literal(-5)))
          CFI (cfiCond174) ?RET_HIGH load(1, XDATA, add(CFA_XSP16, literal(-4)))
          CFI (cfiCond174) ?BRET_EXT load(1, XDATA, add(CFA_XSP16, literal(-3)))
          CFI (cfiCond174) DPL0 load(1, XDATA, add(CFA_XSP16, literal(-2)))
          CFI (cfiCond174) DPH0 load(1, XDATA, add(CFA_XSP16, literal(-1)))
          CFI (cfiCond174) CFA_SP SP+-4
          CFI (cfiCond174) CFA_XSP16 add(XSP16, 10)
          CFI Block cfiCond175 Using cfiCommon0
          CFI (cfiCond175) Function MT_ZdoRemoveRegisteredCB
          CFI (cfiCond175) Conditional ??CrossCallReturnLabel_71, ??CrossCallReturnLabel_12
          CFI (cfiCond175) R6 load(1, XDATA, add(CFA_XSP16, literal(-9)))
          CFI (cfiCond175) VB load(1, XDATA, add(CFA_XSP16, literal(-8)))
          CFI (cfiCond175) V0 load(1, XDATA, add(CFA_XSP16, literal(-7)))
          CFI (cfiCond175) R7 load(1, XDATA, add(CFA_XSP16, literal(-6)))
          CFI (cfiCond175) ?RET_LOW load(1, XDATA, add(CFA_XSP16, literal(-5)))
          CFI (cfiCond175) ?RET_HIGH load(1, XDATA, add(CFA_XSP16, literal(-4)))
          CFI (cfiCond175) ?BRET_EXT load(1, XDATA, add(CFA_XSP16, literal(-3)))
          CFI (cfiCond175) DPL0 load(1, XDATA, add(CFA_XSP16, literal(-2)))
          CFI (cfiCond175) DPH0 load(1, XDATA, add(CFA_XSP16, literal(-1)))
          CFI (cfiCond175) CFA_SP SP+-4
          CFI (cfiCond175) CFA_XSP16 add(XSP16, 10)
          CFI Block cfiPicker176 Using cfiCommon1
          CFI (cfiPicker176) NoFunction
          CFI (cfiPicker176) Picker
        MOV     DPL,R2
        MOV     DPH,R3
        MOVX    A,@DPTR
        MOV     R4,A
        INC     DPTR
        MOVX    A,@DPTR
        MOV     R0,A
        CLR     A
        XCH     A,R0
        MOV     R1,A
        MOV     A,R4
        ADD     A,R0
        RET
          CFI (cfiCond173) CFA_SP SP+0
          CFI (cfiCond174) CFA_SP SP+-2
          CFI (cfiCond175) CFA_SP SP+-2
          CFI (cfiPicker176) CFA_SP SP+0
          CFI EndBlock cfiCond173
          CFI EndBlock cfiCond174
          CFI EndBlock cfiCond175
          CFI EndBlock cfiPicker176
// 1527 
// 1528 #endif /* MT_ZDO_FUNC */
// 1529 
// 1530 
// 1531 /***************************************************************************************************
// 1532  * Callback handling function
// 1533  ***************************************************************************************************/
// 1534 
// 1535 #if defined (MT_ZDO_CB_FUNC)
// 1536 
// 1537 /***************************************************************************************************
// 1538  * @fn      MT_ZdoStateChangeCB
// 1539  *
// 1540  * @brief   Handle state change OSAL message from ZDO.
// 1541  *
// 1542  * @param   pMsg  - Message data
// 1543  *
// 1544  * @return  void
// 1545  */
// 1546 void MT_ZdoStateChangeCB(osal_event_hdr_t *pMsg)
// 1547 {
// 1548   MT_BuildAndSendZToolResponse(((uint8)MT_RPC_CMD_AREQ | (uint8)MT_RPC_SYS_ZDO),
// 1549                                        MT_ZDO_STATE_CHANGE_IND, 1, &pMsg->status);
// 1550 }
// 1551 
// 1552 /***************************************************************************************************
// 1553  * @fn     MT_ZdoDirectCB()
// 1554  *
// 1555  * @brief  ZDO direct callback.  Build an MT message directly from the
// 1556  *         over-the-air ZDO message.
// 1557  *
// 1558  * @param  pData - Incoming AF frame.
// 1559  *
// 1560  * @return  none
// 1561  ***************************************************************************************************/
// 1562 void MT_ZdoDirectCB( afIncomingMSGPacket_t *pData,  zdoIncomingMsg_t *inMsg )
// 1563 {
// 1564   uint8 len, *pBuf;
// 1565   
// 1566   // Is the message an exception or not a response?
// 1567   if ( MT_ZdoHandleExceptions( pData, inMsg ) || ( (pData->clusterId & ZDO_RESPONSE_BIT) == 0 ) )
// 1568   {
// 1569     return;  // Handled somewhere else or not needed.
// 1570   }
// 1571 
// 1572   /* ZDO data starts after one-byte sequence number and the msg buffer length includes
// 1573    * two bytes for srcAddr.
// 1574    */
// 1575   len = pData->cmd.DataLength - 1 + sizeof(uint16);
// 1576 
// 1577   if (NULL != (pBuf = (uint8 *)osal_mem_alloc(len)))
// 1578   {
// 1579     uint8 id = MT_ZDO_CID_TO_AREQ_ID(pData->clusterId);
// 1580 
// 1581     pBuf[0] = LO_UINT16(pData->srcAddr.addr.shortAddr);
// 1582     pBuf[1] = HI_UINT16(pData->srcAddr.addr.shortAddr);
// 1583 
// 1584     /* copy ZDO data, skipping one-byte sequence number */
// 1585     osal_memcpy(pBuf+2, (pData->cmd.Data + 1), pData->cmd.DataLength-1);
// 1586 
// 1587     MT_BuildAndSendZToolResponse(((uint8)MT_RPC_CMD_AREQ | (uint8)MT_RPC_SYS_ZDO), id, len, pBuf);
// 1588     osal_mem_free(pBuf);
// 1589   }
// 1590 }
// 1591 
// 1592 /***************************************************************************************************
// 1593  * @fn     MT_ZdoHandleExceptions()
// 1594  *
// 1595  * @brief  Handles all messages that are an expection to the generic MT ZDO Response.
// 1596  *
// 1597  * @param  pData - Incoming AF frame.
// 1598  *
// 1599  * @return  TRUE if handled by this function, FALSE if not
// 1600  ***************************************************************************************************/
// 1601 uint8 MT_ZdoHandleExceptions( afIncomingMSGPacket_t *pData, zdoIncomingMsg_t *inMsg )
// 1602 {
// 1603   uint8 ret = TRUE;
// 1604   ZDO_NwkIEEEAddrResp_t *nwkRsp = NULL;
// 1605   ZDO_DeviceAnnce_t devAnnce;
// 1606   uint8 doDefault = FALSE;
// 1607   
// 1608   switch ( inMsg->clusterID )
// 1609   {
// 1610     case NWK_addr_rsp:
// 1611     case IEEE_addr_rsp:
// 1612       nwkRsp = ZDO_ParseAddrRsp( inMsg );
// 1613       MT_ZdoAddrRspCB( nwkRsp, inMsg->clusterID );
// 1614       if ( nwkRsp )
// 1615         osal_mem_free( nwkRsp );
// 1616       break;
// 1617       
// 1618     case Device_annce:
// 1619       ZDO_ParseDeviceAnnce( inMsg, &devAnnce );
// 1620       MT_ZdoEndDevAnnceCB( &devAnnce, inMsg->srcAddr.addr.shortAddr );
// 1621       break;
// 1622       
// 1623     case Simple_Desc_rsp:
// 1624       if ( pData->cmd.DataLength > 5 )
// 1625         ret = FALSE;
// 1626       else
// 1627         doDefault = TRUE;        
// 1628       break;  
// 1629       
// 1630     default:
// 1631       ret = FALSE;
// 1632       break;
// 1633   }
// 1634   
// 1635   if ( doDefault )
// 1636   {
// 1637     ret = FALSE;
// 1638     pData->clusterId = MtZdoDef_rsp;
// 1639     pData->cmd.DataLength = 2;
// 1640   }
// 1641 
// 1642   return ( ret );
// 1643 }
// 1644 
// 1645 /***************************************************************************************************
// 1646  * @fn      MT_ZdoAddrRspCB
// 1647  *
// 1648  * @brief   Handle IEEE or nwk address response OSAL message from ZDO.
// 1649  *
// 1650  * @param   pMsg  - Message data
// 1651  *
// 1652  * @return  void
// 1653  */
// 1654 void MT_ZdoAddrRspCB( ZDO_NwkIEEEAddrResp_t *pMsg, uint16 clusterID )
// 1655 {
// 1656   uint8   listLen, len, *pBuf;
// 1657 
// 1658   /* both ZDO_NwkAddrResp_t and ZDO_IEEEAddrResp_t must be the same */
// 1659 
// 1660   /* get length, sanity check length */
// 1661   listLen = pMsg->numAssocDevs;
// 1662   
// 1663   /* calculate msg length */
// 1664   len = MT_ZDO_ADDR_RSP_LEN + (listLen * sizeof(uint16));
// 1665 
// 1666   /* get buffer */
// 1667   if (NULL != (pBuf = (uint8 *)osal_mem_alloc(len)))
// 1668   {
// 1669     uint8 id = MT_ZDO_CID_TO_AREQ_ID(clusterID);
// 1670     uint8 *pTmp = pBuf;
// 1671 
// 1672     *pTmp++ = pMsg->status;
// 1673 
// 1674     osal_cpyExtAddr(pTmp, pMsg->extAddr);
// 1675     pTmp += Z_EXTADDR_LEN;
// 1676 
// 1677     *pTmp++ = LO_UINT16(pMsg->nwkAddr);
// 1678     *pTmp++ = HI_UINT16(pMsg->nwkAddr);
// 1679 
// 1680     *pTmp++ = pMsg->startIndex;
// 1681     *pTmp++ = listLen;
// 1682 
// 1683     MT_Word2Buf(pTmp, pMsg->devList, listLen);
// 1684 
// 1685     MT_BuildAndSendZToolResponse(((uint8)MT_RPC_CMD_AREQ | (uint8)MT_RPC_SYS_ZDO), id, len, pBuf);
// 1686     osal_mem_free(pBuf);
// 1687   }
// 1688 }
// 1689 
// 1690 /***************************************************************************************************
// 1691  * @fn      MT_ZdoEndDevAnnceCB
// 1692  *
// 1693  * @brief   Handle end device announce OSAL message from ZDO.
// 1694  *
// 1695  * @param   pMsg  - Message data
// 1696  *
// 1697  * @return  void
// 1698  */
// 1699 void MT_ZdoEndDevAnnceCB( ZDO_DeviceAnnce_t *pMsg, uint16 srcAddr )
// 1700 {
// 1701   uint8 *pBuf;
// 1702 
// 1703   if (NULL != (pBuf = (uint8 *)osal_mem_alloc(MT_ZDO_END_DEVICE_ANNCE_IND_LEN)))
// 1704   {
// 1705     uint8 *pTmp = pBuf;
// 1706 
// 1707     *pTmp++ = LO_UINT16(srcAddr);
// 1708     *pTmp++ = HI_UINT16(srcAddr);
// 1709 
// 1710     *pTmp++ = LO_UINT16(pMsg->nwkAddr);
// 1711     *pTmp++ = HI_UINT16(pMsg->nwkAddr);
// 1712 
// 1713     osal_cpyExtAddr(pTmp, pMsg->extAddr);
// 1714     pTmp += Z_EXTADDR_LEN;
// 1715 
// 1716     *pTmp = pMsg->capabilities;
// 1717 
// 1718     MT_BuildAndSendZToolResponse(((uint8)MT_RPC_CMD_AREQ | (uint8)MT_RPC_SYS_ZDO), 
// 1719                                          MT_ZDO_END_DEVICE_ANNCE_IND, 
// 1720                                          MT_ZDO_END_DEVICE_ANNCE_IND_LEN, pBuf);
// 1721     osal_mem_free(pBuf);
// 1722   }
// 1723 }
// 1724 
// 1725 /***************************************************************************************************
// 1726  * @fn      MT_ZdoSrcRtgCB
// 1727  *
// 1728  * @brief   Handle Src Route from ZDO.
// 1729  *
// 1730  * @param   pStr  - pointer to the data structure for the src route
// 1731  *
// 1732  * @return  void* 
// 1733  */
// 1734 void* MT_ZdoSrcRtgCB( void *pStr )
// 1735 {
// 1736   uint8 len, *pBuf;
// 1737   zdoSrcRtg_t *pSrcRtg = pStr;
// 1738   
// 1739   // srcAddr (2) + relayCnt (1) + relayList( relaycnt * 2 )
// 1740   len = 2 + 1 + pSrcRtg->relayCnt * sizeof(uint16);
// 1741 
// 1742   if (NULL != (pBuf = (uint8 *)osal_mem_alloc(len)))
// 1743   {
// 1744     uint8 idx, *pTmp = pBuf;
// 1745     uint16 *pRelay;
// 1746 
// 1747     // Packet payload
// 1748     *pTmp++ = LO_UINT16(pSrcRtg->srcAddr);
// 1749     *pTmp++ = HI_UINT16(pSrcRtg->srcAddr);
// 1750     *pTmp++ = pSrcRtg->relayCnt;
// 1751     
// 1752     // Relay List
// 1753     if( ( pRelay = pSrcRtg->pRelayList ) != NULL )
// 1754     {
// 1755       for( idx = 0; idx < pSrcRtg->relayCnt; idx ++ )
// 1756       {
// 1757         *pTmp++ = LO_UINT16(*pRelay);
// 1758         *pTmp++ = HI_UINT16(*pRelay);
// 1759         pRelay++;
// 1760       }
// 1761     }
// 1762     MT_BuildAndSendZToolResponse(((uint8)MT_RPC_CMD_AREQ | (uint8)MT_RPC_SYS_ZDO),
// 1763                                          MT_ZDO_SRC_RTG_IND, len, pBuf);
// 1764     osal_mem_free(pBuf);
// 1765   }
// 1766   
// 1767   return NULL;
// 1768 }
// 1769 #endif // MT_ZDO_CB_FUNC
// 1770 
// 1771 /***************************************************************************************************
// 1772  * @fn      MT_ZdoSendMsgCB
// 1773  *
// 1774  * @brief   Proxy the ZDO_SendMsgCBs one message at a time.
// 1775  *
// 1776  * @param   pMsg  - Message data
// 1777  *
// 1778  * @return  void
// 1779  */

        RSEG BANKED_CODE:CODE:NOROOT(0)
// 1780 void MT_ZdoSendMsgCB(zdoIncomingMsg_t *pMsg)
MT_ZdoSendMsgCB:
          CFI Block cfiBlock177 Using cfiCommon0
          CFI Function MT_ZdoSendMsgCB
        CODE
// 1781 {
        FUNCALL MT_ZdoSendMsgCB, osal_mem_alloc
        LOCFRAME ISTACK, 0, STACK
        LOCFRAME PSTACK, 0, STACK
        LOCFRAME XSTACK, 15, STACK
        LOCFRAME IOVERLAY, 0, STATIC
        LOCFRAME DOVERLAY, 0, STATIC
        ARGFRAME ISTACK, 0, STACK
        ARGFRAME PSTACK, 0, STACK
        ARGFRAME XSTACK, 15, STACK
        ARGFRAME IOVERLAY, 0, STATIC
        ARGFRAME DOVERLAY, 0, STATIC
        FUNCALL MT_ZdoSendMsgCB, osal_memcpy
        LOCFRAME ISTACK, 0, STACK
        LOCFRAME PSTACK, 0, STACK
        LOCFRAME XSTACK, 18, STACK
        LOCFRAME IOVERLAY, 0, STATIC
        LOCFRAME DOVERLAY, 0, STATIC
        ARGFRAME ISTACK, 0, STACK
        ARGFRAME PSTACK, 0, STACK
        ARGFRAME XSTACK, 18, STACK
        ARGFRAME IOVERLAY, 0, STATIC
        ARGFRAME DOVERLAY, 0, STATIC
        FUNCALL MT_ZdoSendMsgCB, MT_BuildAndSendZToolResponse
        LOCFRAME ISTACK, 0, STACK
        LOCFRAME PSTACK, 0, STACK
        LOCFRAME XSTACK, 15, STACK
        LOCFRAME IOVERLAY, 0, STATIC
        LOCFRAME DOVERLAY, 0, STATIC
        ARGFRAME ISTACK, 0, STACK
        ARGFRAME PSTACK, 0, STACK
        ARGFRAME XSTACK, 15, STACK
        ARGFRAME IOVERLAY, 0, STATIC
        ARGFRAME DOVERLAY, 0, STATIC
        REQUIRE ?V0
        REQUIRE ?V1
        REQUIRE ?V2
        REQUIRE ?V3
        REQUIRE ?V4
        REQUIRE ?V5
        REQUIRE ?V6
        MOV     A,#-0xf
        LCALL   ?BANKED_ENTER_XDATA
          CFI DPH0 load(1, XDATA, add(CFA_XSP16, literal(-1)))
          CFI DPL0 load(1, XDATA, add(CFA_XSP16, literal(-2)))
          CFI ?BRET_EXT load(1, XDATA, add(CFA_XSP16, literal(-3)))
          CFI ?RET_HIGH load(1, XDATA, add(CFA_XSP16, literal(-4)))
          CFI ?RET_LOW load(1, XDATA, add(CFA_XSP16, literal(-5)))
          CFI R7 load(1, XDATA, add(CFA_XSP16, literal(-6)))
          CFI V6 load(1, XDATA, add(CFA_XSP16, literal(-7)))
          CFI V5 load(1, XDATA, add(CFA_XSP16, literal(-8)))
          CFI V4 load(1, XDATA, add(CFA_XSP16, literal(-9)))
          CFI V3 load(1, XDATA, add(CFA_XSP16, literal(-10)))
          CFI V2 load(1, XDATA, add(CFA_XSP16, literal(-11)))
          CFI V1 load(1, XDATA, add(CFA_XSP16, literal(-12)))
          CFI V0 load(1, XDATA, add(CFA_XSP16, literal(-13)))
          CFI VB load(1, XDATA, add(CFA_XSP16, literal(-14)))
          CFI R6 load(1, XDATA, add(CFA_XSP16, literal(-15)))
          CFI CFA_SP SP+0
          CFI CFA_XSP16 add(XSP16, 15)
        ; Saved register size: 15
        ; Auto size: 0
        MOV     ?V0,R2
        MOV     ?V1,R3
// 1782   uint8 len = pMsg->asduLen + 9;
        MOV     A,R2
        ADD     A,#0x10
        MOV     ?V4,A
        CLR     A
        ADDC    A,?V1
        MOV     ?V5,A
        MOV     DPL,?V4
        MOV     DPH,A
        MOVX    A,@DPTR
        ADD     A,#0x9
        MOV     ?V6,A
// 1783   uint8 *pBuf = (uint8 *)osal_mem_alloc(len);
        ; Setup parameters for call to function osal_mem_alloc
        MOV     R2,A
        MOV     R3,#0x0
        LCALL   `??osal_mem_alloc::?relay`; Banked call to: osal_mem_alloc
        MOV     ?V2,R2
        MOV     ?V3,R3
        MOV     R6,?V2
        MOV     R7,?V3
// 1784 
// 1785   if (pBuf != NULL)
        MOV     A,R6
        ORL     A,R7
        JNZ     $+5
        LJMP    ??MT_ZdoSendMsgCB_0 & 0xFFFF
// 1786   {
// 1787     uint8 *pTmp = pBuf;
// 1788 
// 1789     // Assuming exclusive use of network short addresses.
// 1790     *pTmp++ = LO_UINT16(pMsg->srcAddr.addr.shortAddr);
        MOV     A,?V0
        ADD     A,#0x2
        LCALL   ?Subroutine23 & 0xFFFF
??CrossCallReturnLabel_36:
        MOVX    A,@DPTR
        MOV     DPL,R6
        MOV     DPH,R7
        LCALL   ?Subroutine27 & 0xFFFF
// 1791     *pTmp++ = HI_UINT16(pMsg->srcAddr.addr.shortAddr);
??CrossCallReturnLabel_49:
        LCALL   ?Subroutine40 & 0xFFFF
??CrossCallReturnLabel_80:
        MOVX    @DPTR,A
// 1792     *pTmp++ = pMsg->wasBroadcast;
        MOV     A,?V0
        ADD     A,#0xb
        LCALL   ?Subroutine35 & 0xFFFF
??CrossCallReturnLabel_68:
        MOVX    @DPTR,A
// 1793     *pTmp++ = LO_UINT16(pMsg->clusterID);
        MOV     A,?V0
        ADD     A,#0xc
        LCALL   ?Subroutine23 & 0xFFFF
??CrossCallReturnLabel_37:
        LCALL   ?Subroutine20 & 0xFFFF
??CrossCallReturnLabel_30:
        LCALL   ?Subroutine27 & 0xFFFF
// 1794     *pTmp++ = HI_UINT16(pMsg->clusterID);
??CrossCallReturnLabel_50:
        LCALL   ?Subroutine20 & 0xFFFF
??CrossCallReturnLabel_31:
        INC     DPTR
        MOVX    @DPTR,A
// 1795     *pTmp++ = pMsg->SecurityUse;
        MOV     A,?V0
        ADD     A,#0xe
        LCALL   ?Subroutine17 & 0xFFFF
??CrossCallReturnLabel_24:
        MOVX    @DPTR,A
// 1796     *pTmp++ = pMsg->TransSeq;
        MOV     A,?V0
        ADD     A,#0xf
        LCALL   ?Subroutine17 & 0xFFFF
??CrossCallReturnLabel_25:
        INC     DPTR
        MOVX    @DPTR,A
// 1797     // Skipping asduLen since it can be deduced from the RPC packet length.
// 1798     *pTmp++ = LO_UINT16(pMsg->macDestAddr);
        MOV     A,?V0
        ADD     A,#0x11
        LCALL   ?Subroutine23 & 0xFFFF
??CrossCallReturnLabel_38:
        LCALL   ?Subroutine16 & 0xFFFF
??CrossCallReturnLabel_22:
        LCALL   ?Subroutine27 & 0xFFFF
// 1799     *pTmp++ = HI_UINT16(pMsg->macDestAddr);
??CrossCallReturnLabel_51:
        LCALL   ?Subroutine16 & 0xFFFF
??CrossCallReturnLabel_23:
        INC     DPTR
        MOVX    @DPTR,A
// 1800     (void)osal_memcpy(pTmp, pMsg->asdu, pMsg->asduLen);
        ; Setup parameters for call to function osal_memcpy
        MOV     A,?V0
        ADD     A,#0x13
        MOV     DPL,A
        CLR     A
        ADDC    A,?V1
        MOV     DPH,A
        LCALL   ?Subroutine39 & 0xFFFF
??CrossCallReturnLabel_77:
        MOV     ?V1,A
        MOV     ?V2,#0x0
        MOV     R0,#?V0
        LCALL   ?PUSH_XSTACK_I_THREE
          CFI CFA_XSP16 add(XSP16, 18)
        MOV     DPL,?V4
        MOV     DPH,?V5
        MOVX    A,@DPTR
        MOV     R4,A
        MOV     R5,#0x0
        MOV     A,R6
        ADD     A,#0x9
        MOV     R2,A
        CLR     A
        ADDC    A,R7
        MOV     R3,A
        LCALL   `??osal_memcpy::?relay`; Banked call to: osal_memcpy
        MOV     A,#0x3
        LCALL   ?DEALLOC_XSTACK8
          CFI CFA_XSP16 add(XSP16, 15)
// 1801 
// 1802     MT_BuildAndSendZToolResponse(((uint8)MT_RPC_CMD_AREQ | (uint8)MT_RPC_SYS_ZDO),
// 1803                                          MT_ZDO_MSG_CB_INCOMING, len, pBuf);
        ; Setup parameters for call to function MT_BuildAndSendZToolResponse
        MOV     A,R6
        MOV     R4,A
        MOV     A,R7
        MOV     R5,A
        MOV     R3,?V6
        MOV     R2,#-0x1
        MOV     R1,#0x45
        LCALL   `??MT_BuildAndSendZToolResponse::?relay`; Banked call to: MT_BuildAndSendZToolResponse
// 1804   }
// 1805 }
??MT_ZdoSendMsgCB_0:
        LJMP    ?Subroutine3 & 0xFFFF
          CFI EndBlock cfiBlock177

        RSEG BANKED_CODE:CODE:NOROOT(0)
?Subroutine27:
          CFI Block cfiCond178 Using cfiCommon0
          CFI Function MT_ZdoMatchDescRequest
          CFI Conditional ??CrossCallReturnLabel_48
          CFI R6 load(1, XDATA, add(CFA_XSP16, literal(-14)))
          CFI VB load(1, XDATA, add(CFA_XSP16, literal(-13)))
          CFI V0 load(1, XDATA, add(CFA_XSP16, literal(-12)))
          CFI V1 load(1, XDATA, add(CFA_XSP16, literal(-11)))
          CFI V2 load(1, XDATA, add(CFA_XSP16, literal(-10)))
          CFI V3 load(1, XDATA, add(CFA_XSP16, literal(-9)))
          CFI V4 load(1, XDATA, add(CFA_XSP16, literal(-8)))
          CFI V5 load(1, XDATA, add(CFA_XSP16, literal(-7)))
          CFI R7 load(1, XDATA, add(CFA_XSP16, literal(-6)))
          CFI ?RET_LOW load(1, XDATA, add(CFA_XSP16, literal(-5)))
          CFI ?RET_HIGH load(1, XDATA, add(CFA_XSP16, literal(-4)))
          CFI ?BRET_EXT load(1, XDATA, add(CFA_XSP16, literal(-3)))
          CFI DPL0 load(1, XDATA, add(CFA_XSP16, literal(-2)))
          CFI DPH0 load(1, XDATA, add(CFA_XSP16, literal(-1)))
          CFI CFA_SP SP+-2
          CFI CFA_XSP16 add(XSP16, 88)
          CFI Block cfiCond179 Using cfiCommon0
          CFI (cfiCond179) Function MT_ZdoSendMsgCB
          CFI (cfiCond179) Conditional ??CrossCallReturnLabel_49
          CFI (cfiCond179) R6 load(1, XDATA, add(CFA_XSP16, literal(-15)))
          CFI (cfiCond179) VB load(1, XDATA, add(CFA_XSP16, literal(-14)))
          CFI (cfiCond179) V0 load(1, XDATA, add(CFA_XSP16, literal(-13)))
          CFI (cfiCond179) V1 load(1, XDATA, add(CFA_XSP16, literal(-12)))
          CFI (cfiCond179) V2 load(1, XDATA, add(CFA_XSP16, literal(-11)))
          CFI (cfiCond179) V3 load(1, XDATA, add(CFA_XSP16, literal(-10)))
          CFI (cfiCond179) V4 load(1, XDATA, add(CFA_XSP16, literal(-9)))
          CFI (cfiCond179) V5 load(1, XDATA, add(CFA_XSP16, literal(-8)))
          CFI (cfiCond179) V6 load(1, XDATA, add(CFA_XSP16, literal(-7)))
          CFI (cfiCond179) R7 load(1, XDATA, add(CFA_XSP16, literal(-6)))
          CFI (cfiCond179) ?RET_LOW load(1, XDATA, add(CFA_XSP16, literal(-5)))
          CFI (cfiCond179) ?RET_HIGH load(1, XDATA, add(CFA_XSP16, literal(-4)))
          CFI (cfiCond179) ?BRET_EXT load(1, XDATA, add(CFA_XSP16, literal(-3)))
          CFI (cfiCond179) DPL0 load(1, XDATA, add(CFA_XSP16, literal(-2)))
          CFI (cfiCond179) DPH0 load(1, XDATA, add(CFA_XSP16, literal(-1)))
          CFI (cfiCond179) CFA_SP SP+-2
          CFI (cfiCond179) CFA_XSP16 add(XSP16, 15)
          CFI Block cfiCond180 Using cfiCommon0
          CFI (cfiCond180) Function MT_ZdoSendMsgCB
          CFI (cfiCond180) Conditional ??CrossCallReturnLabel_50
          CFI (cfiCond180) R6 load(1, XDATA, add(CFA_XSP16, literal(-15)))
          CFI (cfiCond180) VB load(1, XDATA, add(CFA_XSP16, literal(-14)))
          CFI (cfiCond180) V0 load(1, XDATA, add(CFA_XSP16, literal(-13)))
          CFI (cfiCond180) V1 load(1, XDATA, add(CFA_XSP16, literal(-12)))
          CFI (cfiCond180) V2 load(1, XDATA, add(CFA_XSP16, literal(-11)))
          CFI (cfiCond180) V3 load(1, XDATA, add(CFA_XSP16, literal(-10)))
          CFI (cfiCond180) V4 load(1, XDATA, add(CFA_XSP16, literal(-9)))
          CFI (cfiCond180) V5 load(1, XDATA, add(CFA_XSP16, literal(-8)))
          CFI (cfiCond180) V6 load(1, XDATA, add(CFA_XSP16, literal(-7)))
          CFI (cfiCond180) R7 load(1, XDATA, add(CFA_XSP16, literal(-6)))
          CFI (cfiCond180) ?RET_LOW load(1, XDATA, add(CFA_XSP16, literal(-5)))
          CFI (cfiCond180) ?RET_HIGH load(1, XDATA, add(CFA_XSP16, literal(-4)))
          CFI (cfiCond180) ?BRET_EXT load(1, XDATA, add(CFA_XSP16, literal(-3)))
          CFI (cfiCond180) DPL0 load(1, XDATA, add(CFA_XSP16, literal(-2)))
          CFI (cfiCond180) DPH0 load(1, XDATA, add(CFA_XSP16, literal(-1)))
          CFI (cfiCond180) CFA_SP SP+-2
          CFI (cfiCond180) CFA_XSP16 add(XSP16, 15)
          CFI Block cfiCond181 Using cfiCommon0
          CFI (cfiCond181) Function MT_ZdoSendMsgCB
          CFI (cfiCond181) Conditional ??CrossCallReturnLabel_51
          CFI (cfiCond181) R6 load(1, XDATA, add(CFA_XSP16, literal(-15)))
          CFI (cfiCond181) VB load(1, XDATA, add(CFA_XSP16, literal(-14)))
          CFI (cfiCond181) V0 load(1, XDATA, add(CFA_XSP16, literal(-13)))
          CFI (cfiCond181) V1 load(1, XDATA, add(CFA_XSP16, literal(-12)))
          CFI (cfiCond181) V2 load(1, XDATA, add(CFA_XSP16, literal(-11)))
          CFI (cfiCond181) V3 load(1, XDATA, add(CFA_XSP16, literal(-10)))
          CFI (cfiCond181) V4 load(1, XDATA, add(CFA_XSP16, literal(-9)))
          CFI (cfiCond181) V5 load(1, XDATA, add(CFA_XSP16, literal(-8)))
          CFI (cfiCond181) V6 load(1, XDATA, add(CFA_XSP16, literal(-7)))
          CFI (cfiCond181) R7 load(1, XDATA, add(CFA_XSP16, literal(-6)))
          CFI (cfiCond181) ?RET_LOW load(1, XDATA, add(CFA_XSP16, literal(-5)))
          CFI (cfiCond181) ?RET_HIGH load(1, XDATA, add(CFA_XSP16, literal(-4)))
          CFI (cfiCond181) ?BRET_EXT load(1, XDATA, add(CFA_XSP16, literal(-3)))
          CFI (cfiCond181) DPL0 load(1, XDATA, add(CFA_XSP16, literal(-2)))
          CFI (cfiCond181) DPH0 load(1, XDATA, add(CFA_XSP16, literal(-1)))
          CFI (cfiCond181) CFA_SP SP+-2
          CFI (cfiCond181) CFA_XSP16 add(XSP16, 15)
          CFI Block cfiPicker182 Using cfiCommon1
          CFI (cfiPicker182) NoFunction
          CFI (cfiPicker182) Picker
        MOVX    @DPTR,A
        MOV     DPL,R0
        MOV     DPH,R1
        INC     DPTR
        RET
          CFI (cfiCond178) CFA_SP SP+0
          CFI (cfiCond179) CFA_SP SP+0
          CFI (cfiCond180) CFA_SP SP+0
          CFI (cfiCond181) CFA_SP SP+0
          CFI (cfiPicker182) CFA_SP SP+0
          CFI EndBlock cfiCond178
          CFI EndBlock cfiCond179
          CFI EndBlock cfiCond180
          CFI EndBlock cfiCond181
          CFI EndBlock cfiPicker182

        RSEG BANKED_CODE:CODE:NOROOT(0)
?Subroutine23:
          CFI Block cfiCond183 Using cfiCommon0
          CFI Function MT_ZdoSendMsgCB
          CFI Conditional ??CrossCallReturnLabel_36
          CFI R6 load(1, XDATA, add(CFA_XSP16, literal(-15)))
          CFI VB load(1, XDATA, add(CFA_XSP16, literal(-14)))
          CFI V0 load(1, XDATA, add(CFA_XSP16, literal(-13)))
          CFI V1 load(1, XDATA, add(CFA_XSP16, literal(-12)))
          CFI V2 load(1, XDATA, add(CFA_XSP16, literal(-11)))
          CFI V3 load(1, XDATA, add(CFA_XSP16, literal(-10)))
          CFI V4 load(1, XDATA, add(CFA_XSP16, literal(-9)))
          CFI V5 load(1, XDATA, add(CFA_XSP16, literal(-8)))
          CFI V6 load(1, XDATA, add(CFA_XSP16, literal(-7)))
          CFI R7 load(1, XDATA, add(CFA_XSP16, literal(-6)))
          CFI ?RET_LOW load(1, XDATA, add(CFA_XSP16, literal(-5)))
          CFI ?RET_HIGH load(1, XDATA, add(CFA_XSP16, literal(-4)))
          CFI ?BRET_EXT load(1, XDATA, add(CFA_XSP16, literal(-3)))
          CFI DPL0 load(1, XDATA, add(CFA_XSP16, literal(-2)))
          CFI DPH0 load(1, XDATA, add(CFA_XSP16, literal(-1)))
          CFI CFA_SP SP+-2
          CFI CFA_XSP16 add(XSP16, 15)
          CFI Block cfiCond184 Using cfiCommon0
          CFI (cfiCond184) Function MT_ZdoSendMsgCB
          CFI (cfiCond184) Conditional ??CrossCallReturnLabel_37
          CFI (cfiCond184) R6 load(1, XDATA, add(CFA_XSP16, literal(-15)))
          CFI (cfiCond184) VB load(1, XDATA, add(CFA_XSP16, literal(-14)))
          CFI (cfiCond184) V0 load(1, XDATA, add(CFA_XSP16, literal(-13)))
          CFI (cfiCond184) V1 load(1, XDATA, add(CFA_XSP16, literal(-12)))
          CFI (cfiCond184) V2 load(1, XDATA, add(CFA_XSP16, literal(-11)))
          CFI (cfiCond184) V3 load(1, XDATA, add(CFA_XSP16, literal(-10)))
          CFI (cfiCond184) V4 load(1, XDATA, add(CFA_XSP16, literal(-9)))
          CFI (cfiCond184) V5 load(1, XDATA, add(CFA_XSP16, literal(-8)))
          CFI (cfiCond184) V6 load(1, XDATA, add(CFA_XSP16, literal(-7)))
          CFI (cfiCond184) R7 load(1, XDATA, add(CFA_XSP16, literal(-6)))
          CFI (cfiCond184) ?RET_LOW load(1, XDATA, add(CFA_XSP16, literal(-5)))
          CFI (cfiCond184) ?RET_HIGH load(1, XDATA, add(CFA_XSP16, literal(-4)))
          CFI (cfiCond184) ?BRET_EXT load(1, XDATA, add(CFA_XSP16, literal(-3)))
          CFI (cfiCond184) DPL0 load(1, XDATA, add(CFA_XSP16, literal(-2)))
          CFI (cfiCond184) DPH0 load(1, XDATA, add(CFA_XSP16, literal(-1)))
          CFI (cfiCond184) CFA_SP SP+-2
          CFI (cfiCond184) CFA_XSP16 add(XSP16, 15)
          CFI Block cfiCond185 Using cfiCommon0
          CFI (cfiCond185) Function MT_ZdoSendMsgCB
          CFI (cfiCond185) Conditional ??CrossCallReturnLabel_38
          CFI (cfiCond185) R6 load(1, XDATA, add(CFA_XSP16, literal(-15)))
          CFI (cfiCond185) VB load(1, XDATA, add(CFA_XSP16, literal(-14)))
          CFI (cfiCond185) V0 load(1, XDATA, add(CFA_XSP16, literal(-13)))
          CFI (cfiCond185) V1 load(1, XDATA, add(CFA_XSP16, literal(-12)))
          CFI (cfiCond185) V2 load(1, XDATA, add(CFA_XSP16, literal(-11)))
          CFI (cfiCond185) V3 load(1, XDATA, add(CFA_XSP16, literal(-10)))
          CFI (cfiCond185) V4 load(1, XDATA, add(CFA_XSP16, literal(-9)))
          CFI (cfiCond185) V5 load(1, XDATA, add(CFA_XSP16, literal(-8)))
          CFI (cfiCond185) V6 load(1, XDATA, add(CFA_XSP16, literal(-7)))
          CFI (cfiCond185) R7 load(1, XDATA, add(CFA_XSP16, literal(-6)))
          CFI (cfiCond185) ?RET_LOW load(1, XDATA, add(CFA_XSP16, literal(-5)))
          CFI (cfiCond185) ?RET_HIGH load(1, XDATA, add(CFA_XSP16, literal(-4)))
          CFI (cfiCond185) ?BRET_EXT load(1, XDATA, add(CFA_XSP16, literal(-3)))
          CFI (cfiCond185) DPL0 load(1, XDATA, add(CFA_XSP16, literal(-2)))
          CFI (cfiCond185) DPH0 load(1, XDATA, add(CFA_XSP16, literal(-1)))
          CFI (cfiCond185) CFA_SP SP+-2
          CFI (cfiCond185) CFA_XSP16 add(XSP16, 15)
          CFI Block cfiPicker186 Using cfiCommon1
          CFI (cfiPicker186) NoFunction
          CFI (cfiPicker186) Picker
        MOV     R0,A
        CLR     A
        ADDC    A,?V1
        MOV     R1,A
        MOV     DPL,R0
        MOV     DPH,R1
        RET
          CFI (cfiCond183) CFA_SP SP+0
          CFI (cfiCond184) CFA_SP SP+0
          CFI (cfiCond185) CFA_SP SP+0
          CFI (cfiPicker186) CFA_SP SP+0
          CFI EndBlock cfiCond183
          CFI EndBlock cfiCond184
          CFI EndBlock cfiCond185
          CFI EndBlock cfiPicker186

        RSEG BANKED_CODE:CODE:NOROOT(0)
?Subroutine20:
          CFI Block cfiCond187 Using cfiCommon0
          CFI Function MT_ZdoSendMsgCB
          CFI Conditional ??CrossCallReturnLabel_30
          CFI R6 load(1, XDATA, add(CFA_XSP16, literal(-15)))
          CFI VB load(1, XDATA, add(CFA_XSP16, literal(-14)))
          CFI V0 load(1, XDATA, add(CFA_XSP16, literal(-13)))
          CFI V1 load(1, XDATA, add(CFA_XSP16, literal(-12)))
          CFI V2 load(1, XDATA, add(CFA_XSP16, literal(-11)))
          CFI V3 load(1, XDATA, add(CFA_XSP16, literal(-10)))
          CFI V4 load(1, XDATA, add(CFA_XSP16, literal(-9)))
          CFI V5 load(1, XDATA, add(CFA_XSP16, literal(-8)))
          CFI V6 load(1, XDATA, add(CFA_XSP16, literal(-7)))
          CFI R7 load(1, XDATA, add(CFA_XSP16, literal(-6)))
          CFI ?RET_LOW load(1, XDATA, add(CFA_XSP16, literal(-5)))
          CFI ?RET_HIGH load(1, XDATA, add(CFA_XSP16, literal(-4)))
          CFI ?BRET_EXT load(1, XDATA, add(CFA_XSP16, literal(-3)))
          CFI DPL0 load(1, XDATA, add(CFA_XSP16, literal(-2)))
          CFI DPH0 load(1, XDATA, add(CFA_XSP16, literal(-1)))
          CFI CFA_SP SP+-2
          CFI CFA_XSP16 add(XSP16, 15)
          CFI Block cfiCond188 Using cfiCommon0
          CFI (cfiCond188) Function MT_ZdoSendMsgCB
          CFI (cfiCond188) Conditional ??CrossCallReturnLabel_31
          CFI (cfiCond188) R6 load(1, XDATA, add(CFA_XSP16, literal(-15)))
          CFI (cfiCond188) VB load(1, XDATA, add(CFA_XSP16, literal(-14)))
          CFI (cfiCond188) V0 load(1, XDATA, add(CFA_XSP16, literal(-13)))
          CFI (cfiCond188) V1 load(1, XDATA, add(CFA_XSP16, literal(-12)))
          CFI (cfiCond188) V2 load(1, XDATA, add(CFA_XSP16, literal(-11)))
          CFI (cfiCond188) V3 load(1, XDATA, add(CFA_XSP16, literal(-10)))
          CFI (cfiCond188) V4 load(1, XDATA, add(CFA_XSP16, literal(-9)))
          CFI (cfiCond188) V5 load(1, XDATA, add(CFA_XSP16, literal(-8)))
          CFI (cfiCond188) V6 load(1, XDATA, add(CFA_XSP16, literal(-7)))
          CFI (cfiCond188) R7 load(1, XDATA, add(CFA_XSP16, literal(-6)))
          CFI (cfiCond188) ?RET_LOW load(1, XDATA, add(CFA_XSP16, literal(-5)))
          CFI (cfiCond188) ?RET_HIGH load(1, XDATA, add(CFA_XSP16, literal(-4)))
          CFI (cfiCond188) ?BRET_EXT load(1, XDATA, add(CFA_XSP16, literal(-3)))
          CFI (cfiCond188) DPL0 load(1, XDATA, add(CFA_XSP16, literal(-2)))
          CFI (cfiCond188) DPH0 load(1, XDATA, add(CFA_XSP16, literal(-1)))
          CFI (cfiCond188) CFA_SP SP+-2
          CFI (cfiCond188) CFA_XSP16 add(XSP16, 15)
          CFI Block cfiPicker189 Using cfiCommon1
          CFI (cfiPicker189) NoFunction
          CFI (cfiPicker189) Picker
        LCALL   ?Subroutine37 & 0xFFFF
??CrossCallReturnLabel_73:
        RET
          CFI (cfiCond187) CFA_SP SP+0
          CFI (cfiCond188) CFA_SP SP+0
          CFI (cfiPicker189) CFA_SP SP+0
          CFI EndBlock cfiCond187
          CFI EndBlock cfiCond188
          CFI EndBlock cfiPicker189

        RSEG BANKED_CODE:CODE:NOROOT(0)
?Subroutine37:
          CFI Block cfiCond190 Using cfiCommon0
          CFI Function MT_ZdoSendMsgCB
          CFI Conditional ??CrossCallReturnLabel_73, ??CrossCallReturnLabel_30
          CFI R6 load(1, XDATA, add(CFA_XSP16, literal(-15)))
          CFI VB load(1, XDATA, add(CFA_XSP16, literal(-14)))
          CFI V0 load(1, XDATA, add(CFA_XSP16, literal(-13)))
          CFI V1 load(1, XDATA, add(CFA_XSP16, literal(-12)))
          CFI V2 load(1, XDATA, add(CFA_XSP16, literal(-11)))
          CFI V3 load(1, XDATA, add(CFA_XSP16, literal(-10)))
          CFI V4 load(1, XDATA, add(CFA_XSP16, literal(-9)))
          CFI V5 load(1, XDATA, add(CFA_XSP16, literal(-8)))
          CFI V6 load(1, XDATA, add(CFA_XSP16, literal(-7)))
          CFI R7 load(1, XDATA, add(CFA_XSP16, literal(-6)))
          CFI ?RET_LOW load(1, XDATA, add(CFA_XSP16, literal(-5)))
          CFI ?RET_HIGH load(1, XDATA, add(CFA_XSP16, literal(-4)))
          CFI ?BRET_EXT load(1, XDATA, add(CFA_XSP16, literal(-3)))
          CFI DPL0 load(1, XDATA, add(CFA_XSP16, literal(-2)))
          CFI DPH0 load(1, XDATA, add(CFA_XSP16, literal(-1)))
          CFI CFA_SP SP+-4
          CFI CFA_XSP16 add(XSP16, 15)
          CFI Block cfiCond191 Using cfiCommon0
          CFI (cfiCond191) Function MT_ZdoSendMsgCB
          CFI (cfiCond191) Conditional ??CrossCallReturnLabel_73, ??CrossCallReturnLabel_31
          CFI (cfiCond191) R6 load(1, XDATA, add(CFA_XSP16, literal(-15)))
          CFI (cfiCond191) VB load(1, XDATA, add(CFA_XSP16, literal(-14)))
          CFI (cfiCond191) V0 load(1, XDATA, add(CFA_XSP16, literal(-13)))
          CFI (cfiCond191) V1 load(1, XDATA, add(CFA_XSP16, literal(-12)))
          CFI (cfiCond191) V2 load(1, XDATA, add(CFA_XSP16, literal(-11)))
          CFI (cfiCond191) V3 load(1, XDATA, add(CFA_XSP16, literal(-10)))
          CFI (cfiCond191) V4 load(1, XDATA, add(CFA_XSP16, literal(-9)))
          CFI (cfiCond191) V5 load(1, XDATA, add(CFA_XSP16, literal(-8)))
          CFI (cfiCond191) V6 load(1, XDATA, add(CFA_XSP16, literal(-7)))
          CFI (cfiCond191) R7 load(1, XDATA, add(CFA_XSP16, literal(-6)))
          CFI (cfiCond191) ?RET_LOW load(1, XDATA, add(CFA_XSP16, literal(-5)))
          CFI (cfiCond191) ?RET_HIGH load(1, XDATA, add(CFA_XSP16, literal(-4)))
          CFI (cfiCond191) ?BRET_EXT load(1, XDATA, add(CFA_XSP16, literal(-3)))
          CFI (cfiCond191) DPL0 load(1, XDATA, add(CFA_XSP16, literal(-2)))
          CFI (cfiCond191) DPH0 load(1, XDATA, add(CFA_XSP16, literal(-1)))
          CFI (cfiCond191) CFA_SP SP+-4
          CFI (cfiCond191) CFA_XSP16 add(XSP16, 15)
          CFI Block cfiCond192 Using cfiCommon0
          CFI (cfiCond192) Function MT_ZdoSendMsgCB
          CFI (cfiCond192) Conditional ??CrossCallReturnLabel_72, ??CrossCallReturnLabel_22
          CFI (cfiCond192) R6 load(1, XDATA, add(CFA_XSP16, literal(-15)))
          CFI (cfiCond192) VB load(1, XDATA, add(CFA_XSP16, literal(-14)))
          CFI (cfiCond192) V0 load(1, XDATA, add(CFA_XSP16, literal(-13)))
          CFI (cfiCond192) V1 load(1, XDATA, add(CFA_XSP16, literal(-12)))
          CFI (cfiCond192) V2 load(1, XDATA, add(CFA_XSP16, literal(-11)))
          CFI (cfiCond192) V3 load(1, XDATA, add(CFA_XSP16, literal(-10)))
          CFI (cfiCond192) V4 load(1, XDATA, add(CFA_XSP16, literal(-9)))
          CFI (cfiCond192) V5 load(1, XDATA, add(CFA_XSP16, literal(-8)))
          CFI (cfiCond192) V6 load(1, XDATA, add(CFA_XSP16, literal(-7)))
          CFI (cfiCond192) R7 load(1, XDATA, add(CFA_XSP16, literal(-6)))
          CFI (cfiCond192) ?RET_LOW load(1, XDATA, add(CFA_XSP16, literal(-5)))
          CFI (cfiCond192) ?RET_HIGH load(1, XDATA, add(CFA_XSP16, literal(-4)))
          CFI (cfiCond192) ?BRET_EXT load(1, XDATA, add(CFA_XSP16, literal(-3)))
          CFI (cfiCond192) DPL0 load(1, XDATA, add(CFA_XSP16, literal(-2)))
          CFI (cfiCond192) DPH0 load(1, XDATA, add(CFA_XSP16, literal(-1)))
          CFI (cfiCond192) CFA_SP SP+-4
          CFI (cfiCond192) CFA_XSP16 add(XSP16, 15)
          CFI Block cfiCond193 Using cfiCommon0
          CFI (cfiCond193) Function MT_ZdoSendMsgCB
          CFI (cfiCond193) Conditional ??CrossCallReturnLabel_72, ??CrossCallReturnLabel_23
          CFI (cfiCond193) R6 load(1, XDATA, add(CFA_XSP16, literal(-15)))
          CFI (cfiCond193) VB load(1, XDATA, add(CFA_XSP16, literal(-14)))
          CFI (cfiCond193) V0 load(1, XDATA, add(CFA_XSP16, literal(-13)))
          CFI (cfiCond193) V1 load(1, XDATA, add(CFA_XSP16, literal(-12)))
          CFI (cfiCond193) V2 load(1, XDATA, add(CFA_XSP16, literal(-11)))
          CFI (cfiCond193) V3 load(1, XDATA, add(CFA_XSP16, literal(-10)))
          CFI (cfiCond193) V4 load(1, XDATA, add(CFA_XSP16, literal(-9)))
          CFI (cfiCond193) V5 load(1, XDATA, add(CFA_XSP16, literal(-8)))
          CFI (cfiCond193) V6 load(1, XDATA, add(CFA_XSP16, literal(-7)))
          CFI (cfiCond193) R7 load(1, XDATA, add(CFA_XSP16, literal(-6)))
          CFI (cfiCond193) ?RET_LOW load(1, XDATA, add(CFA_XSP16, literal(-5)))
          CFI (cfiCond193) ?RET_HIGH load(1, XDATA, add(CFA_XSP16, literal(-4)))
          CFI (cfiCond193) ?BRET_EXT load(1, XDATA, add(CFA_XSP16, literal(-3)))
          CFI (cfiCond193) DPL0 load(1, XDATA, add(CFA_XSP16, literal(-2)))
          CFI (cfiCond193) DPH0 load(1, XDATA, add(CFA_XSP16, literal(-1)))
          CFI (cfiCond193) CFA_SP SP+-4
          CFI (cfiCond193) CFA_XSP16 add(XSP16, 15)
          CFI Block cfiPicker194 Using cfiCommon1
          CFI (cfiPicker194) NoFunction
          CFI (cfiPicker194) Picker
        LCALL   ?Subroutine40 & 0xFFFF
??CrossCallReturnLabel_82:
        INC     DPTR
        INC     DPTR
        RET
          CFI (cfiCond190) CFA_SP SP+-2
          CFI (cfiCond191) CFA_SP SP+-2
          CFI (cfiCond192) CFA_SP SP+-2
          CFI (cfiCond193) CFA_SP SP+-2
          CFI (cfiPicker194) CFA_SP SP+0
          CFI EndBlock cfiCond190
          CFI EndBlock cfiCond191
          CFI EndBlock cfiCond192
          CFI EndBlock cfiCond193
          CFI EndBlock cfiPicker194

        RSEG BANKED_CODE:CODE:NOROOT(0)
?Subroutine40:
          CFI Block cfiCond195 Using cfiCommon0
          CFI Function MT_ZdoSendMsgCB
          CFI Conditional ??CrossCallReturnLabel_80
          CFI R6 load(1, XDATA, add(CFA_XSP16, literal(-15)))
          CFI VB load(1, XDATA, add(CFA_XSP16, literal(-14)))
          CFI V0 load(1, XDATA, add(CFA_XSP16, literal(-13)))
          CFI V1 load(1, XDATA, add(CFA_XSP16, literal(-12)))
          CFI V2 load(1, XDATA, add(CFA_XSP16, literal(-11)))
          CFI V3 load(1, XDATA, add(CFA_XSP16, literal(-10)))
          CFI V4 load(1, XDATA, add(CFA_XSP16, literal(-9)))
          CFI V5 load(1, XDATA, add(CFA_XSP16, literal(-8)))
          CFI V6 load(1, XDATA, add(CFA_XSP16, literal(-7)))
          CFI R7 load(1, XDATA, add(CFA_XSP16, literal(-6)))
          CFI ?RET_LOW load(1, XDATA, add(CFA_XSP16, literal(-5)))
          CFI ?RET_HIGH load(1, XDATA, add(CFA_XSP16, literal(-4)))
          CFI ?BRET_EXT load(1, XDATA, add(CFA_XSP16, literal(-3)))
          CFI DPL0 load(1, XDATA, add(CFA_XSP16, literal(-2)))
          CFI DPH0 load(1, XDATA, add(CFA_XSP16, literal(-1)))
          CFI CFA_SP SP+-2
          CFI CFA_XSP16 add(XSP16, 15)
          CFI Block cfiCond196 Using cfiCommon0
          CFI (cfiCond196) Function MT_ZdoSendMsgCB
          CFI (cfiCond196) Conditional ??CrossCallReturnLabel_82, ??CrossCallReturnLabel_73, ??CrossCallReturnLabel_30
          CFI (cfiCond196) R6 load(1, XDATA, add(CFA_XSP16, literal(-15)))
          CFI (cfiCond196) VB load(1, XDATA, add(CFA_XSP16, literal(-14)))
          CFI (cfiCond196) V0 load(1, XDATA, add(CFA_XSP16, literal(-13)))
          CFI (cfiCond196) V1 load(1, XDATA, add(CFA_XSP16, literal(-12)))
          CFI (cfiCond196) V2 load(1, XDATA, add(CFA_XSP16, literal(-11)))
          CFI (cfiCond196) V3 load(1, XDATA, add(CFA_XSP16, literal(-10)))
          CFI (cfiCond196) V4 load(1, XDATA, add(CFA_XSP16, literal(-9)))
          CFI (cfiCond196) V5 load(1, XDATA, add(CFA_XSP16, literal(-8)))
          CFI (cfiCond196) V6 load(1, XDATA, add(CFA_XSP16, literal(-7)))
          CFI (cfiCond196) R7 load(1, XDATA, add(CFA_XSP16, literal(-6)))
          CFI (cfiCond196) ?RET_LOW load(1, XDATA, add(CFA_XSP16, literal(-5)))
          CFI (cfiCond196) ?RET_HIGH load(1, XDATA, add(CFA_XSP16, literal(-4)))
          CFI (cfiCond196) ?BRET_EXT load(1, XDATA, add(CFA_XSP16, literal(-3)))
          CFI (cfiCond196) DPL0 load(1, XDATA, add(CFA_XSP16, literal(-2)))
          CFI (cfiCond196) DPH0 load(1, XDATA, add(CFA_XSP16, literal(-1)))
          CFI (cfiCond196) CFA_SP SP+-6
          CFI (cfiCond196) CFA_XSP16 add(XSP16, 15)
          CFI Block cfiCond197 Using cfiCommon0
          CFI (cfiCond197) Function MT_ZdoSendMsgCB
          CFI (cfiCond197) Conditional ??CrossCallReturnLabel_82, ??CrossCallReturnLabel_73, ??CrossCallReturnLabel_31
          CFI (cfiCond197) R6 load(1, XDATA, add(CFA_XSP16, literal(-15)))
          CFI (cfiCond197) VB load(1, XDATA, add(CFA_XSP16, literal(-14)))
          CFI (cfiCond197) V0 load(1, XDATA, add(CFA_XSP16, literal(-13)))
          CFI (cfiCond197) V1 load(1, XDATA, add(CFA_XSP16, literal(-12)))
          CFI (cfiCond197) V2 load(1, XDATA, add(CFA_XSP16, literal(-11)))
          CFI (cfiCond197) V3 load(1, XDATA, add(CFA_XSP16, literal(-10)))
          CFI (cfiCond197) V4 load(1, XDATA, add(CFA_XSP16, literal(-9)))
          CFI (cfiCond197) V5 load(1, XDATA, add(CFA_XSP16, literal(-8)))
          CFI (cfiCond197) V6 load(1, XDATA, add(CFA_XSP16, literal(-7)))
          CFI (cfiCond197) R7 load(1, XDATA, add(CFA_XSP16, literal(-6)))
          CFI (cfiCond197) ?RET_LOW load(1, XDATA, add(CFA_XSP16, literal(-5)))
          CFI (cfiCond197) ?RET_HIGH load(1, XDATA, add(CFA_XSP16, literal(-4)))
          CFI (cfiCond197) ?BRET_EXT load(1, XDATA, add(CFA_XSP16, literal(-3)))
          CFI (cfiCond197) DPL0 load(1, XDATA, add(CFA_XSP16, literal(-2)))
          CFI (cfiCond197) DPH0 load(1, XDATA, add(CFA_XSP16, literal(-1)))
          CFI (cfiCond197) CFA_SP SP+-6
          CFI (cfiCond197) CFA_XSP16 add(XSP16, 15)
          CFI Block cfiCond198 Using cfiCommon0
          CFI (cfiCond198) Function MT_ZdoSendMsgCB
          CFI (cfiCond198) Conditional ??CrossCallReturnLabel_82, ??CrossCallReturnLabel_72, ??CrossCallReturnLabel_22
          CFI (cfiCond198) R6 load(1, XDATA, add(CFA_XSP16, literal(-15)))
          CFI (cfiCond198) VB load(1, XDATA, add(CFA_XSP16, literal(-14)))
          CFI (cfiCond198) V0 load(1, XDATA, add(CFA_XSP16, literal(-13)))
          CFI (cfiCond198) V1 load(1, XDATA, add(CFA_XSP16, literal(-12)))
          CFI (cfiCond198) V2 load(1, XDATA, add(CFA_XSP16, literal(-11)))
          CFI (cfiCond198) V3 load(1, XDATA, add(CFA_XSP16, literal(-10)))
          CFI (cfiCond198) V4 load(1, XDATA, add(CFA_XSP16, literal(-9)))
          CFI (cfiCond198) V5 load(1, XDATA, add(CFA_XSP16, literal(-8)))
          CFI (cfiCond198) V6 load(1, XDATA, add(CFA_XSP16, literal(-7)))
          CFI (cfiCond198) R7 load(1, XDATA, add(CFA_XSP16, literal(-6)))
          CFI (cfiCond198) ?RET_LOW load(1, XDATA, add(CFA_XSP16, literal(-5)))
          CFI (cfiCond198) ?RET_HIGH load(1, XDATA, add(CFA_XSP16, literal(-4)))
          CFI (cfiCond198) ?BRET_EXT load(1, XDATA, add(CFA_XSP16, literal(-3)))
          CFI (cfiCond198) DPL0 load(1, XDATA, add(CFA_XSP16, literal(-2)))
          CFI (cfiCond198) DPH0 load(1, XDATA, add(CFA_XSP16, literal(-1)))
          CFI (cfiCond198) CFA_SP SP+-6
          CFI (cfiCond198) CFA_XSP16 add(XSP16, 15)
          CFI Block cfiCond199 Using cfiCommon0
          CFI (cfiCond199) Function MT_ZdoSendMsgCB
          CFI (cfiCond199) Conditional ??CrossCallReturnLabel_82, ??CrossCallReturnLabel_72, ??CrossCallReturnLabel_23
          CFI (cfiCond199) R6 load(1, XDATA, add(CFA_XSP16, literal(-15)))
          CFI (cfiCond199) VB load(1, XDATA, add(CFA_XSP16, literal(-14)))
          CFI (cfiCond199) V0 load(1, XDATA, add(CFA_XSP16, literal(-13)))
          CFI (cfiCond199) V1 load(1, XDATA, add(CFA_XSP16, literal(-12)))
          CFI (cfiCond199) V2 load(1, XDATA, add(CFA_XSP16, literal(-11)))
          CFI (cfiCond199) V3 load(1, XDATA, add(CFA_XSP16, literal(-10)))
          CFI (cfiCond199) V4 load(1, XDATA, add(CFA_XSP16, literal(-9)))
          CFI (cfiCond199) V5 load(1, XDATA, add(CFA_XSP16, literal(-8)))
          CFI (cfiCond199) V6 load(1, XDATA, add(CFA_XSP16, literal(-7)))
          CFI (cfiCond199) R7 load(1, XDATA, add(CFA_XSP16, literal(-6)))
          CFI (cfiCond199) ?RET_LOW load(1, XDATA, add(CFA_XSP16, literal(-5)))
          CFI (cfiCond199) ?RET_HIGH load(1, XDATA, add(CFA_XSP16, literal(-4)))
          CFI (cfiCond199) ?BRET_EXT load(1, XDATA, add(CFA_XSP16, literal(-3)))
          CFI (cfiCond199) DPL0 load(1, XDATA, add(CFA_XSP16, literal(-2)))
          CFI (cfiCond199) DPH0 load(1, XDATA, add(CFA_XSP16, literal(-1)))
          CFI (cfiCond199) CFA_SP SP+-6
          CFI (cfiCond199) CFA_XSP16 add(XSP16, 15)
          CFI Block cfiCond200 Using cfiCommon0
          CFI (cfiCond200) Function MT_ZdoSendMsgCB
          CFI (cfiCond200) Conditional ??CrossCallReturnLabel_81, ??CrossCallReturnLabel_68
          CFI (cfiCond200) R6 load(1, XDATA, add(CFA_XSP16, literal(-15)))
          CFI (cfiCond200) VB load(1, XDATA, add(CFA_XSP16, literal(-14)))
          CFI (cfiCond200) V0 load(1, XDATA, add(CFA_XSP16, literal(-13)))
          CFI (cfiCond200) V1 load(1, XDATA, add(CFA_XSP16, literal(-12)))
          CFI (cfiCond200) V2 load(1, XDATA, add(CFA_XSP16, literal(-11)))
          CFI (cfiCond200) V3 load(1, XDATA, add(CFA_XSP16, literal(-10)))
          CFI (cfiCond200) V4 load(1, XDATA, add(CFA_XSP16, literal(-9)))
          CFI (cfiCond200) V5 load(1, XDATA, add(CFA_XSP16, literal(-8)))
          CFI (cfiCond200) V6 load(1, XDATA, add(CFA_XSP16, literal(-7)))
          CFI (cfiCond200) R7 load(1, XDATA, add(CFA_XSP16, literal(-6)))
          CFI (cfiCond200) ?RET_LOW load(1, XDATA, add(CFA_XSP16, literal(-5)))
          CFI (cfiCond200) ?RET_HIGH load(1, XDATA, add(CFA_XSP16, literal(-4)))
          CFI (cfiCond200) ?BRET_EXT load(1, XDATA, add(CFA_XSP16, literal(-3)))
          CFI (cfiCond200) DPL0 load(1, XDATA, add(CFA_XSP16, literal(-2)))
          CFI (cfiCond200) DPH0 load(1, XDATA, add(CFA_XSP16, literal(-1)))
          CFI (cfiCond200) CFA_SP SP+-4
          CFI (cfiCond200) CFA_XSP16 add(XSP16, 15)
          CFI Block cfiCond201 Using cfiCommon0
          CFI (cfiCond201) Function MT_ZdoSendMsgCB
          CFI (cfiCond201) Conditional ??CrossCallReturnLabel_81, ??CrossCallReturnLabel_69, ??CrossCallReturnLabel_24
          CFI (cfiCond201) R6 load(1, XDATA, add(CFA_XSP16, literal(-15)))
          CFI (cfiCond201) VB load(1, XDATA, add(CFA_XSP16, literal(-14)))
          CFI (cfiCond201) V0 load(1, XDATA, add(CFA_XSP16, literal(-13)))
          CFI (cfiCond201) V1 load(1, XDATA, add(CFA_XSP16, literal(-12)))
          CFI (cfiCond201) V2 load(1, XDATA, add(CFA_XSP16, literal(-11)))
          CFI (cfiCond201) V3 load(1, XDATA, add(CFA_XSP16, literal(-10)))
          CFI (cfiCond201) V4 load(1, XDATA, add(CFA_XSP16, literal(-9)))
          CFI (cfiCond201) V5 load(1, XDATA, add(CFA_XSP16, literal(-8)))
          CFI (cfiCond201) V6 load(1, XDATA, add(CFA_XSP16, literal(-7)))
          CFI (cfiCond201) R7 load(1, XDATA, add(CFA_XSP16, literal(-6)))
          CFI (cfiCond201) ?RET_LOW load(1, XDATA, add(CFA_XSP16, literal(-5)))
          CFI (cfiCond201) ?RET_HIGH load(1, XDATA, add(CFA_XSP16, literal(-4)))
          CFI (cfiCond201) ?BRET_EXT load(1, XDATA, add(CFA_XSP16, literal(-3)))
          CFI (cfiCond201) DPL0 load(1, XDATA, add(CFA_XSP16, literal(-2)))
          CFI (cfiCond201) DPH0 load(1, XDATA, add(CFA_XSP16, literal(-1)))
          CFI (cfiCond201) CFA_SP SP+-6
          CFI (cfiCond201) CFA_XSP16 add(XSP16, 15)
          CFI Block cfiCond202 Using cfiCommon0
          CFI (cfiCond202) Function MT_ZdoSendMsgCB
          CFI (cfiCond202) Conditional ??CrossCallReturnLabel_81, ??CrossCallReturnLabel_69, ??CrossCallReturnLabel_25
          CFI (cfiCond202) R6 load(1, XDATA, add(CFA_XSP16, literal(-15)))
          CFI (cfiCond202) VB load(1, XDATA, add(CFA_XSP16, literal(-14)))
          CFI (cfiCond202) V0 load(1, XDATA, add(CFA_XSP16, literal(-13)))
          CFI (cfiCond202) V1 load(1, XDATA, add(CFA_XSP16, literal(-12)))
          CFI (cfiCond202) V2 load(1, XDATA, add(CFA_XSP16, literal(-11)))
          CFI (cfiCond202) V3 load(1, XDATA, add(CFA_XSP16, literal(-10)))
          CFI (cfiCond202) V4 load(1, XDATA, add(CFA_XSP16, literal(-9)))
          CFI (cfiCond202) V5 load(1, XDATA, add(CFA_XSP16, literal(-8)))
          CFI (cfiCond202) V6 load(1, XDATA, add(CFA_XSP16, literal(-7)))
          CFI (cfiCond202) R7 load(1, XDATA, add(CFA_XSP16, literal(-6)))
          CFI (cfiCond202) ?RET_LOW load(1, XDATA, add(CFA_XSP16, literal(-5)))
          CFI (cfiCond202) ?RET_HIGH load(1, XDATA, add(CFA_XSP16, literal(-4)))
          CFI (cfiCond202) ?BRET_EXT load(1, XDATA, add(CFA_XSP16, literal(-3)))
          CFI (cfiCond202) DPL0 load(1, XDATA, add(CFA_XSP16, literal(-2)))
          CFI (cfiCond202) DPH0 load(1, XDATA, add(CFA_XSP16, literal(-1)))
          CFI (cfiCond202) CFA_SP SP+-6
          CFI (cfiCond202) CFA_XSP16 add(XSP16, 15)
          CFI Block cfiPicker203 Using cfiCommon1
          CFI (cfiPicker203) NoFunction
          CFI (cfiPicker203) Picker
        MOVX    A,@DPTR
        MOV     DPL,R6
        MOV     DPH,R7
        INC     DPTR
        RET
          CFI (cfiCond195) CFA_SP SP+0
          CFI (cfiCond196) CFA_SP SP+-4
          CFI (cfiCond197) CFA_SP SP+-4
          CFI (cfiCond198) CFA_SP SP+-4
          CFI (cfiCond199) CFA_SP SP+-4
          CFI (cfiCond200) CFA_SP SP+-2
          CFI (cfiCond201) CFA_SP SP+-4
          CFI (cfiCond202) CFA_SP SP+-4
          CFI (cfiPicker203) CFA_SP SP+0
          CFI EndBlock cfiCond195
          CFI EndBlock cfiCond196
          CFI EndBlock cfiCond197
          CFI EndBlock cfiCond198
          CFI EndBlock cfiCond199
          CFI EndBlock cfiCond200
          CFI EndBlock cfiCond201
          CFI EndBlock cfiCond202
          CFI EndBlock cfiPicker203

        RSEG BANKED_CODE:CODE:NOROOT(0)
?Subroutine17:
          CFI Block cfiCond204 Using cfiCommon0
          CFI Function MT_ZdoSendMsgCB
          CFI Conditional ??CrossCallReturnLabel_24
          CFI R6 load(1, XDATA, add(CFA_XSP16, literal(-15)))
          CFI VB load(1, XDATA, add(CFA_XSP16, literal(-14)))
          CFI V0 load(1, XDATA, add(CFA_XSP16, literal(-13)))
          CFI V1 load(1, XDATA, add(CFA_XSP16, literal(-12)))
          CFI V2 load(1, XDATA, add(CFA_XSP16, literal(-11)))
          CFI V3 load(1, XDATA, add(CFA_XSP16, literal(-10)))
          CFI V4 load(1, XDATA, add(CFA_XSP16, literal(-9)))
          CFI V5 load(1, XDATA, add(CFA_XSP16, literal(-8)))
          CFI V6 load(1, XDATA, add(CFA_XSP16, literal(-7)))
          CFI R7 load(1, XDATA, add(CFA_XSP16, literal(-6)))
          CFI ?RET_LOW load(1, XDATA, add(CFA_XSP16, literal(-5)))
          CFI ?RET_HIGH load(1, XDATA, add(CFA_XSP16, literal(-4)))
          CFI ?BRET_EXT load(1, XDATA, add(CFA_XSP16, literal(-3)))
          CFI DPL0 load(1, XDATA, add(CFA_XSP16, literal(-2)))
          CFI DPH0 load(1, XDATA, add(CFA_XSP16, literal(-1)))
          CFI CFA_SP SP+-2
          CFI CFA_XSP16 add(XSP16, 15)
          CFI Block cfiCond205 Using cfiCommon0
          CFI (cfiCond205) Function MT_ZdoSendMsgCB
          CFI (cfiCond205) Conditional ??CrossCallReturnLabel_25
          CFI (cfiCond205) R6 load(1, XDATA, add(CFA_XSP16, literal(-15)))
          CFI (cfiCond205) VB load(1, XDATA, add(CFA_XSP16, literal(-14)))
          CFI (cfiCond205) V0 load(1, XDATA, add(CFA_XSP16, literal(-13)))
          CFI (cfiCond205) V1 load(1, XDATA, add(CFA_XSP16, literal(-12)))
          CFI (cfiCond205) V2 load(1, XDATA, add(CFA_XSP16, literal(-11)))
          CFI (cfiCond205) V3 load(1, XDATA, add(CFA_XSP16, literal(-10)))
          CFI (cfiCond205) V4 load(1, XDATA, add(CFA_XSP16, literal(-9)))
          CFI (cfiCond205) V5 load(1, XDATA, add(CFA_XSP16, literal(-8)))
          CFI (cfiCond205) V6 load(1, XDATA, add(CFA_XSP16, literal(-7)))
          CFI (cfiCond205) R7 load(1, XDATA, add(CFA_XSP16, literal(-6)))
          CFI (cfiCond205) ?RET_LOW load(1, XDATA, add(CFA_XSP16, literal(-5)))
          CFI (cfiCond205) ?RET_HIGH load(1, XDATA, add(CFA_XSP16, literal(-4)))
          CFI (cfiCond205) ?BRET_EXT load(1, XDATA, add(CFA_XSP16, literal(-3)))
          CFI (cfiCond205) DPL0 load(1, XDATA, add(CFA_XSP16, literal(-2)))
          CFI (cfiCond205) DPH0 load(1, XDATA, add(CFA_XSP16, literal(-1)))
          CFI (cfiCond205) CFA_SP SP+-2
          CFI (cfiCond205) CFA_XSP16 add(XSP16, 15)
          CFI Block cfiPicker206 Using cfiCommon1
          CFI (cfiPicker206) NoFunction
          CFI (cfiPicker206) Picker
        LCALL   ?Subroutine35 & 0xFFFF
??CrossCallReturnLabel_69:
        INC     DPTR
        INC     DPTR
        INC     DPTR
        RET
          CFI (cfiCond204) CFA_SP SP+0
          CFI (cfiCond205) CFA_SP SP+0
          CFI (cfiPicker206) CFA_SP SP+0
          CFI EndBlock cfiCond204
          CFI EndBlock cfiCond205
          CFI EndBlock cfiPicker206

        RSEG BANKED_CODE:CODE:NOROOT(0)
?Subroutine35:
          CFI Block cfiCond207 Using cfiCommon0
          CFI Function MT_ZdoSendMsgCB
          CFI Conditional ??CrossCallReturnLabel_68
          CFI R6 load(1, XDATA, add(CFA_XSP16, literal(-15)))
          CFI VB load(1, XDATA, add(CFA_XSP16, literal(-14)))
          CFI V0 load(1, XDATA, add(CFA_XSP16, literal(-13)))
          CFI V1 load(1, XDATA, add(CFA_XSP16, literal(-12)))
          CFI V2 load(1, XDATA, add(CFA_XSP16, literal(-11)))
          CFI V3 load(1, XDATA, add(CFA_XSP16, literal(-10)))
          CFI V4 load(1, XDATA, add(CFA_XSP16, literal(-9)))
          CFI V5 load(1, XDATA, add(CFA_XSP16, literal(-8)))
          CFI V6 load(1, XDATA, add(CFA_XSP16, literal(-7)))
          CFI R7 load(1, XDATA, add(CFA_XSP16, literal(-6)))
          CFI ?RET_LOW load(1, XDATA, add(CFA_XSP16, literal(-5)))
          CFI ?RET_HIGH load(1, XDATA, add(CFA_XSP16, literal(-4)))
          CFI ?BRET_EXT load(1, XDATA, add(CFA_XSP16, literal(-3)))
          CFI DPL0 load(1, XDATA, add(CFA_XSP16, literal(-2)))
          CFI DPH0 load(1, XDATA, add(CFA_XSP16, literal(-1)))
          CFI CFA_SP SP+-2
          CFI CFA_XSP16 add(XSP16, 15)
          CFI Block cfiCond208 Using cfiCommon0
          CFI (cfiCond208) Function MT_ZdoSendMsgCB
          CFI (cfiCond208) Conditional ??CrossCallReturnLabel_69, ??CrossCallReturnLabel_24
          CFI (cfiCond208) R6 load(1, XDATA, add(CFA_XSP16, literal(-15)))
          CFI (cfiCond208) VB load(1, XDATA, add(CFA_XSP16, literal(-14)))
          CFI (cfiCond208) V0 load(1, XDATA, add(CFA_XSP16, literal(-13)))
          CFI (cfiCond208) V1 load(1, XDATA, add(CFA_XSP16, literal(-12)))
          CFI (cfiCond208) V2 load(1, XDATA, add(CFA_XSP16, literal(-11)))
          CFI (cfiCond208) V3 load(1, XDATA, add(CFA_XSP16, literal(-10)))
          CFI (cfiCond208) V4 load(1, XDATA, add(CFA_XSP16, literal(-9)))
          CFI (cfiCond208) V5 load(1, XDATA, add(CFA_XSP16, literal(-8)))
          CFI (cfiCond208) V6 load(1, XDATA, add(CFA_XSP16, literal(-7)))
          CFI (cfiCond208) R7 load(1, XDATA, add(CFA_XSP16, literal(-6)))
          CFI (cfiCond208) ?RET_LOW load(1, XDATA, add(CFA_XSP16, literal(-5)))
          CFI (cfiCond208) ?RET_HIGH load(1, XDATA, add(CFA_XSP16, literal(-4)))
          CFI (cfiCond208) ?BRET_EXT load(1, XDATA, add(CFA_XSP16, literal(-3)))
          CFI (cfiCond208) DPL0 load(1, XDATA, add(CFA_XSP16, literal(-2)))
          CFI (cfiCond208) DPH0 load(1, XDATA, add(CFA_XSP16, literal(-1)))
          CFI (cfiCond208) CFA_SP SP+-4
          CFI (cfiCond208) CFA_XSP16 add(XSP16, 15)
          CFI Block cfiCond209 Using cfiCommon0
          CFI (cfiCond209) Function MT_ZdoSendMsgCB
          CFI (cfiCond209) Conditional ??CrossCallReturnLabel_69, ??CrossCallReturnLabel_25
          CFI (cfiCond209) R6 load(1, XDATA, add(CFA_XSP16, literal(-15)))
          CFI (cfiCond209) VB load(1, XDATA, add(CFA_XSP16, literal(-14)))
          CFI (cfiCond209) V0 load(1, XDATA, add(CFA_XSP16, literal(-13)))
          CFI (cfiCond209) V1 load(1, XDATA, add(CFA_XSP16, literal(-12)))
          CFI (cfiCond209) V2 load(1, XDATA, add(CFA_XSP16, literal(-11)))
          CFI (cfiCond209) V3 load(1, XDATA, add(CFA_XSP16, literal(-10)))
          CFI (cfiCond209) V4 load(1, XDATA, add(CFA_XSP16, literal(-9)))
          CFI (cfiCond209) V5 load(1, XDATA, add(CFA_XSP16, literal(-8)))
          CFI (cfiCond209) V6 load(1, XDATA, add(CFA_XSP16, literal(-7)))
          CFI (cfiCond209) R7 load(1, XDATA, add(CFA_XSP16, literal(-6)))
          CFI (cfiCond209) ?RET_LOW load(1, XDATA, add(CFA_XSP16, literal(-5)))
          CFI (cfiCond209) ?RET_HIGH load(1, XDATA, add(CFA_XSP16, literal(-4)))
          CFI (cfiCond209) ?BRET_EXT load(1, XDATA, add(CFA_XSP16, literal(-3)))
          CFI (cfiCond209) DPL0 load(1, XDATA, add(CFA_XSP16, literal(-2)))
          CFI (cfiCond209) DPH0 load(1, XDATA, add(CFA_XSP16, literal(-1)))
          CFI (cfiCond209) CFA_SP SP+-4
          CFI (cfiCond209) CFA_XSP16 add(XSP16, 15)
          CFI Block cfiPicker210 Using cfiCommon1
          CFI (cfiPicker210) NoFunction
          CFI (cfiPicker210) Picker
        MOV     DPL,A
        CLR     A
        ADDC    A,?V1
        MOV     DPH,A
        LCALL   ?Subroutine40 & 0xFFFF
??CrossCallReturnLabel_81:
        INC     DPTR
        RET
          CFI (cfiCond207) CFA_SP SP+0
          CFI (cfiCond208) CFA_SP SP+-2
          CFI (cfiCond209) CFA_SP SP+-2
          CFI (cfiPicker210) CFA_SP SP+0
          CFI EndBlock cfiCond207
          CFI EndBlock cfiCond208
          CFI EndBlock cfiCond209
          CFI EndBlock cfiPicker210

        RSEG BANKED_CODE:CODE:NOROOT(0)
?Subroutine16:
          CFI Block cfiCond211 Using cfiCommon0
          CFI Function MT_ZdoSendMsgCB
          CFI Conditional ??CrossCallReturnLabel_22
          CFI R6 load(1, XDATA, add(CFA_XSP16, literal(-15)))
          CFI VB load(1, XDATA, add(CFA_XSP16, literal(-14)))
          CFI V0 load(1, XDATA, add(CFA_XSP16, literal(-13)))
          CFI V1 load(1, XDATA, add(CFA_XSP16, literal(-12)))
          CFI V2 load(1, XDATA, add(CFA_XSP16, literal(-11)))
          CFI V3 load(1, XDATA, add(CFA_XSP16, literal(-10)))
          CFI V4 load(1, XDATA, add(CFA_XSP16, literal(-9)))
          CFI V5 load(1, XDATA, add(CFA_XSP16, literal(-8)))
          CFI V6 load(1, XDATA, add(CFA_XSP16, literal(-7)))
          CFI R7 load(1, XDATA, add(CFA_XSP16, literal(-6)))
          CFI ?RET_LOW load(1, XDATA, add(CFA_XSP16, literal(-5)))
          CFI ?RET_HIGH load(1, XDATA, add(CFA_XSP16, literal(-4)))
          CFI ?BRET_EXT load(1, XDATA, add(CFA_XSP16, literal(-3)))
          CFI DPL0 load(1, XDATA, add(CFA_XSP16, literal(-2)))
          CFI DPH0 load(1, XDATA, add(CFA_XSP16, literal(-1)))
          CFI CFA_SP SP+-2
          CFI CFA_XSP16 add(XSP16, 15)
          CFI Block cfiCond212 Using cfiCommon0
          CFI (cfiCond212) Function MT_ZdoSendMsgCB
          CFI (cfiCond212) Conditional ??CrossCallReturnLabel_23
          CFI (cfiCond212) R6 load(1, XDATA, add(CFA_XSP16, literal(-15)))
          CFI (cfiCond212) VB load(1, XDATA, add(CFA_XSP16, literal(-14)))
          CFI (cfiCond212) V0 load(1, XDATA, add(CFA_XSP16, literal(-13)))
          CFI (cfiCond212) V1 load(1, XDATA, add(CFA_XSP16, literal(-12)))
          CFI (cfiCond212) V2 load(1, XDATA, add(CFA_XSP16, literal(-11)))
          CFI (cfiCond212) V3 load(1, XDATA, add(CFA_XSP16, literal(-10)))
          CFI (cfiCond212) V4 load(1, XDATA, add(CFA_XSP16, literal(-9)))
          CFI (cfiCond212) V5 load(1, XDATA, add(CFA_XSP16, literal(-8)))
          CFI (cfiCond212) V6 load(1, XDATA, add(CFA_XSP16, literal(-7)))
          CFI (cfiCond212) R7 load(1, XDATA, add(CFA_XSP16, literal(-6)))
          CFI (cfiCond212) ?RET_LOW load(1, XDATA, add(CFA_XSP16, literal(-5)))
          CFI (cfiCond212) ?RET_HIGH load(1, XDATA, add(CFA_XSP16, literal(-4)))
          CFI (cfiCond212) ?BRET_EXT load(1, XDATA, add(CFA_XSP16, literal(-3)))
          CFI (cfiCond212) DPL0 load(1, XDATA, add(CFA_XSP16, literal(-2)))
          CFI (cfiCond212) DPH0 load(1, XDATA, add(CFA_XSP16, literal(-1)))
          CFI (cfiCond212) CFA_SP SP+-2
          CFI (cfiCond212) CFA_XSP16 add(XSP16, 15)
          CFI Block cfiPicker213 Using cfiCommon1
          CFI (cfiPicker213) NoFunction
          CFI (cfiPicker213) Picker
        LCALL   ?Subroutine37 & 0xFFFF
??CrossCallReturnLabel_72:
        INC     DPTR
        INC     DPTR
        INC     DPTR
        INC     DPTR
        RET
          CFI (cfiCond211) CFA_SP SP+0
          CFI (cfiCond212) CFA_SP SP+0
          CFI (cfiPicker213) CFA_SP SP+0
          CFI EndBlock cfiCond211
          CFI EndBlock cfiCond212
          CFI EndBlock cfiPicker213

        RSEG BANK_RELAYS:CODE:REORDER:NOROOT(0)
`??MT_ZdoInit::?relay`:
        CODE
        LCALL   ?BDISPATCH
        DATA24
        DC24    MT_ZdoInit

        RSEG BANK_RELAYS:CODE:REORDER:NOROOT(0)
`??MT_ZdoCommandProcessing::?relay`:
        CODE
        LCALL   ?BDISPATCH
        DATA24
        DC24    MT_ZdoCommandProcessing

        RSEG BANK_RELAYS:CODE:REORDER:NOROOT(0)
`??MT_ZdoNWKAddressRequest::?relay`:
        CODE
        LCALL   ?BDISPATCH
        DATA24
        DC24    MT_ZdoNWKAddressRequest

        RSEG BANK_RELAYS:CODE:REORDER:NOROOT(0)
`??MT_ZdoIEEEAddrRequest::?relay`:
        CODE
        LCALL   ?BDISPATCH
        DATA24
        DC24    MT_ZdoIEEEAddrRequest

        RSEG BANK_RELAYS:CODE:REORDER:NOROOT(0)
`??MT_ZdoNodeDescRequest::?relay`:
        CODE
        LCALL   ?BDISPATCH
        DATA24
        DC24    MT_ZdoNodeDescRequest

        RSEG BANK_RELAYS:CODE:REORDER:NOROOT(0)
`??MT_ZdoPowerDescRequest::?relay`:
        CODE
        LCALL   ?BDISPATCH
        DATA24
        DC24    MT_ZdoPowerDescRequest

        RSEG BANK_RELAYS:CODE:REORDER:NOROOT(0)
`??MT_ZdoSimpleDescRequest::?relay`:
        CODE
        LCALL   ?BDISPATCH
        DATA24
        DC24    MT_ZdoSimpleDescRequest

        RSEG BANK_RELAYS:CODE:REORDER:NOROOT(0)
`??MT_ZdoActiveEpRequest::?relay`:
        CODE
        LCALL   ?BDISPATCH
        DATA24
        DC24    MT_ZdoActiveEpRequest

        RSEG BANK_RELAYS:CODE:REORDER:NOROOT(0)
`??MT_ZdoMatchDescRequest::?relay`:
        CODE
        LCALL   ?BDISPATCH
        DATA24
        DC24    MT_ZdoMatchDescRequest

        RSEG BANK_RELAYS:CODE:REORDER:NOROOT(0)
`??MT_ZdoComplexDescRequest::?relay`:
        CODE
        LCALL   ?BDISPATCH
        DATA24
        DC24    MT_ZdoComplexDescRequest

        RSEG BANK_RELAYS:CODE:REORDER:NOROOT(0)
`??MT_ZdoUserDescRequest::?relay`:
        CODE
        LCALL   ?BDISPATCH
        DATA24
        DC24    MT_ZdoUserDescRequest

        RSEG BANK_RELAYS:CODE:REORDER:NOROOT(0)
`??MT_ZdoEndDevAnnce::?relay`:
        CODE
        LCALL   ?BDISPATCH
        DATA24
        DC24    MT_ZdoEndDevAnnce

        RSEG BANK_RELAYS:CODE:REORDER:NOROOT(0)
`??MT_ZdoUserDescSet::?relay`:
        CODE
        LCALL   ?BDISPATCH
        DATA24
        DC24    MT_ZdoUserDescSet

        RSEG BANK_RELAYS:CODE:REORDER:NOROOT(0)
`??MT_ZdoServiceDiscRequest::?relay`:
        CODE
        LCALL   ?BDISPATCH
        DATA24
        DC24    MT_ZdoServiceDiscRequest

        RSEG BANK_RELAYS:CODE:REORDER:NOROOT(0)
`??MT_ZdoEndDevBindRequest::?relay`:
        CODE
        LCALL   ?BDISPATCH
        DATA24
        DC24    MT_ZdoEndDevBindRequest

        RSEG BANK_RELAYS:CODE:REORDER:NOROOT(0)
`??MT_ZdoBindRequest::?relay`:
        CODE
        LCALL   ?BDISPATCH
        DATA24
        DC24    MT_ZdoBindRequest

        RSEG BANK_RELAYS:CODE:REORDER:NOROOT(0)
`??MT_ZdoUnbindRequest::?relay`:
        CODE
        LCALL   ?BDISPATCH
        DATA24
        DC24    MT_ZdoUnbindRequest

        RSEG BANK_RELAYS:CODE:REORDER:NOROOT(0)
`??MT_ZdoSetLinkKey::?relay`:
        CODE
        LCALL   ?BDISPATCH
        DATA24
        DC24    MT_ZdoSetLinkKey

        RSEG BANK_RELAYS:CODE:REORDER:NOROOT(0)
`??MT_ZdoRemoveLinkKey::?relay`:
        CODE
        LCALL   ?BDISPATCH
        DATA24
        DC24    MT_ZdoRemoveLinkKey

        RSEG BANK_RELAYS:CODE:REORDER:NOROOT(0)
`??MT_ZdoGetLinkKey::?relay`:
        CODE
        LCALL   ?BDISPATCH
        DATA24
        DC24    MT_ZdoGetLinkKey

        RSEG BANK_RELAYS:CODE:REORDER:NOROOT(0)
`??MT_ZdoStartupFromApp::?relay`:
        CODE
        LCALL   ?BDISPATCH
        DATA24
        DC24    MT_ZdoStartupFromApp

        RSEG BANK_RELAYS:CODE:REORDER:NOROOT(0)
`??MT_ZdoRegisterForZDOMsg::?relay`:
        CODE
        LCALL   ?BDISPATCH
        DATA24
        DC24    MT_ZdoRegisterForZDOMsg

        RSEG BANK_RELAYS:CODE:REORDER:NOROOT(0)
`??MT_ZdoRemoveRegisteredCB::?relay`:
        CODE
        LCALL   ?BDISPATCH
        DATA24
        DC24    MT_ZdoRemoveRegisteredCB

        RSEG BANK_RELAYS:CODE:REORDER:NOROOT(0)
`??MT_ZdoSendMsgCB::?relay`:
        CODE
        LCALL   ?BDISPATCH
        DATA24
        DC24    MT_ZdoSendMsgCB

        END
// 1806 
// 1807 #endif   /*ZDO Command Processing in MT*/
// 1808 /***************************************************************************************************
// 1809 ***************************************************************************************************/
// 
// 2 937 bytes in segment BANKED_CODE
//   144 bytes in segment BANK_RELAYS
//     4 bytes in segment XDATA_Z
// 
// 3 081 bytes of CODE  memory
//     4 bytes of XDATA memory
//
//Errors: none
//Warnings: none
